
HelloWorld.elf:     file format elf32-littlearm


Disassembly of section .text:

00000000 <__isr_vector>:
       0:	10008000 	andne	r8, r0, r0
       4:	000001f5 	strdeq	r0, [r0], -r5
       8:	00000229 	andeq	r0, r0, r9, lsr #4
       c:	0000022b 	andeq	r0, r0, fp, lsr #4
      10:	0000022d 	andeq	r0, r0, sp, lsr #4
      14:	0000022f 	andeq	r0, r0, pc, lsr #4
      18:	00000231 	andeq	r0, r0, r1, lsr r2
	...
      2c:	00000233 	andeq	r0, r0, r3, lsr r2
      30:	00000235 	andeq	r0, r0, r5, lsr r2
      34:	00000000 	andeq	r0, r0, r0
      38:	00000237 	andeq	r0, r0, r7, lsr r2
      3c:	00000239 	andeq	r0, r0, r9, lsr r2
      40:	0000023d 	andeq	r0, r0, sp, lsr r2
      44:	0000023f 	andeq	r0, r0, pc, lsr r2
      48:	00000241 	andeq	r0, r0, r1, asr #4
      4c:	00000243 	andeq	r0, r0, r3, asr #4
      50:	00000245 	andeq	r0, r0, r5, asr #4
      54:	00000247 	andeq	r0, r0, r7, asr #4
      58:	00000249 	andeq	r0, r0, r9, asr #4
      5c:	0000024b 	andeq	r0, r0, fp, asr #4
      60:	0000024d 	andeq	r0, r0, sp, asr #4
      64:	0000024f 	andeq	r0, r0, pc, asr #4
      68:	00000251 	andeq	r0, r0, r1, asr r2
      6c:	00000253 	andeq	r0, r0, r3, asr r2
      70:	00000255 	andeq	r0, r0, r5, asr r2
      74:	00000257 	andeq	r0, r0, r7, asr r2
      78:	00000259 	andeq	r0, r0, r9, asr r2
      7c:	0000025b 	andeq	r0, r0, fp, asr r2
      80:	0000025d 	andeq	r0, r0, sp, asr r2
      84:	0000025f 	andeq	r0, r0, pc, asr r2
      88:	00000261 	andeq	r0, r0, r1, ror #4
      8c:	00000263 	andeq	r0, r0, r3, ror #4
      90:	00000265 	andeq	r0, r0, r5, ror #4
      94:	00000267 	andeq	r0, r0, r7, ror #4
      98:	00000269 	andeq	r0, r0, r9, ror #4
      9c:	0000026b 	andeq	r0, r0, fp, ror #4
      a0:	0000026d 	andeq	r0, r0, sp, ror #4
      a4:	0000026f 	andeq	r0, r0, pc, ror #4
      a8:	00000271 	andeq	r0, r0, r1, ror r2
      ac:	00000273 	andeq	r0, r0, r3, ror r2
      b0:	00000275 	andeq	r0, r0, r5, ror r2
      b4:	00000277 	andeq	r0, r0, r7, ror r2
      b8:	00000279 	andeq	r0, r0, r9, ror r2
      bc:	0000027b 	andeq	r0, r0, fp, ror r2
      c0:	0000027d 	andeq	r0, r0, sp, ror r2
      c4:	0000027f 	andeq	r0, r0, pc, ror r2
      c8:	00000281 	andeq	r0, r0, r1, lsl #5

000000cc <_mainCRTStartup>:
      cc:	4b15      	ldr	r3, [pc, #84]	; (124 <_mainCRTStartup+0x58>)
      ce:	2b00      	cmp	r3, #0
      d0:	bf08      	it	eq
      d2:	4b13      	ldreq	r3, [pc, #76]	; (120 <_mainCRTStartup+0x54>)
      d4:	469d      	mov	sp, r3
      d6:	f5a3 3a80 	sub.w	sl, r3, #65536	; 0x10000
      da:	2100      	movs	r1, #0
      dc:	468b      	mov	fp, r1
      de:	460f      	mov	r7, r1
      e0:	4813      	ldr	r0, [pc, #76]	; (130 <_mainCRTStartup+0x64>)
      e2:	4a14      	ldr	r2, [pc, #80]	; (134 <_mainCRTStartup+0x68>)
      e4:	1a12      	subs	r2, r2, r0
      e6:	f000 faa8 	bl	63a <memset>
      ea:	4b0f      	ldr	r3, [pc, #60]	; (128 <_mainCRTStartup+0x5c>)
      ec:	2b00      	cmp	r3, #0
      ee:	d000      	beq.n	f2 <_mainCRTStartup+0x26>
      f0:	4798      	blx	r3
      f2:	4b0e      	ldr	r3, [pc, #56]	; (12c <_mainCRTStartup+0x60>)
      f4:	2b00      	cmp	r3, #0
      f6:	d000      	beq.n	fa <_mainCRTStartup+0x2e>
      f8:	4798      	blx	r3
      fa:	2000      	movs	r0, #0
      fc:	2100      	movs	r1, #0
      fe:	0004      	movs	r4, r0
     100:	000d      	movs	r5, r1
     102:	480d      	ldr	r0, [pc, #52]	; (138 <_mainCRTStartup+0x6c>)
     104:	2800      	cmp	r0, #0
     106:	d002      	beq.n	10e <_mainCRTStartup+0x42>
     108:	480c      	ldr	r0, [pc, #48]	; (13c <_mainCRTStartup+0x70>)
     10a:	f3af 8000 	nop.w
     10e:	f000 fa5d 	bl	5cc <__libc_init_array>
     112:	0020      	movs	r0, r4
     114:	0029      	movs	r1, r5
     116:	f000 f813 	bl	140 <main>
     11a:	f000 f8b3 	bl	284 <exit>
     11e:	bf00      	nop
     120:	00080000 	andeq	r0, r8, r0
     124:	10008000 	andne	r8, r0, r0
	...
     130:	1000016c 	andne	r0, r0, ip, ror #2
     134:	1000019c 	mulne	r0, ip, r1
	...

00000140 <main>:
     140:	b508      	push	{r3, lr}
     142:	4c07      	ldr	r4, [pc, #28]	; (160 <main+0x20>)
     144:	4807      	ldr	r0, [pc, #28]	; (164 <main+0x24>)
     146:	6963      	ldr	r3, [r4, #20]
     148:	69a2      	ldr	r2, [r4, #24]
     14a:	619a      	str	r2, [r3, #24]
     14c:	f000 f948 	bl	3e0 <wait>
     150:	6963      	ldr	r3, [r4, #20]
     152:	69a2      	ldr	r2, [r4, #24]
     154:	4803      	ldr	r0, [pc, #12]	; (164 <main+0x24>)
     156:	61da      	str	r2, [r3, #28]
     158:	f000 f942 	bl	3e0 <wait>
     15c:	e7f1      	b.n	142 <main+0x2>
     15e:	bf00      	nop
     160:	1000016c 	andne	r0, r0, ip, ror #2
     164:	3e4ccccd 	cdpcc	12, 4, cr12, cr12, cr13, {6}

00000168 <SystemInit>:
     168:	f44f 4140 	mov.w	r1, #49152	; 0xc000
     16c:	f2c4 010f 	movt	r1, #16399	; 0x400f
     170:	2320      	movs	r3, #32
     172:	f8c1 31a0 	str.w	r3, [r1, #416]	; 0x1a0
     176:	f8d1 21a0 	ldr.w	r2, [r1, #416]	; 0x1a0
     17a:	f44f 4340 	mov.w	r3, #49152	; 0xc000
     17e:	0650      	lsls	r0, r2, #25
     180:	f2c4 030f 	movt	r3, #16399	; 0x400f
     184:	d5f7      	bpl.n	176 <SystemInit+0xe>
     186:	2201      	movs	r2, #1
     188:	2102      	movs	r1, #2
     18a:	200b      	movs	r0, #11
     18c:	f8c3 1104 	str.w	r1, [r3, #260]	; 0x104
     190:	f8c3 210c 	str.w	r2, [r3, #268]	; 0x10c
     194:	f8c3 0084 	str.w	r0, [r3, #132]	; 0x84
     198:	f8c3 2080 	str.w	r2, [r3, #128]	; 0x80
     19c:	22aa      	movs	r2, #170	; 0xaa
     19e:	f8c3 208c 	str.w	r2, [r3, #140]	; 0x8c
     1a2:	2255      	movs	r2, #85	; 0x55
     1a4:	4619      	mov	r1, r3
     1a6:	f8c3 208c 	str.w	r2, [r3, #140]	; 0x8c
     1aa:	f8d1 2088 	ldr.w	r2, [r1, #136]	; 0x88
     1ae:	f44f 4340 	mov.w	r3, #49152	; 0xc000
     1b2:	0152      	lsls	r2, r2, #5
     1b4:	f2c4 030f 	movt	r3, #16399	; 0x400f
     1b8:	d5f7      	bpl.n	1aa <SystemInit+0x42>
     1ba:	2003      	movs	r0, #3
     1bc:	f8c3 0080 	str.w	r0, [r3, #128]	; 0x80
     1c0:	20aa      	movs	r0, #170	; 0xaa
     1c2:	f8c3 008c 	str.w	r0, [r3, #140]	; 0x8c
     1c6:	f248 71de 	movw	r1, #34782	; 0x87de
     1ca:	2055      	movs	r0, #85	; 0x55
     1cc:	f8c3 008c 	str.w	r0, [r3, #140]	; 0x8c
     1d0:	2200      	movs	r2, #0
     1d2:	f2c0 4128 	movt	r1, #1064	; 0x428
     1d6:	2005      	movs	r0, #5
     1d8:	f8c3 0108 	str.w	r0, [r3, #264]	; 0x108
     1dc:	f8c3 21a8 	str.w	r2, [r3, #424]	; 0x1a8
     1e0:	f8c3 21ac 	str.w	r2, [r3, #428]	; 0x1ac
     1e4:	f8c3 10c4 	str.w	r1, [r3, #196]	; 0xc4
     1e8:	f8c3 21c8 	str.w	r2, [r3, #456]	; 0x1c8
     1ec:	f243 023a 	movw	r2, #12346	; 0x303a
     1f0:	601a      	str	r2, [r3, #0]
     1f2:	4770      	bx	lr

000001f4 <Reset_Handler>:
     1f4:	4907      	ldr	r1, [pc, #28]	; (214 <.flash_to_ram_loop+0x1a>)
     1f6:	4a08      	ldr	r2, [pc, #32]	; (218 <.flash_to_ram_loop+0x1e>)
     1f8:	4b08      	ldr	r3, [pc, #32]	; (21c <.flash_to_ram_loop+0x22>)

000001fa <.flash_to_ram_loop>:
     1fa:	429a      	cmp	r2, r3
     1fc:	bfbe      	ittt	lt
     1fe:	f851 0b04 	ldrlt.w	r0, [r1], #4
     202:	f842 0b04 	strlt.w	r0, [r2], #4
     206:	f7ff bff8 	blt.w	1fa <.flash_to_ram_loop>
     20a:	4805      	ldr	r0, [pc, #20]	; (220 <.flash_to_ram_loop+0x26>)
     20c:	4780      	blx	r0
     20e:	4805      	ldr	r0, [pc, #20]	; (224 <.flash_to_ram_loop+0x2a>)
     210:	4700      	bx	r0
     212:	4dbc0000 	ldcmi	0, cr0, [ip]
     216:	00c80000 	sbceq	r0, r8, r0
     21a:	016c1000 	cmneq	ip, r0
     21e:	01691000 	cmneq	r9, r0
     222:	00cd0000 	sbceq	r0, sp, r0
	...

00000228 <NMI_Handler>:
     228:	e7fe      	b.n	228 <NMI_Handler>

0000022a <HardFault_Handler>:
     22a:	e7fe      	b.n	22a <HardFault_Handler>

0000022c <MemManage_Handler>:
     22c:	e7fe      	b.n	22c <MemManage_Handler>

0000022e <BusFault_Handler>:
     22e:	e7fe      	b.n	22e <BusFault_Handler>

00000230 <UsageFault_Handler>:
     230:	e7fe      	b.n	230 <UsageFault_Handler>

00000232 <SVC_Handler>:
     232:	e7fe      	b.n	232 <SVC_Handler>

00000234 <DebugMon_Handler>:
     234:	e7fe      	b.n	234 <DebugMon_Handler>

00000236 <PendSV_Handler>:
     236:	e7fe      	b.n	236 <PendSV_Handler>

00000238 <SysTick_Handler>:
     238:	e7fe      	b.n	238 <SysTick_Handler>

0000023a <DEF_IRQHandler>:
     23a:	e7fe      	b.n	23a <DEF_IRQHandler>

0000023c <WDT_IRQHandler>:
     23c:	e7fe      	b.n	23c <WDT_IRQHandler>

0000023e <TIMER0_IRQHandler>:
     23e:	e7fe      	b.n	23e <TIMER0_IRQHandler>

00000240 <TIMER1_IRQHandler>:
     240:	e7fe      	b.n	240 <TIMER1_IRQHandler>

00000242 <TIMER2_IRQHandler>:
     242:	e7fe      	b.n	242 <TIMER2_IRQHandler>

00000244 <TIMER3_IRQHandler>:
     244:	e7fe      	b.n	244 <TIMER3_IRQHandler>

00000246 <UART0_IRQHandler>:
     246:	e7fe      	b.n	246 <UART0_IRQHandler>

00000248 <UART1_IRQHandler>:
     248:	e7fe      	b.n	248 <UART1_IRQHandler>

0000024a <UART2_IRQHandler>:
     24a:	e7fe      	b.n	24a <UART2_IRQHandler>

0000024c <UART3_IRQHandler>:
     24c:	e7fe      	b.n	24c <UART3_IRQHandler>

0000024e <PWM1_IRQHandler>:
     24e:	e7fe      	b.n	24e <PWM1_IRQHandler>

00000250 <I2C0_IRQHandler>:
     250:	e7fe      	b.n	250 <I2C0_IRQHandler>

00000252 <I2C1_IRQHandler>:
     252:	e7fe      	b.n	252 <I2C1_IRQHandler>

00000254 <I2C2_IRQHandler>:
     254:	e7fe      	b.n	254 <I2C2_IRQHandler>

00000256 <SPI_IRQHandler>:
     256:	e7fe      	b.n	256 <SPI_IRQHandler>

00000258 <SSP0_IRQHandler>:
     258:	e7fe      	b.n	258 <SSP0_IRQHandler>

0000025a <SSP1_IRQHandler>:
     25a:	e7fe      	b.n	25a <SSP1_IRQHandler>

0000025c <PLL0_IRQHandler>:
     25c:	e7fe      	b.n	25c <PLL0_IRQHandler>

0000025e <RTC_IRQHandler>:
     25e:	e7fe      	b.n	25e <RTC_IRQHandler>

00000260 <EINT0_IRQHandler>:
     260:	e7fe      	b.n	260 <EINT0_IRQHandler>

00000262 <EINT1_IRQHandler>:
     262:	e7fe      	b.n	262 <EINT1_IRQHandler>

00000264 <EINT2_IRQHandler>:
     264:	e7fe      	b.n	264 <EINT2_IRQHandler>

00000266 <EINT3_IRQHandler>:
     266:	e7fe      	b.n	266 <EINT3_IRQHandler>

00000268 <ADC_IRQHandler>:
     268:	e7fe      	b.n	268 <ADC_IRQHandler>

0000026a <BOD_IRQHandler>:
     26a:	e7fe      	b.n	26a <BOD_IRQHandler>

0000026c <USB_IRQHandler>:
     26c:	e7fe      	b.n	26c <USB_IRQHandler>

0000026e <CAN_IRQHandler>:
     26e:	e7fe      	b.n	26e <CAN_IRQHandler>

00000270 <DMA_IRQHandler>:
     270:	e7fe      	b.n	270 <DMA_IRQHandler>

00000272 <I2S_IRQHandler>:
     272:	e7fe      	b.n	272 <I2S_IRQHandler>

00000274 <ENET_IRQHandler>:
     274:	e7fe      	b.n	274 <ENET_IRQHandler>

00000276 <RIT_IRQHandler>:
     276:	e7fe      	b.n	276 <RIT_IRQHandler>

00000278 <MCPWM_IRQHandler>:
     278:	e7fe      	b.n	278 <MCPWM_IRQHandler>

0000027a <QEI_IRQHandler>:
     27a:	e7fe      	b.n	27a <QEI_IRQHandler>

0000027c <PLL1_IRQHandler>:
     27c:	e7fe      	b.n	27c <PLL1_IRQHandler>

0000027e <USBActivity_IRQHandler>:
     27e:	e7fe      	b.n	27e <USBActivity_IRQHandler>

00000280 <CANActivity_IRQHandler>:
     280:	e7fe      	b.n	280 <CANActivity_IRQHandler>
     282:	bf00      	nop

00000284 <exit>:
     284:	b510      	push	{r4, lr}
     286:	4604      	mov	r4, r0
     288:	f000 f816 	bl	2b8 <mbed_interface_connected>
     28c:	b920      	cbnz	r0, 298 <exit+0x14>
     28e:	b904      	cbnz	r4, 292 <exit+0xe>
     290:	e7fe      	b.n	290 <exit+0xc>
     292:	f000 f819 	bl	2c8 <mbed_die>
     296:	e7fb      	b.n	290 <exit+0xc>
     298:	f000 f802 	bl	2a0 <semihost_exit>
     29c:	e7f7      	b.n	28e <exit+0xa>
     29e:	bf00      	nop

000002a0 <semihost_exit>:
     2a0:	b530      	push	{r4, r5, lr}
     2a2:	b085      	sub	sp, #20
     2a4:	466d      	mov	r5, sp
     2a6:	2418      	movs	r4, #24
     2a8:	4620      	mov	r0, r4
     2aa:	4629      	mov	r1, r5
     2ac:	beab      	bkpt	0x00ab
     2ae:	4604      	mov	r4, r0
     2b0:	4620      	mov	r0, r4
     2b2:	b005      	add	sp, #20
     2b4:	bd30      	pop	{r4, r5, pc}
     2b6:	bf00      	nop

000002b8 <mbed_interface_connected>:
     2b8:	f64e 53f0 	movw	r3, #60912	; 0xedf0
     2bc:	f2ce 0300 	movt	r3, #57344	; 0xe000
     2c0:	6818      	ldr	r0, [r3, #0]
     2c2:	f000 0001 	and.w	r0, r0, #1
     2c6:	4770      	bx	lr

000002c8 <mbed_die>:
     2c8:	f24c 0032 	movw	r0, #49202	; 0xc032
     2cc:	b508      	push	{r3, lr}
     2ce:	f2c2 0009 	movt	r0, #8201	; 0x2009
     2d2:	f000 f851 	bl	378 <gpio_output>
     2d6:	f24c 0034 	movw	r0, #49204	; 0xc034
     2da:	f2c2 0009 	movt	r0, #8201	; 0x2009
     2de:	f000 f84b 	bl	378 <gpio_output>
     2e2:	f24c 0035 	movw	r0, #49205	; 0xc035
     2e6:	f2c2 0009 	movt	r0, #8201	; 0x2009
     2ea:	f000 f845 	bl	378 <gpio_output>
     2ee:	f24c 0037 	movw	r0, #49207	; 0xc037
     2f2:	f2c2 0009 	movt	r0, #8201	; 0x2009
     2f6:	f000 f83f 	bl	378 <gpio_output>
     2fa:	f24c 0032 	movw	r0, #49202	; 0xc032
     2fe:	2101      	movs	r1, #1
     300:	f2c2 0009 	movt	r0, #8201	; 0x2009
     304:	f000 f84e 	bl	3a4 <gpio_write>
     308:	f24c 0034 	movw	r0, #49204	; 0xc034
     30c:	2100      	movs	r1, #0
     30e:	f2c2 0009 	movt	r0, #8201	; 0x2009
     312:	f000 f847 	bl	3a4 <gpio_write>
     316:	f24c 0035 	movw	r0, #49205	; 0xc035
     31a:	2100      	movs	r1, #0
     31c:	f2c2 0009 	movt	r0, #8201	; 0x2009
     320:	f000 f840 	bl	3a4 <gpio_write>
     324:	f24c 0037 	movw	r0, #49207	; 0xc037
     328:	2101      	movs	r1, #1
     32a:	f2c2 0009 	movt	r0, #8201	; 0x2009
     32e:	f000 f839 	bl	3a4 <gpio_write>
     332:	2096      	movs	r0, #150	; 0x96
     334:	f000 f84e 	bl	3d4 <wait_ms>
     338:	f24c 0032 	movw	r0, #49202	; 0xc032
     33c:	2100      	movs	r1, #0
     33e:	f2c2 0009 	movt	r0, #8201	; 0x2009
     342:	f000 f82f 	bl	3a4 <gpio_write>
     346:	f24c 0034 	movw	r0, #49204	; 0xc034
     34a:	2101      	movs	r1, #1
     34c:	f2c2 0009 	movt	r0, #8201	; 0x2009
     350:	f000 f828 	bl	3a4 <gpio_write>
     354:	f24c 0035 	movw	r0, #49205	; 0xc035
     358:	2101      	movs	r1, #1
     35a:	f2c2 0009 	movt	r0, #8201	; 0x2009
     35e:	f000 f821 	bl	3a4 <gpio_write>
     362:	f24c 0037 	movw	r0, #49207	; 0xc037
     366:	f2c2 0009 	movt	r0, #8201	; 0x2009
     36a:	2100      	movs	r1, #0
     36c:	f000 f81a 	bl	3a4 <gpio_write>
     370:	2096      	movs	r0, #150	; 0x96
     372:	f000 f82f 	bl	3d4 <wait_ms>
     376:	e7c0      	b.n	2fa <mbed_die+0x32>

00000378 <gpio_output>:
     378:	1c43      	adds	r3, r0, #1
     37a:	b510      	push	{r4, lr}
     37c:	4604      	mov	r4, r0
     37e:	d010      	beq.n	3a2 <gpio_output+0x2a>
     380:	2100      	movs	r1, #0
     382:	f000 f867 	bl	454 <pin_function>
     386:	4620      	mov	r0, r4
     388:	2102      	movs	r1, #2
     38a:	f000 f883 	bl	494 <pin_mode>
     38e:	f004 031f 	and.w	r3, r4, #31
     392:	2201      	movs	r2, #1
     394:	fa12 f303 	lsls.w	r3, r2, r3
     398:	f024 041f 	bic.w	r4, r4, #31
     39c:	6822      	ldr	r2, [r4, #0]
     39e:	4313      	orrs	r3, r2
     3a0:	6023      	str	r3, [r4, #0]
     3a2:	bd10      	pop	{r4, pc}

000003a4 <gpio_write>:
     3a4:	f000 031f 	and.w	r3, r0, #31
     3a8:	2201      	movs	r2, #1
     3aa:	f020 001f 	bic.w	r0, r0, #31
     3ae:	fa12 f303 	lsls.w	r3, r2, r3
     3b2:	b909      	cbnz	r1, 3b8 <gpio_write+0x14>
     3b4:	61c3      	str	r3, [r0, #28]
     3b6:	4770      	bx	lr
     3b8:	6183      	str	r3, [r0, #24]
     3ba:	4770      	bx	lr

000003bc <wait_us>:
     3bc:	b538      	push	{r3, r4, r5, lr}
     3be:	4605      	mov	r5, r0
     3c0:	f000 f822 	bl	408 <us_ticker_read>
     3c4:	4604      	mov	r4, r0
     3c6:	f000 f81f 	bl	408 <us_ticker_read>
     3ca:	1b00      	subs	r0, r0, r4
     3cc:	42a8      	cmp	r0, r5
     3ce:	d3fa      	bcc.n	3c6 <wait_us+0xa>
     3d0:	bd38      	pop	{r3, r4, r5, pc}
     3d2:	bf00      	nop

000003d4 <wait_ms>:
     3d4:	f44f 737a 	mov.w	r3, #1000	; 0x3e8
     3d8:	fb03 f000 	mul.w	r0, r3, r0
     3dc:	f7ff bfee 	b.w	3bc <wait_us>

000003e0 <wait>:
     3e0:	b508      	push	{r3, lr}
     3e2:	f003 ffaf 	bl	4344 <__aeabi_f2d>
     3e6:	a306      	add	r3, pc, #24	; (adr r3, 400 <wait+0x20>)
     3e8:	e9d3 2300 	ldrd	r2, r3, [r3]
     3ec:	f003 fffe 	bl	43ec <__aeabi_dmul>
     3f0:	f004 fa96 	bl	4920 <__aeabi_d2iz>
     3f4:	e8bd 4008 	ldmia.w	sp!, {r3, lr}
     3f8:	f7ff bfe0 	b.w	3bc <wait_us>
     3fc:	f3af 8000 	nop.w
     400:	00000000 	andeq	r0, r0, r0
     404:	412e8480 	smlawbmi	lr, r0, r4, r8

00000408 <us_ticker_read>:
     408:	b510      	push	{r4, lr}
     40a:	4c11      	ldr	r4, [pc, #68]	; (450 <us_ticker_read+0x48>)
     40c:	6823      	ldr	r3, [r4, #0]
     40e:	b9bb      	cbnz	r3, 440 <us_ticker_read+0x38>
     410:	f44f 4080 	mov.w	r0, #16384	; 0x4000
     414:	f2c4 0009 	movt	r0, #16393	; 0x4009
     418:	f000 f872 	bl	500 <timer_init>
     41c:	f44f 4080 	mov.w	r0, #16384	; 0x4000
     420:	f244 2140 	movw	r1, #16960	; 0x4240
     424:	f2c4 0009 	movt	r0, #16393	; 0x4009
     428:	f2c0 010f 	movt	r1, #15
     42c:	f000 f8bc 	bl	5a8 <timer_frequency>
     430:	f44f 4080 	mov.w	r0, #16384	; 0x4000
     434:	f2c4 0009 	movt	r0, #16393	; 0x4009
     438:	f000 f8c2 	bl	5c0 <timer_start>
     43c:	2301      	movs	r3, #1
     43e:	6023      	str	r3, [r4, #0]
     440:	f44f 4080 	mov.w	r0, #16384	; 0x4000
     444:	f2c4 0009 	movt	r0, #16393	; 0x4009
     448:	e8bd 4010 	ldmia.w	sp!, {r4, lr}
     44c:	f000 b8bc 	b.w	5c8 <timer_read>
     450:	10000188 	andne	r0, r0, r8, lsl #3

00000454 <pin_function>:
     454:	1c43      	adds	r3, r0, #1
     456:	b410      	push	{r4}
     458:	d01a      	beq.n	490 <pin_function+0x3c>
     45a:	f44f 4280 	mov.w	r2, #16384	; 0x4000
     45e:	f6cd 72f6 	movt	r2, #57334	; 0xdff6
     462:	1882      	adds	r2, r0, r2
     464:	f002 030f 	and.w	r3, r2, #15
     468:	005b      	lsls	r3, r3, #1
     46a:	2003      	movs	r0, #3
     46c:	4098      	lsls	r0, r3
     46e:	4099      	lsls	r1, r3
     470:	f44f 4340 	mov.w	r3, #49152	; 0xc000
     474:	0912      	lsrs	r2, r2, #4
     476:	f2c4 0302 	movt	r3, #16386	; 0x4002
     47a:	f853 4022 	ldr.w	r4, [r3, r2, lsl #2]
     47e:	ea24 0000 	bic.w	r0, r4, r0
     482:	f843 0022 	str.w	r0, [r3, r2, lsl #2]
     486:	f853 0022 	ldr.w	r0, [r3, r2, lsl #2]
     48a:	4301      	orrs	r1, r0
     48c:	f843 1022 	str.w	r1, [r3, r2, lsl #2]
     490:	bc10      	pop	{r4}
     492:	4770      	bx	lr

00000494 <pin_mode>:
     494:	1c42      	adds	r2, r0, #1
     496:	b470      	push	{r4, r5, r6}
     498:	d02f      	beq.n	4fa <pin_mode+0x66>
     49a:	f44f 4280 	mov.w	r2, #16384	; 0x4000
     49e:	f6cd 72f6 	movt	r2, #57334	; 0xdff6
     4a2:	1882      	adds	r2, r0, r2
     4a4:	f3c1 0480 	ubfx	r4, r1, #2, #1
     4a8:	f002 051f 	and.w	r5, r2, #31
     4ac:	fa14 f505 	lsls.w	r5, r4, r5
     4b0:	0950      	lsrs	r0, r2, #5
     4b2:	f44f 4340 	mov.w	r3, #49152	; 0xc000
     4b6:	f2c4 0302 	movt	r3, #16386	; 0x4002
     4ba:	301a      	adds	r0, #26
     4bc:	f853 6020 	ldr.w	r6, [r3, r0, lsl #2]
     4c0:	ea26 0605 	bic.w	r6, r6, r5
     4c4:	f843 6020 	str.w	r6, [r3, r0, lsl #2]
     4c8:	f853 6020 	ldr.w	r6, [r3, r0, lsl #2]
     4cc:	4335      	orrs	r5, r6
     4ce:	f843 5020 	str.w	r5, [r3, r0, lsl #2]
     4d2:	b994      	cbnz	r4, 4fa <pin_mode+0x66>
     4d4:	f002 000f 	and.w	r0, r2, #15
     4d8:	0040      	lsls	r0, r0, #1
     4da:	2503      	movs	r5, #3
     4dc:	4085      	lsls	r5, r0
     4de:	4081      	lsls	r1, r0
     4e0:	0912      	lsrs	r2, r2, #4
     4e2:	3210      	adds	r2, #16
     4e4:	f853 4022 	ldr.w	r4, [r3, r2, lsl #2]
     4e8:	ea24 0005 	bic.w	r0, r4, r5
     4ec:	f843 0022 	str.w	r0, [r3, r2, lsl #2]
     4f0:	f853 4022 	ldr.w	r4, [r3, r2, lsl #2]
     4f4:	4321      	orrs	r1, r4
     4f6:	f843 1022 	str.w	r1, [r3, r2, lsl #2]
     4fa:	bc70      	pop	{r4, r5, r6}
     4fc:	4770      	bx	lr
     4fe:	bf00      	nop

00000500 <timer_init>:
     500:	f44f 4300 	mov.w	r3, #32768	; 0x8000
     504:	f2c4 0300 	movt	r3, #16384	; 0x4000
     508:	4298      	cmp	r0, r3
     50a:	d03f      	beq.n	58c <timer_init+0x8c>
     50c:	d81d      	bhi.n	54a <timer_init+0x4a>
     50e:	f1b0 2f40 	cmp.w	r0, #1073758208	; 0x40004000
     512:	d109      	bne.n	528 <timer_init+0x28>
     514:	f44f 4340 	mov.w	r3, #49152	; 0xc000
     518:	f2c4 030f 	movt	r3, #16399	; 0x400f
     51c:	f8d3 20c4 	ldr.w	r2, [r3, #196]	; 0xc4
     520:	f042 0202 	orr.w	r2, r2, #2
     524:	f8c3 20c4 	str.w	r2, [r3, #196]	; 0xc4
     528:	4a1e      	ldr	r2, [pc, #120]	; (5a4 <timer_init+0xa4>)
     52a:	f64d 6383 	movw	r3, #56963	; 0xde83
     52e:	6812      	ldr	r2, [r2, #0]
     530:	f2c4 331b 	movt	r3, #17179	; 0x431b
     534:	0892      	lsrs	r2, r2, #2
     536:	fba3 1302 	umull	r1, r3, r3, r2
     53a:	2200      	movs	r2, #0
     53c:	0c9b      	lsrs	r3, r3, #18
     53e:	6702      	str	r2, [r0, #112]	; 0x70
     540:	3b01      	subs	r3, #1
     542:	2202      	movs	r2, #2
     544:	6042      	str	r2, [r0, #4]
     546:	60c3      	str	r3, [r0, #12]
     548:	4770      	bx	lr
     54a:	2300      	movs	r3, #0
     54c:	f2c4 0309 	movt	r3, #16393	; 0x4009
     550:	4298      	cmp	r0, r3
     552:	d010      	beq.n	576 <timer_init+0x76>
     554:	f44f 4380 	mov.w	r3, #16384	; 0x4000
     558:	f2c4 0309 	movt	r3, #16393	; 0x4009
     55c:	4298      	cmp	r0, r3
     55e:	d1e3      	bne.n	528 <timer_init+0x28>
     560:	f44f 4340 	mov.w	r3, #49152	; 0xc000
     564:	f2c4 030f 	movt	r3, #16399	; 0x400f
     568:	f8d3 20c4 	ldr.w	r2, [r3, #196]	; 0xc4
     56c:	f442 0200 	orr.w	r2, r2, #8388608	; 0x800000
     570:	f8c3 20c4 	str.w	r2, [r3, #196]	; 0xc4
     574:	e7d8      	b.n	528 <timer_init+0x28>
     576:	f44f 4340 	mov.w	r3, #49152	; 0xc000
     57a:	f2c4 030f 	movt	r3, #16399	; 0x400f
     57e:	f8d3 20c4 	ldr.w	r2, [r3, #196]	; 0xc4
     582:	f442 0280 	orr.w	r2, r2, #4194304	; 0x400000
     586:	f8c3 20c4 	str.w	r2, [r3, #196]	; 0xc4
     58a:	e7cd      	b.n	528 <timer_init+0x28>
     58c:	f44f 4340 	mov.w	r3, #49152	; 0xc000
     590:	f2c4 030f 	movt	r3, #16399	; 0x400f
     594:	f8d3 20c4 	ldr.w	r2, [r3, #196]	; 0xc4
     598:	f042 0204 	orr.w	r2, r2, #4
     59c:	f8c3 20c4 	str.w	r2, [r3, #196]	; 0xc4
     5a0:	e7c2      	b.n	528 <timer_init+0x28>
     5a2:	bf00      	nop
     5a4:	100000c8 	andne	r0, r0, r8, asr #1

000005a8 <timer_frequency>:
     5a8:	f240 03c8 	movw	r3, #200	; 0xc8
     5ac:	f2c1 0300 	movt	r3, #4096	; 0x1000
     5b0:	681b      	ldr	r3, [r3, #0]
     5b2:	089b      	lsrs	r3, r3, #2
     5b4:	fbb3 f3f1 	udiv	r3, r3, r1
     5b8:	3b01      	subs	r3, #1
     5ba:	60c3      	str	r3, [r0, #12]
     5bc:	4770      	bx	lr
     5be:	bf00      	nop

000005c0 <timer_start>:
     5c0:	2301      	movs	r3, #1
     5c2:	6043      	str	r3, [r0, #4]
     5c4:	4770      	bx	lr
     5c6:	bf00      	nop

000005c8 <timer_read>:
     5c8:	6880      	ldr	r0, [r0, #8]
     5ca:	4770      	bx	lr

000005cc <__libc_init_array>:
     5cc:	b570      	push	{r4, r5, r6, lr}
     5ce:	4b0e      	ldr	r3, [pc, #56]	; (608 <__libc_init_array+0x3c>)
     5d0:	4d0e      	ldr	r5, [pc, #56]	; (60c <__libc_init_array+0x40>)
     5d2:	2400      	movs	r4, #0
     5d4:	1aed      	subs	r5, r5, r3
     5d6:	10ad      	asrs	r5, r5, #2
     5d8:	461e      	mov	r6, r3
     5da:	42ac      	cmp	r4, r5
     5dc:	d004      	beq.n	5e8 <__libc_init_array+0x1c>
     5de:	f856 2024 	ldr.w	r2, [r6, r4, lsl #2]
     5e2:	4790      	blx	r2
     5e4:	3401      	adds	r4, #1
     5e6:	e7f8      	b.n	5da <__libc_init_array+0xe>
     5e8:	f004 fa4c 	bl	4a84 <_init>
     5ec:	4d08      	ldr	r5, [pc, #32]	; (610 <__libc_init_array+0x44>)
     5ee:	4b09      	ldr	r3, [pc, #36]	; (614 <__libc_init_array+0x48>)
     5f0:	2400      	movs	r4, #0
     5f2:	1aed      	subs	r5, r5, r3
     5f4:	10ad      	asrs	r5, r5, #2
     5f6:	461e      	mov	r6, r3
     5f8:	42ac      	cmp	r4, r5
     5fa:	d004      	beq.n	606 <__libc_init_array+0x3a>
     5fc:	f856 2024 	ldr.w	r2, [r6, r4, lsl #2]
     600:	4790      	blx	r2
     602:	3401      	adds	r4, #1
     604:	e7f8      	b.n	5f8 <__libc_init_array+0x2c>
     606:	bd70      	pop	{r4, r5, r6, pc}
     608:	1000016c 	andne	r0, r0, ip, ror #2
     60c:	1000016c 	andne	r0, r0, ip, ror #2
     610:	1000016c 	andne	r0, r0, ip, ror #2
     614:	1000016c 	andne	r0, r0, ip, ror #2

00000618 <malloc>:
     618:	4b02      	ldr	r3, [pc, #8]	; (624 <malloc+0xc>)
     61a:	4601      	mov	r1, r0
     61c:	6818      	ldr	r0, [r3, #0]
     61e:	f000 b859 	b.w	6d4 <_malloc_r>
     622:	bf00      	nop
     624:	1000012c 	andne	r0, r0, ip, lsr #2

00000628 <memcpy>:
     628:	b510      	push	{r4, lr}
     62a:	2300      	movs	r3, #0
     62c:	4293      	cmp	r3, r2
     62e:	d003      	beq.n	638 <memcpy+0x10>
     630:	5ccc      	ldrb	r4, [r1, r3]
     632:	54c4      	strb	r4, [r0, r3]
     634:	3301      	adds	r3, #1
     636:	e7f9      	b.n	62c <memcpy+0x4>
     638:	bd10      	pop	{r4, pc}

0000063a <memset>:
     63a:	4402      	add	r2, r0
     63c:	4603      	mov	r3, r0
     63e:	4293      	cmp	r3, r2
     640:	d002      	beq.n	648 <memset+0xe>
     642:	f803 1b01 	strb.w	r1, [r3], #1
     646:	e7fa      	b.n	63e <memset+0x4>
     648:	4770      	bx	lr
	...

0000064c <_free_r>:
     64c:	b530      	push	{r4, r5, lr}
     64e:	2900      	cmp	r1, #0
     650:	d03c      	beq.n	6cc <_free_r+0x80>
     652:	f851 2c04 	ldr.w	r2, [r1, #-4]
     656:	1f0b      	subs	r3, r1, #4
     658:	491d      	ldr	r1, [pc, #116]	; (6d0 <_free_r+0x84>)
     65a:	2a00      	cmp	r2, #0
     65c:	bfb8      	it	lt
     65e:	189b      	addlt	r3, r3, r2
     660:	680a      	ldr	r2, [r1, #0]
     662:	460c      	mov	r4, r1
     664:	b912      	cbnz	r2, 66c <_free_r+0x20>
     666:	605a      	str	r2, [r3, #4]
     668:	600b      	str	r3, [r1, #0]
     66a:	bd30      	pop	{r4, r5, pc}
     66c:	4293      	cmp	r3, r2
     66e:	d20d      	bcs.n	68c <_free_r+0x40>
     670:	6819      	ldr	r1, [r3, #0]
     672:	1858      	adds	r0, r3, r1
     674:	4290      	cmp	r0, r2
     676:	d103      	bne.n	680 <_free_r+0x34>
     678:	585a      	ldr	r2, [r3, r1]
     67a:	4411      	add	r1, r2
     67c:	6842      	ldr	r2, [r0, #4]
     67e:	6019      	str	r1, [r3, #0]
     680:	605a      	str	r2, [r3, #4]
     682:	6023      	str	r3, [r4, #0]
     684:	bd30      	pop	{r4, r5, pc}
     686:	4299      	cmp	r1, r3
     688:	d803      	bhi.n	692 <_free_r+0x46>
     68a:	460a      	mov	r2, r1
     68c:	6851      	ldr	r1, [r2, #4]
     68e:	2900      	cmp	r1, #0
     690:	d1f9      	bne.n	686 <_free_r+0x3a>
     692:	6814      	ldr	r4, [r2, #0]
     694:	1915      	adds	r5, r2, r4
     696:	429d      	cmp	r5, r3
     698:	d10a      	bne.n	6b0 <_free_r+0x64>
     69a:	681b      	ldr	r3, [r3, #0]
     69c:	4423      	add	r3, r4
     69e:	18d0      	adds	r0, r2, r3
     6a0:	4288      	cmp	r0, r1
     6a2:	6013      	str	r3, [r2, #0]
     6a4:	d112      	bne.n	6cc <_free_r+0x80>
     6a6:	6808      	ldr	r0, [r1, #0]
     6a8:	4403      	add	r3, r0
     6aa:	6013      	str	r3, [r2, #0]
     6ac:	684b      	ldr	r3, [r1, #4]
     6ae:	e00c      	b.n	6ca <_free_r+0x7e>
     6b0:	d902      	bls.n	6b8 <_free_r+0x6c>
     6b2:	230c      	movs	r3, #12
     6b4:	6003      	str	r3, [r0, #0]
     6b6:	bd30      	pop	{r4, r5, pc}
     6b8:	6818      	ldr	r0, [r3, #0]
     6ba:	181c      	adds	r4, r3, r0
     6bc:	428c      	cmp	r4, r1
     6be:	d103      	bne.n	6c8 <_free_r+0x7c>
     6c0:	680c      	ldr	r4, [r1, #0]
     6c2:	6849      	ldr	r1, [r1, #4]
     6c4:	4420      	add	r0, r4
     6c6:	6018      	str	r0, [r3, #0]
     6c8:	6059      	str	r1, [r3, #4]
     6ca:	6053      	str	r3, [r2, #4]
     6cc:	bd30      	pop	{r4, r5, pc}
     6ce:	bf00      	nop
     6d0:	10000190 	mulne	r0, r0, r1

000006d4 <_malloc_r>:
     6d4:	b570      	push	{r4, r5, r6, lr}
     6d6:	1ccd      	adds	r5, r1, #3
     6d8:	f025 0503 	bic.w	r5, r5, #3
     6dc:	3508      	adds	r5, #8
     6de:	2d0c      	cmp	r5, #12
     6e0:	bf38      	it	cc
     6e2:	250c      	movcc	r5, #12
     6e4:	2d00      	cmp	r5, #0
     6e6:	4606      	mov	r6, r0
     6e8:	db3f      	blt.n	76a <_malloc_r+0x96>
     6ea:	428d      	cmp	r5, r1
     6ec:	d33d      	bcc.n	76a <_malloc_r+0x96>
     6ee:	4b21      	ldr	r3, [pc, #132]	; (774 <_malloc_r+0xa0>)
     6f0:	681c      	ldr	r4, [r3, #0]
     6f2:	4618      	mov	r0, r3
     6f4:	4621      	mov	r1, r4
     6f6:	b1a1      	cbz	r1, 722 <_malloc_r+0x4e>
     6f8:	680b      	ldr	r3, [r1, #0]
     6fa:	1b5b      	subs	r3, r3, r5
     6fc:	d40e      	bmi.n	71c <_malloc_r+0x48>
     6fe:	2b0b      	cmp	r3, #11
     700:	d903      	bls.n	70a <_malloc_r+0x36>
     702:	600b      	str	r3, [r1, #0]
     704:	18cc      	adds	r4, r1, r3
     706:	50cd      	str	r5, [r1, r3]
     708:	e01f      	b.n	74a <_malloc_r+0x76>
     70a:	428c      	cmp	r4, r1
     70c:	d102      	bne.n	714 <_malloc_r+0x40>
     70e:	6862      	ldr	r2, [r4, #4]
     710:	6002      	str	r2, [r0, #0]
     712:	e01a      	b.n	74a <_malloc_r+0x76>
     714:	684b      	ldr	r3, [r1, #4]
     716:	6063      	str	r3, [r4, #4]
     718:	460c      	mov	r4, r1
     71a:	e016      	b.n	74a <_malloc_r+0x76>
     71c:	460c      	mov	r4, r1
     71e:	6849      	ldr	r1, [r1, #4]
     720:	e7e9      	b.n	6f6 <_malloc_r+0x22>
     722:	4c15      	ldr	r4, [pc, #84]	; (778 <_malloc_r+0xa4>)
     724:	6823      	ldr	r3, [r4, #0]
     726:	b91b      	cbnz	r3, 730 <_malloc_r+0x5c>
     728:	4630      	mov	r0, r6
     72a:	f000 f827 	bl	77c <_sbrk_r>
     72e:	6020      	str	r0, [r4, #0]
     730:	4629      	mov	r1, r5
     732:	4630      	mov	r0, r6
     734:	f000 f822 	bl	77c <_sbrk_r>
     738:	1c43      	adds	r3, r0, #1
     73a:	4601      	mov	r1, r0
     73c:	d015      	beq.n	76a <_malloc_r+0x96>
     73e:	1cc4      	adds	r4, r0, #3
     740:	f024 0403 	bic.w	r4, r4, #3
     744:	4284      	cmp	r4, r0
     746:	d10a      	bne.n	75e <_malloc_r+0x8a>
     748:	6025      	str	r5, [r4, #0]
     74a:	f104 000b 	add.w	r0, r4, #11
     74e:	1d23      	adds	r3, r4, #4
     750:	f020 0007 	bic.w	r0, r0, #7
     754:	1ac3      	subs	r3, r0, r3
     756:	d00b      	beq.n	770 <_malloc_r+0x9c>
     758:	425a      	negs	r2, r3
     75a:	50e2      	str	r2, [r4, r3]
     75c:	bd70      	pop	{r4, r5, r6, pc}
     75e:	4630      	mov	r0, r6
     760:	1a61      	subs	r1, r4, r1
     762:	f000 f80b 	bl	77c <_sbrk_r>
     766:	3001      	adds	r0, #1
     768:	d1ee      	bne.n	748 <_malloc_r+0x74>
     76a:	230c      	movs	r3, #12
     76c:	6033      	str	r3, [r6, #0]
     76e:	2000      	movs	r0, #0
     770:	bd70      	pop	{r4, r5, r6, pc}
     772:	bf00      	nop
     774:	10000190 	mulne	r0, r0, r1
     778:	1000018c 	andne	r0, r0, ip, lsl #3

0000077c <_sbrk_r>:
     77c:	b538      	push	{r3, r4, r5, lr}
     77e:	4c06      	ldr	r4, [pc, #24]	; (798 <_sbrk_r+0x1c>)
     780:	2300      	movs	r3, #0
     782:	4605      	mov	r5, r0
     784:	4608      	mov	r0, r1
     786:	6023      	str	r3, [r4, #0]
     788:	f004 f962 	bl	4a50 <_sbrk>
     78c:	1c43      	adds	r3, r0, #1
     78e:	d102      	bne.n	796 <_sbrk_r+0x1a>
     790:	6823      	ldr	r3, [r4, #0]
     792:	b103      	cbz	r3, 796 <_sbrk_r+0x1a>
     794:	602b      	str	r3, [r5, #0]
     796:	bd38      	pop	{r3, r4, r5, pc}
     798:	10000198 	mulne	r0, r8, r1

0000079c <siprintf>:
     79c:	b40e      	push	{r1, r2, r3}
     79e:	b500      	push	{lr}
     7a0:	f44f 7102 	mov.w	r1, #520	; 0x208
     7a4:	b09c      	sub	sp, #112	; 0x70
     7a6:	f8ad 1014 	strh.w	r1, [sp, #20]
     7aa:	f06f 4100 	mvn.w	r1, #2147483648	; 0x80000000
     7ae:	9104      	str	r1, [sp, #16]
     7b0:	9107      	str	r1, [sp, #28]
     7b2:	f64f 71ff 	movw	r1, #65535	; 0xffff
     7b6:	ab1d      	add	r3, sp, #116	; 0x74
     7b8:	f8ad 1016 	strh.w	r1, [sp, #22]
     7bc:	4908      	ldr	r1, [pc, #32]	; (7e0 <siprintf+0x44>)
     7be:	f853 2b04 	ldr.w	r2, [r3], #4
     7c2:	9002      	str	r0, [sp, #8]
     7c4:	9006      	str	r0, [sp, #24]
     7c6:	6808      	ldr	r0, [r1, #0]
     7c8:	a902      	add	r1, sp, #8
     7ca:	9301      	str	r3, [sp, #4]
     7cc:	f000 f906 	bl	9dc <_svfiprintf_r>
     7d0:	9b02      	ldr	r3, [sp, #8]
     7d2:	2200      	movs	r2, #0
     7d4:	701a      	strb	r2, [r3, #0]
     7d6:	b01c      	add	sp, #112	; 0x70
     7d8:	f85d eb04 	ldr.w	lr, [sp], #4
     7dc:	b003      	add	sp, #12
     7de:	4770      	bx	lr
     7e0:	1000012c 	andne	r0, r0, ip, lsr #2

000007e4 <strlen>:
     7e4:	4603      	mov	r3, r0
     7e6:	f813 2b01 	ldrb.w	r2, [r3], #1
     7ea:	2a00      	cmp	r2, #0
     7ec:	d1fb      	bne.n	7e6 <strlen+0x2>
     7ee:	1a18      	subs	r0, r3, r0
     7f0:	3801      	subs	r0, #1
     7f2:	4770      	bx	lr

000007f4 <strncmp>:
     7f4:	b570      	push	{r4, r5, r6, lr}
     7f6:	b18a      	cbz	r2, 81c <strncmp+0x28>
     7f8:	460b      	mov	r3, r1
     7fa:	4605      	mov	r5, r0
     7fc:	781c      	ldrb	r4, [r3, #0]
     7fe:	f810 6b01 	ldrb.w	r6, [r0], #1
     802:	3101      	adds	r1, #1
     804:	42b4      	cmp	r4, r6
     806:	d101      	bne.n	80c <strncmp+0x18>
     808:	2a01      	cmp	r2, #1
     80a:	d103      	bne.n	814 <strncmp+0x20>
     80c:	7828      	ldrb	r0, [r5, #0]
     80e:	781b      	ldrb	r3, [r3, #0]
     810:	1ac0      	subs	r0, r0, r3
     812:	bd70      	pop	{r4, r5, r6, pc}
     814:	3a01      	subs	r2, #1
     816:	2c00      	cmp	r4, #0
     818:	d1ee      	bne.n	7f8 <strncmp+0x4>
     81a:	e7f7      	b.n	80c <strncmp+0x18>
     81c:	4610      	mov	r0, r2
     81e:	bd70      	pop	{r4, r5, r6, pc}

00000820 <_strtol_r>:
     820:	4684      	mov	ip, r0
     822:	483f      	ldr	r0, [pc, #252]	; (920 <_strtol_r+0x100>)
     824:	e92d 4ff0 	stmdb	sp!, {r4, r5, r6, r7, r8, r9, sl, fp, lr}
     828:	f8d0 8000 	ldr.w	r8, [r0]
     82c:	460e      	mov	r6, r1
     82e:	4634      	mov	r4, r6
     830:	f814 5b01 	ldrb.w	r5, [r4], #1
     834:	eb08 0005 	add.w	r0, r8, r5
     838:	7840      	ldrb	r0, [r0, #1]
     83a:	f000 0008 	and.w	r0, r0, #8
     83e:	f000 07ff 	and.w	r7, r0, #255	; 0xff
     842:	b108      	cbz	r0, 848 <_strtol_r+0x28>
     844:	4626      	mov	r6, r4
     846:	e7f2      	b.n	82e <_strtol_r+0xe>
     848:	2d2d      	cmp	r5, #45	; 0x2d
     84a:	d103      	bne.n	854 <_strtol_r+0x34>
     84c:	1cb4      	adds	r4, r6, #2
     84e:	7875      	ldrb	r5, [r6, #1]
     850:	2701      	movs	r7, #1
     852:	e003      	b.n	85c <_strtol_r+0x3c>
     854:	2d2b      	cmp	r5, #43	; 0x2b
     856:	bf04      	itt	eq
     858:	7875      	ldrbeq	r5, [r6, #1]
     85a:	1cb4      	addeq	r4, r6, #2
     85c:	f033 0010 	bics.w	r0, r3, #16
     860:	d10d      	bne.n	87e <_strtol_r+0x5e>
     862:	2d30      	cmp	r5, #48	; 0x30
     864:	d108      	bne.n	878 <_strtol_r+0x58>
     866:	7820      	ldrb	r0, [r4, #0]
     868:	f000 00df 	and.w	r0, r0, #223	; 0xdf
     86c:	2858      	cmp	r0, #88	; 0x58
     86e:	d151      	bne.n	914 <_strtol_r+0xf4>
     870:	7865      	ldrb	r5, [r4, #1]
     872:	2310      	movs	r3, #16
     874:	3402      	adds	r4, #2
     876:	e002      	b.n	87e <_strtol_r+0x5e>
     878:	2b00      	cmp	r3, #0
     87a:	bf08      	it	eq
     87c:	230a      	moveq	r3, #10
     87e:	2f00      	cmp	r7, #0
     880:	bf0c      	ite	eq
     882:	f06f 4a00 	mvneq.w	sl, #2147483648	; 0x80000000
     886:	f04f 4a00 	movne.w	sl, #2147483648	; 0x80000000
     88a:	fbba f9f3 	udiv	r9, sl, r3
     88e:	fb03 aa19 	mls	sl, r3, r9, sl
     892:	2600      	movs	r6, #0
     894:	4630      	mov	r0, r6
     896:	eb08 0b05 	add.w	fp, r8, r5
     89a:	f89b b001 	ldrb.w	fp, [fp, #1]
     89e:	f01b 0f04 	tst.w	fp, #4
     8a2:	d001      	beq.n	8a8 <_strtol_r+0x88>
     8a4:	3d30      	subs	r5, #48	; 0x30
     8a6:	e00b      	b.n	8c0 <_strtol_r+0xa0>
     8a8:	f01b 0b03 	ands.w	fp, fp, #3
     8ac:	d01b      	beq.n	8e6 <_strtol_r+0xc6>
     8ae:	f1bb 0f01 	cmp.w	fp, #1
     8b2:	bf14      	ite	ne
     8b4:	f04f 0b57 	movne.w	fp, #87	; 0x57
     8b8:	f04f 0b37 	moveq.w	fp, #55	; 0x37
     8bc:	ebcb 0505 	rsb	r5, fp, r5
     8c0:	429d      	cmp	r5, r3
     8c2:	da10      	bge.n	8e6 <_strtol_r+0xc6>
     8c4:	f1b6 3fff 	cmp.w	r6, #4294967295	; 0xffffffff
     8c8:	d00a      	beq.n	8e0 <_strtol_r+0xc0>
     8ca:	4548      	cmp	r0, r9
     8cc:	d806      	bhi.n	8dc <_strtol_r+0xbc>
     8ce:	d101      	bne.n	8d4 <_strtol_r+0xb4>
     8d0:	4555      	cmp	r5, sl
     8d2:	dc03      	bgt.n	8dc <_strtol_r+0xbc>
     8d4:	fb03 5000 	mla	r0, r3, r0, r5
     8d8:	2601      	movs	r6, #1
     8da:	e001      	b.n	8e0 <_strtol_r+0xc0>
     8dc:	f04f 36ff 	mov.w	r6, #4294967295	; 0xffffffff
     8e0:	f814 5b01 	ldrb.w	r5, [r4], #1
     8e4:	e7d7      	b.n	896 <_strtol_r+0x76>
     8e6:	1c73      	adds	r3, r6, #1
     8e8:	d10c      	bne.n	904 <_strtol_r+0xe4>
     8ea:	2f00      	cmp	r7, #0
     8ec:	f04f 0322 	mov.w	r3, #34	; 0x22
     8f0:	bf0c      	ite	eq
     8f2:	f06f 4000 	mvneq.w	r0, #2147483648	; 0x80000000
     8f6:	f04f 4000 	movne.w	r0, #2147483648	; 0x80000000
     8fa:	f8cc 3000 	str.w	r3, [ip]
     8fe:	b92a      	cbnz	r2, 90c <_strtol_r+0xec>
     900:	e8bd 8ff0 	ldmia.w	sp!, {r4, r5, r6, r7, r8, r9, sl, fp, pc}
     904:	b107      	cbz	r7, 908 <_strtol_r+0xe8>
     906:	4240      	negs	r0, r0
     908:	b142      	cbz	r2, 91c <_strtol_r+0xfc>
     90a:	b106      	cbz	r6, 90e <_strtol_r+0xee>
     90c:	1e61      	subs	r1, r4, #1
     90e:	6011      	str	r1, [r2, #0]
     910:	e8bd 8ff0 	ldmia.w	sp!, {r4, r5, r6, r7, r8, r9, sl, fp, pc}
     914:	2b00      	cmp	r3, #0
     916:	bf08      	it	eq
     918:	2308      	moveq	r3, #8
     91a:	e7b0      	b.n	87e <_strtol_r+0x5e>
     91c:	e8bd 8ff0 	ldmia.w	sp!, {r4, r5, r6, r7, r8, r9, sl, fp, pc}
     920:	10000130 	andne	r0, r0, r0, lsr r1

00000924 <__ssputs_r>:
     924:	e92d 47f0 	stmdb	sp!, {r4, r5, r6, r7, r8, r9, sl, lr}
     928:	688d      	ldr	r5, [r1, #8]
     92a:	4681      	mov	r9, r0
     92c:	42ab      	cmp	r3, r5
     92e:	460c      	mov	r4, r1
     930:	4692      	mov	sl, r2
     932:	461f      	mov	r7, r3
     934:	d343      	bcc.n	9be <__ssputs_r+0x9a>
     936:	898b      	ldrh	r3, [r1, #12]
     938:	f413 6f90 	tst.w	r3, #1152	; 0x480
     93c:	d03d      	beq.n	9ba <__ssputs_r+0x96>
     93e:	6826      	ldr	r6, [r4, #0]
     940:	6909      	ldr	r1, [r1, #16]
     942:	2202      	movs	r2, #2
     944:	ebc1 0806 	rsb	r8, r1, r6
     948:	6966      	ldr	r6, [r4, #20]
     94a:	eb06 0646 	add.w	r6, r6, r6, lsl #1
     94e:	fb96 f6f2 	sdiv	r6, r6, r2
     952:	f108 0201 	add.w	r2, r8, #1
     956:	443a      	add	r2, r7
     958:	4296      	cmp	r6, r2
     95a:	bf38      	it	cc
     95c:	4616      	movcc	r6, r2
     95e:	055b      	lsls	r3, r3, #21
     960:	d50f      	bpl.n	982 <__ssputs_r+0x5e>
     962:	4631      	mov	r1, r6
     964:	f7ff feb6 	bl	6d4 <_malloc_r>
     968:	4605      	mov	r5, r0
     96a:	b198      	cbz	r0, 994 <__ssputs_r+0x70>
     96c:	6921      	ldr	r1, [r4, #16]
     96e:	4642      	mov	r2, r8
     970:	f7ff fe5a 	bl	628 <memcpy>
     974:	89a3      	ldrh	r3, [r4, #12]
     976:	f423 6390 	bic.w	r3, r3, #1152	; 0x480
     97a:	f043 0380 	orr.w	r3, r3, #128	; 0x80
     97e:	81a3      	strh	r3, [r4, #12]
     980:	e013      	b.n	9aa <__ssputs_r+0x86>
     982:	4632      	mov	r2, r6
     984:	f002 f9b5 	bl	2cf2 <_realloc_r>
     988:	4605      	mov	r5, r0
     98a:	b970      	cbnz	r0, 9aa <__ssputs_r+0x86>
     98c:	4648      	mov	r0, r9
     98e:	6921      	ldr	r1, [r4, #16]
     990:	f7ff fe5c 	bl	64c <_free_r>
     994:	230c      	movs	r3, #12
     996:	f8c9 3000 	str.w	r3, [r9]
     99a:	89a3      	ldrh	r3, [r4, #12]
     99c:	f04f 30ff 	mov.w	r0, #4294967295	; 0xffffffff
     9a0:	f043 0340 	orr.w	r3, r3, #64	; 0x40
     9a4:	81a3      	strh	r3, [r4, #12]
     9a6:	e8bd 87f0 	ldmia.w	sp!, {r4, r5, r6, r7, r8, r9, sl, pc}
     9aa:	6125      	str	r5, [r4, #16]
     9ac:	6166      	str	r6, [r4, #20]
     9ae:	4445      	add	r5, r8
     9b0:	ebc8 0606 	rsb	r6, r8, r6
     9b4:	6025      	str	r5, [r4, #0]
     9b6:	60a6      	str	r6, [r4, #8]
     9b8:	463d      	mov	r5, r7
     9ba:	42af      	cmp	r7, r5
     9bc:	d200      	bcs.n	9c0 <__ssputs_r+0x9c>
     9be:	463d      	mov	r5, r7
     9c0:	462a      	mov	r2, r5
     9c2:	6820      	ldr	r0, [r4, #0]
     9c4:	4651      	mov	r1, sl
     9c6:	f001 fd6d 	bl	24a4 <memmove>
     9ca:	68a3      	ldr	r3, [r4, #8]
     9cc:	2000      	movs	r0, #0
     9ce:	1b5b      	subs	r3, r3, r5
     9d0:	60a3      	str	r3, [r4, #8]
     9d2:	6823      	ldr	r3, [r4, #0]
     9d4:	441d      	add	r5, r3
     9d6:	6025      	str	r5, [r4, #0]
     9d8:	e8bd 87f0 	ldmia.w	sp!, {r4, r5, r6, r7, r8, r9, sl, pc}

000009dc <_svfiprintf_r>:
     9dc:	e92d 43f0 	stmdb	sp!, {r4, r5, r6, r7, r8, r9, lr}
     9e0:	b09d      	sub	sp, #116	; 0x74
     9e2:	9303      	str	r3, [sp, #12]
     9e4:	898b      	ldrh	r3, [r1, #12]
     9e6:	4607      	mov	r7, r0
     9e8:	061c      	lsls	r4, r3, #24
     9ea:	460d      	mov	r5, r1
     9ec:	4616      	mov	r6, r2
     9ee:	d50c      	bpl.n	a0a <_svfiprintf_r+0x2e>
     9f0:	690b      	ldr	r3, [r1, #16]
     9f2:	b953      	cbnz	r3, a0a <_svfiprintf_r+0x2e>
     9f4:	2140      	movs	r1, #64	; 0x40
     9f6:	f7ff fe6d 	bl	6d4 <_malloc_r>
     9fa:	6028      	str	r0, [r5, #0]
     9fc:	6128      	str	r0, [r5, #16]
     9fe:	b910      	cbnz	r0, a06 <_svfiprintf_r+0x2a>
     a00:	230c      	movs	r3, #12
     a02:	603b      	str	r3, [r7, #0]
     a04:	e0c7      	b.n	b96 <_svfiprintf_r+0x1ba>
     a06:	2340      	movs	r3, #64	; 0x40
     a08:	616b      	str	r3, [r5, #20]
     a0a:	2300      	movs	r3, #0
     a0c:	9309      	str	r3, [sp, #36]	; 0x24
     a0e:	2320      	movs	r3, #32
     a10:	f88d 3029 	strb.w	r3, [sp, #41]	; 0x29
     a14:	2330      	movs	r3, #48	; 0x30
     a16:	f88d 302a 	strb.w	r3, [sp, #42]	; 0x2a
     a1a:	4633      	mov	r3, r6
     a1c:	461c      	mov	r4, r3
     a1e:	f813 2b01 	ldrb.w	r2, [r3], #1
     a22:	b91a      	cbnz	r2, a2c <_svfiprintf_r+0x50>
     a24:	ebb4 0906 	subs.w	r9, r4, r6
     a28:	d00f      	beq.n	a4a <_svfiprintf_r+0x6e>
     a2a:	e002      	b.n	a32 <_svfiprintf_r+0x56>
     a2c:	2a25      	cmp	r2, #37	; 0x25
     a2e:	d1f5      	bne.n	a1c <_svfiprintf_r+0x40>
     a30:	e7f8      	b.n	a24 <_svfiprintf_r+0x48>
     a32:	4638      	mov	r0, r7
     a34:	4629      	mov	r1, r5
     a36:	4632      	mov	r2, r6
     a38:	464b      	mov	r3, r9
     a3a:	f7ff ff73 	bl	924 <__ssputs_r>
     a3e:	3001      	adds	r0, #1
     a40:	f000 80a4 	beq.w	b8c <_svfiprintf_r+0x1b0>
     a44:	9b09      	ldr	r3, [sp, #36]	; 0x24
     a46:	444b      	add	r3, r9
     a48:	9309      	str	r3, [sp, #36]	; 0x24
     a4a:	7823      	ldrb	r3, [r4, #0]
     a4c:	2b00      	cmp	r3, #0
     a4e:	f000 809d 	beq.w	b8c <_svfiprintf_r+0x1b0>
     a52:	2300      	movs	r3, #0
     a54:	f04f 32ff 	mov.w	r2, #4294967295	; 0xffffffff
     a58:	9304      	str	r3, [sp, #16]
     a5a:	9307      	str	r3, [sp, #28]
     a5c:	9205      	str	r2, [sp, #20]
     a5e:	9306      	str	r3, [sp, #24]
     a60:	f88d 3053 	strb.w	r3, [sp, #83]	; 0x53
     a64:	931a      	str	r3, [sp, #104]	; 0x68
     a66:	f104 0901 	add.w	r9, r4, #1
     a6a:	4e4d      	ldr	r6, [pc, #308]	; (ba0 <_svfiprintf_r+0x1c4>)
     a6c:	464c      	mov	r4, r9
     a6e:	4630      	mov	r0, r6
     a70:	7821      	ldrb	r1, [r4, #0]
     a72:	2205      	movs	r2, #5
     a74:	f001 fd08 	bl	2488 <memchr>
     a78:	f109 0901 	add.w	r9, r9, #1
     a7c:	9b04      	ldr	r3, [sp, #16]
     a7e:	b128      	cbz	r0, a8c <_svfiprintf_r+0xb0>
     a80:	1b86      	subs	r6, r0, r6
     a82:	2001      	movs	r0, #1
     a84:	40b0      	lsls	r0, r6
     a86:	4303      	orrs	r3, r0
     a88:	9304      	str	r3, [sp, #16]
     a8a:	e7ee      	b.n	a6a <_svfiprintf_r+0x8e>
     a8c:	06d9      	lsls	r1, r3, #27
     a8e:	bf44      	itt	mi
     a90:	2220      	movmi	r2, #32
     a92:	f88d 2053 	strbmi.w	r2, [sp, #83]	; 0x53
     a96:	071a      	lsls	r2, r3, #28
     a98:	bf44      	itt	mi
     a9a:	222b      	movmi	r2, #43	; 0x2b
     a9c:	f88d 2053 	strbmi.w	r2, [sp, #83]	; 0x53
     aa0:	7822      	ldrb	r2, [r4, #0]
     aa2:	2a2a      	cmp	r2, #42	; 0x2a
     aa4:	d002      	beq.n	aac <_svfiprintf_r+0xd0>
     aa6:	9b07      	ldr	r3, [sp, #28]
     aa8:	4621      	mov	r1, r4
     aaa:	e00e      	b.n	aca <_svfiprintf_r+0xee>
     aac:	9a03      	ldr	r2, [sp, #12]
     aae:	1d11      	adds	r1, r2, #4
     ab0:	6812      	ldr	r2, [r2, #0]
     ab2:	9103      	str	r1, [sp, #12]
     ab4:	2a00      	cmp	r2, #0
     ab6:	db01      	blt.n	abc <_svfiprintf_r+0xe0>
     ab8:	9207      	str	r2, [sp, #28]
     aba:	e004      	b.n	ac6 <_svfiprintf_r+0xea>
     abc:	4252      	negs	r2, r2
     abe:	f043 0302 	orr.w	r3, r3, #2
     ac2:	9207      	str	r2, [sp, #28]
     ac4:	9304      	str	r3, [sp, #16]
     ac6:	3401      	adds	r4, #1
     ac8:	e00a      	b.n	ae0 <_svfiprintf_r+0x104>
     aca:	460c      	mov	r4, r1
     acc:	7822      	ldrb	r2, [r4, #0]
     ace:	3101      	adds	r1, #1
     ad0:	3a30      	subs	r2, #48	; 0x30
     ad2:	2a09      	cmp	r2, #9
     ad4:	d803      	bhi.n	ade <_svfiprintf_r+0x102>
     ad6:	200a      	movs	r0, #10
     ad8:	fb00 2303 	mla	r3, r0, r3, r2
     adc:	e7f5      	b.n	aca <_svfiprintf_r+0xee>
     ade:	9307      	str	r3, [sp, #28]
     ae0:	7823      	ldrb	r3, [r4, #0]
     ae2:	2b2e      	cmp	r3, #46	; 0x2e
     ae4:	d119      	bne.n	b1a <_svfiprintf_r+0x13e>
     ae6:	7863      	ldrb	r3, [r4, #1]
     ae8:	2b2a      	cmp	r3, #42	; 0x2a
     aea:	d109      	bne.n	b00 <_svfiprintf_r+0x124>
     aec:	9b03      	ldr	r3, [sp, #12]
     aee:	3402      	adds	r4, #2
     af0:	1d1a      	adds	r2, r3, #4
     af2:	681b      	ldr	r3, [r3, #0]
     af4:	9203      	str	r2, [sp, #12]
     af6:	2b00      	cmp	r3, #0
     af8:	bfb8      	it	lt
     afa:	f04f 33ff 	movlt.w	r3, #4294967295	; 0xffffffff
     afe:	e00b      	b.n	b18 <_svfiprintf_r+0x13c>
     b00:	1c61      	adds	r1, r4, #1
     b02:	2300      	movs	r3, #0
     b04:	460c      	mov	r4, r1
     b06:	7822      	ldrb	r2, [r4, #0]
     b08:	3101      	adds	r1, #1
     b0a:	3a30      	subs	r2, #48	; 0x30
     b0c:	2a09      	cmp	r2, #9
     b0e:	d803      	bhi.n	b18 <_svfiprintf_r+0x13c>
     b10:	200a      	movs	r0, #10
     b12:	fb00 2303 	mla	r3, r0, r3, r2
     b16:	e7f5      	b.n	b04 <_svfiprintf_r+0x128>
     b18:	9305      	str	r3, [sp, #20]
     b1a:	4e22      	ldr	r6, [pc, #136]	; (ba4 <_svfiprintf_r+0x1c8>)
     b1c:	7821      	ldrb	r1, [r4, #0]
     b1e:	4630      	mov	r0, r6
     b20:	2203      	movs	r2, #3
     b22:	f001 fcb1 	bl	2488 <memchr>
     b26:	b130      	cbz	r0, b36 <_svfiprintf_r+0x15a>
     b28:	1b86      	subs	r6, r0, r6
     b2a:	2040      	movs	r0, #64	; 0x40
     b2c:	40b0      	lsls	r0, r6
     b2e:	9b04      	ldr	r3, [sp, #16]
     b30:	3401      	adds	r4, #1
     b32:	4303      	orrs	r3, r0
     b34:	9304      	str	r3, [sp, #16]
     b36:	7821      	ldrb	r1, [r4, #0]
     b38:	481b      	ldr	r0, [pc, #108]	; (ba8 <_svfiprintf_r+0x1cc>)
     b3a:	2206      	movs	r2, #6
     b3c:	1c66      	adds	r6, r4, #1
     b3e:	f88d 1028 	strb.w	r1, [sp, #40]	; 0x28
     b42:	f001 fca1 	bl	2488 <memchr>
     b46:	b188      	cbz	r0, b6c <_svfiprintf_r+0x190>
     b48:	4b18      	ldr	r3, [pc, #96]	; (bac <_svfiprintf_r+0x1d0>)
     b4a:	b933      	cbnz	r3, b5a <_svfiprintf_r+0x17e>
     b4c:	9b03      	ldr	r3, [sp, #12]
     b4e:	3307      	adds	r3, #7
     b50:	f023 0307 	bic.w	r3, r3, #7
     b54:	3308      	adds	r3, #8
     b56:	9303      	str	r3, [sp, #12]
     b58:	e014      	b.n	b84 <_svfiprintf_r+0x1a8>
     b5a:	ab03      	add	r3, sp, #12
     b5c:	9300      	str	r3, [sp, #0]
     b5e:	4638      	mov	r0, r7
     b60:	a904      	add	r1, sp, #16
     b62:	462a      	mov	r2, r5
     b64:	4b12      	ldr	r3, [pc, #72]	; (bb0 <_svfiprintf_r+0x1d4>)
     b66:	f000 f8b9 	bl	cdc <_printf_float>
     b6a:	e007      	b.n	b7c <_svfiprintf_r+0x1a0>
     b6c:	ab03      	add	r3, sp, #12
     b6e:	9300      	str	r3, [sp, #0]
     b70:	4638      	mov	r0, r7
     b72:	a904      	add	r1, sp, #16
     b74:	462a      	mov	r2, r5
     b76:	4b0e      	ldr	r3, [pc, #56]	; (bb0 <_svfiprintf_r+0x1d4>)
     b78:	f000 fb30 	bl	11dc <_printf_i>
     b7c:	f1b0 3fff 	cmp.w	r0, #4294967295	; 0xffffffff
     b80:	4680      	mov	r8, r0
     b82:	d003      	beq.n	b8c <_svfiprintf_r+0x1b0>
     b84:	9b09      	ldr	r3, [sp, #36]	; 0x24
     b86:	4443      	add	r3, r8
     b88:	9309      	str	r3, [sp, #36]	; 0x24
     b8a:	e746      	b.n	a1a <_svfiprintf_r+0x3e>
     b8c:	89ab      	ldrh	r3, [r5, #12]
     b8e:	065b      	lsls	r3, r3, #25
     b90:	d401      	bmi.n	b96 <_svfiprintf_r+0x1ba>
     b92:	9809      	ldr	r0, [sp, #36]	; 0x24
     b94:	e001      	b.n	b9a <_svfiprintf_r+0x1be>
     b96:	f04f 30ff 	mov.w	r0, #4294967295	; 0xffffffff
     b9a:	b01d      	add	sp, #116	; 0x74
     b9c:	e8bd 83f0 	ldmia.w	sp!, {r4, r5, r6, r7, r8, r9, pc}
     ba0:	00004a9e 	muleq	r0, lr, sl
     ba4:	00004aa4 	andeq	r4, r0, r4, lsr #21
     ba8:	00004aa8 	andeq	r4, r0, r8, lsr #21
     bac:	00000cdd 	ldrdeq	r0, [r0], -sp
     bb0:	00000925 	andeq	r0, r0, r5, lsr #18

00000bb4 <__cvt>:
     bb4:	e92d 47f0 	stmdb	sp!, {r4, r5, r6, r7, r8, r9, sl, lr}
     bb8:	2b00      	cmp	r3, #0
     bba:	b088      	sub	sp, #32
     bbc:	4614      	mov	r4, r2
     bbe:	461d      	mov	r5, r3
     bc0:	9e10      	ldr	r6, [sp, #64]	; 0x40
     bc2:	9912      	ldr	r1, [sp, #72]	; 0x48
     bc4:	9f13      	ldr	r7, [sp, #76]	; 0x4c
     bc6:	da05      	bge.n	bd4 <__cvt+0x20>
     bc8:	f105 4300 	add.w	r3, r5, #2147483648	; 0x80000000
     bcc:	461d      	mov	r5, r3
     bce:	4614      	mov	r4, r2
     bd0:	232d      	movs	r3, #45	; 0x2d
     bd2:	e000      	b.n	bd6 <__cvt+0x22>
     bd4:	2300      	movs	r3, #0
     bd6:	700b      	strb	r3, [r1, #0]
     bd8:	9b14      	ldr	r3, [sp, #80]	; 0x50
     bda:	f023 0a20 	bic.w	sl, r3, #32
     bde:	f1ba 0f46 	cmp.w	sl, #70	; 0x46
     be2:	d004      	beq.n	bee <__cvt+0x3a>
     be4:	f1ba 0f45 	cmp.w	sl, #69	; 0x45
     be8:	d103      	bne.n	bf2 <__cvt+0x3e>
     bea:	3601      	adds	r6, #1
     bec:	e001      	b.n	bf2 <__cvt+0x3e>
     bee:	2303      	movs	r3, #3
     bf0:	e000      	b.n	bf4 <__cvt+0x40>
     bf2:	2302      	movs	r3, #2
     bf4:	e88d 00c8 	stmia.w	sp, {r3, r6, r7}
     bf8:	ab06      	add	r3, sp, #24
     bfa:	9303      	str	r3, [sp, #12]
     bfc:	ab07      	add	r3, sp, #28
     bfe:	9304      	str	r3, [sp, #16]
     c00:	4622      	mov	r2, r4
     c02:	462b      	mov	r3, r5
     c04:	f000 fe7c 	bl	1900 <_dtoa_r>
     c08:	f1ba 0f47 	cmp.w	sl, #71	; 0x47
     c0c:	4680      	mov	r8, r0
     c0e:	d102      	bne.n	c16 <__cvt+0x62>
     c10:	9b11      	ldr	r3, [sp, #68]	; 0x44
     c12:	07db      	lsls	r3, r3, #31
     c14:	d525      	bpl.n	c62 <__cvt+0xae>
     c16:	f1ba 0f46 	cmp.w	sl, #70	; 0x46
     c1a:	eb08 0906 	add.w	r9, r8, r6
     c1e:	d10f      	bne.n	c40 <__cvt+0x8c>
     c20:	f898 3000 	ldrb.w	r3, [r8]
     c24:	2b30      	cmp	r3, #48	; 0x30
     c26:	d109      	bne.n	c3c <__cvt+0x88>
     c28:	4620      	mov	r0, r4
     c2a:	4629      	mov	r1, r5
     c2c:	2200      	movs	r2, #0
     c2e:	2300      	movs	r3, #0
     c30:	f003 fe44 	bl	48bc <__aeabi_dcmpeq>
     c34:	b910      	cbnz	r0, c3c <__cvt+0x88>
     c36:	f1c6 0601 	rsb	r6, r6, #1
     c3a:	603e      	str	r6, [r7, #0]
     c3c:	683b      	ldr	r3, [r7, #0]
     c3e:	4499      	add	r9, r3
     c40:	4620      	mov	r0, r4
     c42:	4629      	mov	r1, r5
     c44:	2200      	movs	r2, #0
     c46:	2300      	movs	r3, #0
     c48:	f003 fe38 	bl	48bc <__aeabi_dcmpeq>
     c4c:	b108      	cbz	r0, c52 <__cvt+0x9e>
     c4e:	f8cd 901c 	str.w	r9, [sp, #28]
     c52:	9b07      	ldr	r3, [sp, #28]
     c54:	454b      	cmp	r3, r9
     c56:	d204      	bcs.n	c62 <__cvt+0xae>
     c58:	1c5a      	adds	r2, r3, #1
     c5a:	9207      	str	r2, [sp, #28]
     c5c:	2230      	movs	r2, #48	; 0x30
     c5e:	701a      	strb	r2, [r3, #0]
     c60:	e7f7      	b.n	c52 <__cvt+0x9e>
     c62:	9b07      	ldr	r3, [sp, #28]
     c64:	4640      	mov	r0, r8
     c66:	ebc8 0203 	rsb	r2, r8, r3
     c6a:	9b15      	ldr	r3, [sp, #84]	; 0x54
     c6c:	601a      	str	r2, [r3, #0]
     c6e:	b008      	add	sp, #32
     c70:	e8bd 87f0 	ldmia.w	sp!, {r4, r5, r6, r7, r8, r9, sl, pc}

00000c74 <__exponent>:
     c74:	b573      	push	{r0, r1, r4, r5, r6, lr}
     c76:	4603      	mov	r3, r0
     c78:	2900      	cmp	r1, #0
     c7a:	f803 2b02 	strb.w	r2, [r3], #2
     c7e:	da03      	bge.n	c88 <__exponent+0x14>
     c80:	4249      	negs	r1, r1
     c82:	461a      	mov	r2, r3
     c84:	242d      	movs	r4, #45	; 0x2d
     c86:	e001      	b.n	c8c <__exponent+0x18>
     c88:	461a      	mov	r2, r3
     c8a:	242b      	movs	r4, #43	; 0x2b
     c8c:	2909      	cmp	r1, #9
     c8e:	7044      	strb	r4, [r0, #1]
     c90:	dd1b      	ble.n	cca <__exponent+0x56>
     c92:	f10d 0406 	add.w	r4, sp, #6
     c96:	260a      	movs	r6, #10
     c98:	fb91 f5f6 	sdiv	r5, r1, r6
     c9c:	fb06 1115 	mls	r1, r6, r5, r1
     ca0:	2d09      	cmp	r5, #9
     ca2:	f101 0130 	add.w	r1, r1, #48	; 0x30
     ca6:	4623      	mov	r3, r4
     ca8:	f804 1901 	strb.w	r1, [r4], #-1
     cac:	4629      	mov	r1, r5
     cae:	dcf2      	bgt.n	c96 <__exponent+0x22>
     cb0:	f105 0130 	add.w	r1, r5, #48	; 0x30
     cb4:	f803 1d01 	strb.w	r1, [r3, #-1]!
     cb8:	f10d 0107 	add.w	r1, sp, #7
     cbc:	428b      	cmp	r3, r1
     cbe:	d20a      	bcs.n	cd6 <__exponent+0x62>
     cc0:	f813 1b01 	ldrb.w	r1, [r3], #1
     cc4:	f802 1b01 	strb.w	r1, [r2], #1
     cc8:	e7f6      	b.n	cb8 <__exponent+0x44>
     cca:	2430      	movs	r4, #48	; 0x30
     ccc:	461a      	mov	r2, r3
     cce:	4421      	add	r1, r4
     cd0:	f802 4b02 	strb.w	r4, [r2], #2
     cd4:	7059      	strb	r1, [r3, #1]
     cd6:	1a10      	subs	r0, r2, r0
     cd8:	b002      	add	sp, #8
     cda:	bd70      	pop	{r4, r5, r6, pc}

00000cdc <_printf_float>:
     cdc:	e92d 4ff0 	stmdb	sp!, {r4, r5, r6, r7, r8, r9, sl, fp, lr}
     ce0:	b08f      	sub	sp, #60	; 0x3c
     ce2:	460c      	mov	r4, r1
     ce4:	4616      	mov	r6, r2
     ce6:	461f      	mov	r7, r3
     ce8:	f8dd 9060 	ldr.w	r9, [sp, #96]	; 0x60
     cec:	4605      	mov	r5, r0
     cee:	f001 fbc7 	bl	2480 <_localeconv_r>
     cf2:	f8d0 a000 	ldr.w	sl, [r0]
     cf6:	4650      	mov	r0, sl
     cf8:	f7ff fd74 	bl	7e4 <strlen>
     cfc:	2300      	movs	r3, #0
     cfe:	930c      	str	r3, [sp, #48]	; 0x30
     d00:	f8d9 3000 	ldr.w	r3, [r9]
     d04:	9009      	str	r0, [sp, #36]	; 0x24
     d06:	3307      	adds	r3, #7
     d08:	f023 0307 	bic.w	r3, r3, #7
     d0c:	f103 0208 	add.w	r2, r3, #8
     d10:	e9d3 0100 	ldrd	r0, r1, [r3]
     d14:	f894 8018 	ldrb.w	r8, [r4, #24]
     d18:	f8c9 2000 	str.w	r2, [r9]
     d1c:	e9c4 0112 	strd	r0, r1, [r4, #72]	; 0x48
     d20:	f002 f80e 	bl	2d40 <__fpclassifyd>
     d24:	2801      	cmp	r0, #1
     d26:	e9d4 0112 	ldrd	r0, r1, [r4, #72]	; 0x48
     d2a:	d117      	bne.n	d5c <_printf_float+0x80>
     d2c:	2200      	movs	r2, #0
     d2e:	2300      	movs	r3, #0
     d30:	f003 fdce 	bl	48d0 <__aeabi_dcmplt>
     d34:	b110      	cbz	r0, d3c <_printf_float+0x60>
     d36:	232d      	movs	r3, #45	; 0x2d
     d38:	f884 3043 	strb.w	r3, [r4, #67]	; 0x43
     d3c:	4b90      	ldr	r3, [pc, #576]	; (f80 <_printf_float+0x2a4>)
     d3e:	4a91      	ldr	r2, [pc, #580]	; (f84 <_printf_float+0x2a8>)
     d40:	f1b8 0f47 	cmp.w	r8, #71	; 0x47
     d44:	bf8c      	ite	hi
     d46:	4691      	movhi	r9, r2
     d48:	4699      	movls	r9, r3
     d4a:	2303      	movs	r3, #3
     d4c:	6123      	str	r3, [r4, #16]
     d4e:	6823      	ldr	r3, [r4, #0]
     d50:	f023 0304 	bic.w	r3, r3, #4
     d54:	6023      	str	r3, [r4, #0]
     d56:	f04f 0b00 	mov.w	fp, #0
     d5a:	e086      	b.n	e6a <_printf_float+0x18e>
     d5c:	f001 fff0 	bl	2d40 <__fpclassifyd>
     d60:	6823      	ldr	r3, [r4, #0]
     d62:	b948      	cbnz	r0, d78 <_printf_float+0x9c>
     d64:	4a88      	ldr	r2, [pc, #544]	; (f88 <_printf_float+0x2ac>)
     d66:	4989      	ldr	r1, [pc, #548]	; (f8c <_printf_float+0x2b0>)
     d68:	f1b8 0f47 	cmp.w	r8, #71	; 0x47
     d6c:	bf8c      	ite	hi
     d6e:	4689      	movhi	r9, r1
     d70:	4691      	movls	r9, r2
     d72:	2203      	movs	r2, #3
     d74:	6122      	str	r2, [r4, #16]
     d76:	e7eb      	b.n	d50 <_printf_float+0x74>
     d78:	6862      	ldr	r2, [r4, #4]
     d7a:	f028 0b20 	bic.w	fp, r8, #32
     d7e:	1c51      	adds	r1, r2, #1
     d80:	d101      	bne.n	d86 <_printf_float+0xaa>
     d82:	2206      	movs	r2, #6
     d84:	e004      	b.n	d90 <_printf_float+0xb4>
     d86:	f1bb 0f47 	cmp.w	fp, #71	; 0x47
     d8a:	d102      	bne.n	d92 <_printf_float+0xb6>
     d8c:	b90a      	cbnz	r2, d92 <_printf_float+0xb6>
     d8e:	2201      	movs	r2, #1
     d90:	6062      	str	r2, [r4, #4]
     d92:	6860      	ldr	r0, [r4, #4]
     d94:	f443 6180 	orr.w	r1, r3, #1024	; 0x400
     d98:	e88d 0003 	stmia.w	sp, {r0, r1}
     d9c:	e9d4 2312 	ldrd	r2, r3, [r4, #72]	; 0x48
     da0:	f10d 002b 	add.w	r0, sp, #43	; 0x2b
     da4:	9002      	str	r0, [sp, #8]
     da6:	a80b      	add	r0, sp, #44	; 0x2c
     da8:	9003      	str	r0, [sp, #12]
     daa:	a80c      	add	r0, sp, #48	; 0x30
     dac:	9005      	str	r0, [sp, #20]
     dae:	2000      	movs	r0, #0
     db0:	6021      	str	r1, [r4, #0]
     db2:	9006      	str	r0, [sp, #24]
     db4:	f8cd 8010 	str.w	r8, [sp, #16]
     db8:	4628      	mov	r0, r5
     dba:	f7ff fefb 	bl	bb4 <__cvt>
     dbe:	f1bb 0f47 	cmp.w	fp, #71	; 0x47
     dc2:	4681      	mov	r9, r0
     dc4:	990b      	ldr	r1, [sp, #44]	; 0x2c
     dc6:	d109      	bne.n	ddc <_printf_float+0x100>
     dc8:	1cc8      	adds	r0, r1, #3
     dca:	db02      	blt.n	dd2 <_printf_float+0xf6>
     dcc:	6863      	ldr	r3, [r4, #4]
     dce:	4299      	cmp	r1, r3
     dd0:	dd30      	ble.n	e34 <_printf_float+0x158>
     dd2:	f1a8 0802 	sub.w	r8, r8, #2
     dd6:	fa5f f888 	uxtb.w	r8, r8
     dda:	e002      	b.n	de2 <_printf_float+0x106>
     ddc:	f1b8 0f65 	cmp.w	r8, #101	; 0x65
     de0:	d812      	bhi.n	e08 <_printf_float+0x12c>
     de2:	3901      	subs	r1, #1
     de4:	4642      	mov	r2, r8
     de6:	f104 0050 	add.w	r0, r4, #80	; 0x50
     dea:	910b      	str	r1, [sp, #44]	; 0x2c
     dec:	f7ff ff42 	bl	c74 <__exponent>
     df0:	9a0c      	ldr	r2, [sp, #48]	; 0x30
     df2:	4683      	mov	fp, r0
     df4:	1883      	adds	r3, r0, r2
     df6:	2a01      	cmp	r2, #1
     df8:	6123      	str	r3, [r4, #16]
     dfa:	dc02      	bgt.n	e02 <_printf_float+0x126>
     dfc:	6822      	ldr	r2, [r4, #0]
     dfe:	07d2      	lsls	r2, r2, #31
     e00:	d52d      	bpl.n	e5e <_printf_float+0x182>
     e02:	3301      	adds	r3, #1
     e04:	6123      	str	r3, [r4, #16]
     e06:	e02a      	b.n	e5e <_printf_float+0x182>
     e08:	f1b8 0f66 	cmp.w	r8, #102	; 0x66
     e0c:	d114      	bne.n	e38 <_printf_float+0x15c>
     e0e:	2900      	cmp	r1, #0
     e10:	6863      	ldr	r3, [r4, #4]
     e12:	dd07      	ble.n	e24 <_printf_float+0x148>
     e14:	6121      	str	r1, [r4, #16]
     e16:	b913      	cbnz	r3, e1e <_printf_float+0x142>
     e18:	6822      	ldr	r2, [r4, #0]
     e1a:	07d0      	lsls	r0, r2, #31
     e1c:	d51c      	bpl.n	e58 <_printf_float+0x17c>
     e1e:	3301      	adds	r3, #1
     e20:	440b      	add	r3, r1
     e22:	e018      	b.n	e56 <_printf_float+0x17a>
     e24:	b913      	cbnz	r3, e2c <_printf_float+0x150>
     e26:	6822      	ldr	r2, [r4, #0]
     e28:	07d2      	lsls	r2, r2, #31
     e2a:	d501      	bpl.n	e30 <_printf_float+0x154>
     e2c:	3302      	adds	r3, #2
     e2e:	e012      	b.n	e56 <_printf_float+0x17a>
     e30:	2301      	movs	r3, #1
     e32:	e010      	b.n	e56 <_printf_float+0x17a>
     e34:	f04f 0867 	mov.w	r8, #103	; 0x67
     e38:	9a0c      	ldr	r2, [sp, #48]	; 0x30
     e3a:	4291      	cmp	r1, r2
     e3c:	db05      	blt.n	e4a <_printf_float+0x16e>
     e3e:	6823      	ldr	r3, [r4, #0]
     e40:	6121      	str	r1, [r4, #16]
     e42:	07d8      	lsls	r0, r3, #31
     e44:	d508      	bpl.n	e58 <_printf_float+0x17c>
     e46:	1c4b      	adds	r3, r1, #1
     e48:	e005      	b.n	e56 <_printf_float+0x17a>
     e4a:	2900      	cmp	r1, #0
     e4c:	bfd4      	ite	le
     e4e:	f1c1 0302 	rsble	r3, r1, #2
     e52:	2301      	movgt	r3, #1
     e54:	4413      	add	r3, r2
     e56:	6123      	str	r3, [r4, #16]
     e58:	65a1      	str	r1, [r4, #88]	; 0x58
     e5a:	f04f 0b00 	mov.w	fp, #0
     e5e:	f89d 302b 	ldrb.w	r3, [sp, #43]	; 0x2b
     e62:	b113      	cbz	r3, e6a <_printf_float+0x18e>
     e64:	232d      	movs	r3, #45	; 0x2d
     e66:	f884 3043 	strb.w	r3, [r4, #67]	; 0x43
     e6a:	9700      	str	r7, [sp, #0]
     e6c:	4628      	mov	r0, r5
     e6e:	4621      	mov	r1, r4
     e70:	aa0d      	add	r2, sp, #52	; 0x34
     e72:	4633      	mov	r3, r6
     e74:	f000 f940 	bl	10f8 <_printf_common>
     e78:	3001      	adds	r0, #1
     e7a:	d102      	bne.n	e82 <_printf_float+0x1a6>
     e7c:	f04f 30ff 	mov.w	r0, #4294967295	; 0xffffffff
     e80:	e136      	b.n	10f0 <_printf_float+0x414>
     e82:	6823      	ldr	r3, [r4, #0]
     e84:	055a      	lsls	r2, r3, #21
     e86:	d404      	bmi.n	e92 <_printf_float+0x1b6>
     e88:	4628      	mov	r0, r5
     e8a:	4631      	mov	r1, r6
     e8c:	464a      	mov	r2, r9
     e8e:	6923      	ldr	r3, [r4, #16]
     e90:	e108      	b.n	10a4 <_printf_float+0x3c8>
     e92:	f1b8 0f65 	cmp.w	r8, #101	; 0x65
     e96:	f240 80cb 	bls.w	1030 <_printf_float+0x354>
     e9a:	e9d4 0112 	ldrd	r0, r1, [r4, #72]	; 0x48
     e9e:	2200      	movs	r2, #0
     ea0:	2300      	movs	r3, #0
     ea2:	f003 fd0b 	bl	48bc <__aeabi_dcmpeq>
     ea6:	2800      	cmp	r0, #0
     ea8:	d02a      	beq.n	f00 <_printf_float+0x224>
     eaa:	4628      	mov	r0, r5
     eac:	4631      	mov	r1, r6
     eae:	4a38      	ldr	r2, [pc, #224]	; (f90 <_printf_float+0x2b4>)
     eb0:	2301      	movs	r3, #1
     eb2:	47b8      	blx	r7
     eb4:	3001      	adds	r0, #1
     eb6:	d0e1      	beq.n	e7c <_printf_float+0x1a0>
     eb8:	9b0c      	ldr	r3, [sp, #48]	; 0x30
     eba:	9a0b      	ldr	r2, [sp, #44]	; 0x2c
     ebc:	429a      	cmp	r2, r3
     ebe:	db07      	blt.n	ed0 <_printf_float+0x1f4>
     ec0:	6823      	ldr	r3, [r4, #0]
     ec2:	07d8      	lsls	r0, r3, #31
     ec4:	d404      	bmi.n	ed0 <_printf_float+0x1f4>
     ec6:	6823      	ldr	r3, [r4, #0]
     ec8:	079b      	lsls	r3, r3, #30
     eca:	f100 80f8 	bmi.w	10be <_printf_float+0x3e2>
     ece:	e0fd      	b.n	10cc <_printf_float+0x3f0>
     ed0:	4628      	mov	r0, r5
     ed2:	4631      	mov	r1, r6
     ed4:	4652      	mov	r2, sl
     ed6:	9b09      	ldr	r3, [sp, #36]	; 0x24
     ed8:	47b8      	blx	r7
     eda:	3001      	adds	r0, #1
     edc:	d0ce      	beq.n	e7c <_printf_float+0x1a0>
     ede:	f04f 0800 	mov.w	r8, #0
     ee2:	9b0c      	ldr	r3, [sp, #48]	; 0x30
     ee4:	3b01      	subs	r3, #1
     ee6:	4598      	cmp	r8, r3
     ee8:	daed      	bge.n	ec6 <_printf_float+0x1ea>
     eea:	4628      	mov	r0, r5
     eec:	4631      	mov	r1, r6
     eee:	f104 021a 	add.w	r2, r4, #26
     ef2:	2301      	movs	r3, #1
     ef4:	47b8      	blx	r7
     ef6:	3001      	adds	r0, #1
     ef8:	d0c0      	beq.n	e7c <_printf_float+0x1a0>
     efa:	f108 0801 	add.w	r8, r8, #1
     efe:	e7f0      	b.n	ee2 <_printf_float+0x206>
     f00:	9b0b      	ldr	r3, [sp, #44]	; 0x2c
     f02:	2b00      	cmp	r3, #0
     f04:	dc28      	bgt.n	f58 <_printf_float+0x27c>
     f06:	4628      	mov	r0, r5
     f08:	4631      	mov	r1, r6
     f0a:	4a21      	ldr	r2, [pc, #132]	; (f90 <_printf_float+0x2b4>)
     f0c:	2301      	movs	r3, #1
     f0e:	47b8      	blx	r7
     f10:	3001      	adds	r0, #1
     f12:	d0b3      	beq.n	e7c <_printf_float+0x1a0>
     f14:	9b0b      	ldr	r3, [sp, #44]	; 0x2c
     f16:	b923      	cbnz	r3, f22 <_printf_float+0x246>
     f18:	9b0c      	ldr	r3, [sp, #48]	; 0x30
     f1a:	b913      	cbnz	r3, f22 <_printf_float+0x246>
     f1c:	6823      	ldr	r3, [r4, #0]
     f1e:	07d9      	lsls	r1, r3, #31
     f20:	d5d1      	bpl.n	ec6 <_printf_float+0x1ea>
     f22:	4628      	mov	r0, r5
     f24:	4631      	mov	r1, r6
     f26:	4652      	mov	r2, sl
     f28:	9b09      	ldr	r3, [sp, #36]	; 0x24
     f2a:	47b8      	blx	r7
     f2c:	3001      	adds	r0, #1
     f2e:	d0a5      	beq.n	e7c <_printf_float+0x1a0>
     f30:	f04f 0800 	mov.w	r8, #0
     f34:	9b0b      	ldr	r3, [sp, #44]	; 0x2c
     f36:	4628      	mov	r0, r5
     f38:	425b      	negs	r3, r3
     f3a:	4598      	cmp	r8, r3
     f3c:	4631      	mov	r1, r6
     f3e:	da08      	bge.n	f52 <_printf_float+0x276>
     f40:	f104 021a 	add.w	r2, r4, #26
     f44:	2301      	movs	r3, #1
     f46:	47b8      	blx	r7
     f48:	3001      	adds	r0, #1
     f4a:	d097      	beq.n	e7c <_printf_float+0x1a0>
     f4c:	f108 0801 	add.w	r8, r8, #1
     f50:	e7f0      	b.n	f34 <_printf_float+0x258>
     f52:	464a      	mov	r2, r9
     f54:	9b0c      	ldr	r3, [sp, #48]	; 0x30
     f56:	e0a5      	b.n	10a4 <_printf_float+0x3c8>
     f58:	6da3      	ldr	r3, [r4, #88]	; 0x58
     f5a:	9a0c      	ldr	r2, [sp, #48]	; 0x30
     f5c:	429a      	cmp	r2, r3
     f5e:	bfb4      	ite	lt
     f60:	4693      	movlt	fp, r2
     f62:	469b      	movge	fp, r3
     f64:	f1bb 0f00 	cmp.w	fp, #0
     f68:	dc02      	bgt.n	f70 <_printf_float+0x294>
     f6a:	f04f 0800 	mov.w	r8, #0
     f6e:	e01c      	b.n	faa <_printf_float+0x2ce>
     f70:	4628      	mov	r0, r5
     f72:	4631      	mov	r1, r6
     f74:	464a      	mov	r2, r9
     f76:	465b      	mov	r3, fp
     f78:	47b8      	blx	r7
     f7a:	3001      	adds	r0, #1
     f7c:	d1f5      	bne.n	f6a <_printf_float+0x28e>
     f7e:	e77d      	b.n	e7c <_printf_float+0x1a0>
     f80:	00004aaf 	andeq	r4, r0, pc, lsr #21
     f84:	00004ab3 			; <UNDEFINED> instruction: 0x00004ab3
     f88:	00004ab7 			; <UNDEFINED> instruction: 0x00004ab7
     f8c:	00004abb 			; <UNDEFINED> instruction: 0x00004abb
     f90:	00004abf 			; <UNDEFINED> instruction: 0x00004abf
     f94:	4628      	mov	r0, r5
     f96:	4631      	mov	r1, r6
     f98:	f104 021a 	add.w	r2, r4, #26
     f9c:	2301      	movs	r3, #1
     f9e:	47b8      	blx	r7
     fa0:	3001      	adds	r0, #1
     fa2:	f43f af6b 	beq.w	e7c <_printf_float+0x1a0>
     fa6:	f108 0801 	add.w	r8, r8, #1
     faa:	6da3      	ldr	r3, [r4, #88]	; 0x58
     fac:	ea2b 72eb 	bic.w	r2, fp, fp, asr #31
     fb0:	1a9a      	subs	r2, r3, r2
     fb2:	4590      	cmp	r8, r2
     fb4:	dbee      	blt.n	f94 <_printf_float+0x2b8>
     fb6:	eb09 0803 	add.w	r8, r9, r3
     fba:	9a0b      	ldr	r2, [sp, #44]	; 0x2c
     fbc:	9b0c      	ldr	r3, [sp, #48]	; 0x30
     fbe:	429a      	cmp	r2, r3
     fc0:	db0f      	blt.n	fe2 <_printf_float+0x306>
     fc2:	6823      	ldr	r3, [r4, #0]
     fc4:	07da      	lsls	r2, r3, #31
     fc6:	d40c      	bmi.n	fe2 <_printf_float+0x306>
     fc8:	9b0c      	ldr	r3, [sp, #48]	; 0x30
     fca:	9a0b      	ldr	r2, [sp, #44]	; 0x2c
     fcc:	4499      	add	r9, r3
     fce:	ebc8 0909 	rsb	r9, r8, r9
     fd2:	1a9b      	subs	r3, r3, r2
     fd4:	4599      	cmp	r9, r3
     fd6:	bfa8      	it	ge
     fd8:	4699      	movge	r9, r3
     fda:	f1b9 0f00 	cmp.w	r9, #0
     fde:	dc08      	bgt.n	ff2 <_printf_float+0x316>
     fe0:	e00f      	b.n	1002 <_printf_float+0x326>
     fe2:	4628      	mov	r0, r5
     fe4:	4631      	mov	r1, r6
     fe6:	4652      	mov	r2, sl
     fe8:	9b09      	ldr	r3, [sp, #36]	; 0x24
     fea:	47b8      	blx	r7
     fec:	3001      	adds	r0, #1
     fee:	d1eb      	bne.n	fc8 <_printf_float+0x2ec>
     ff0:	e744      	b.n	e7c <_printf_float+0x1a0>
     ff2:	4628      	mov	r0, r5
     ff4:	4631      	mov	r1, r6
     ff6:	4642      	mov	r2, r8
     ff8:	464b      	mov	r3, r9
     ffa:	47b8      	blx	r7
     ffc:	3001      	adds	r0, #1
     ffe:	f43f af3d 	beq.w	e7c <_printf_float+0x1a0>
    1002:	f04f 0800 	mov.w	r8, #0
    1006:	e00a      	b.n	101e <_printf_float+0x342>
    1008:	4628      	mov	r0, r5
    100a:	4631      	mov	r1, r6
    100c:	f104 021a 	add.w	r2, r4, #26
    1010:	2301      	movs	r3, #1
    1012:	47b8      	blx	r7
    1014:	3001      	adds	r0, #1
    1016:	f43f af31 	beq.w	e7c <_printf_float+0x1a0>
    101a:	f108 0801 	add.w	r8, r8, #1
    101e:	9b0b      	ldr	r3, [sp, #44]	; 0x2c
    1020:	9a0c      	ldr	r2, [sp, #48]	; 0x30
    1022:	ea29 71e9 	bic.w	r1, r9, r9, asr #31
    1026:	1ad3      	subs	r3, r2, r3
    1028:	1a5b      	subs	r3, r3, r1
    102a:	4598      	cmp	r8, r3
    102c:	dbec      	blt.n	1008 <_printf_float+0x32c>
    102e:	e74a      	b.n	ec6 <_printf_float+0x1ea>
    1030:	9a0c      	ldr	r2, [sp, #48]	; 0x30
    1032:	2a01      	cmp	r2, #1
    1034:	dc01      	bgt.n	103a <_printf_float+0x35e>
    1036:	07db      	lsls	r3, r3, #31
    1038:	d539      	bpl.n	10ae <_printf_float+0x3d2>
    103a:	4628      	mov	r0, r5
    103c:	4631      	mov	r1, r6
    103e:	464a      	mov	r2, r9
    1040:	2301      	movs	r3, #1
    1042:	47b8      	blx	r7
    1044:	3001      	adds	r0, #1
    1046:	f43f af19 	beq.w	e7c <_printf_float+0x1a0>
    104a:	4628      	mov	r0, r5
    104c:	4631      	mov	r1, r6
    104e:	4652      	mov	r2, sl
    1050:	9b09      	ldr	r3, [sp, #36]	; 0x24
    1052:	47b8      	blx	r7
    1054:	3001      	adds	r0, #1
    1056:	f43f af11 	beq.w	e7c <_printf_float+0x1a0>
    105a:	e9d4 0112 	ldrd	r0, r1, [r4, #72]	; 0x48
    105e:	2200      	movs	r2, #0
    1060:	2300      	movs	r3, #0
    1062:	f003 fc2b 	bl	48bc <__aeabi_dcmpeq>
    1066:	b110      	cbz	r0, 106e <_printf_float+0x392>
    1068:	f04f 0800 	mov.w	r8, #0
    106c:	e011      	b.n	1092 <_printf_float+0x3b6>
    106e:	9b0c      	ldr	r3, [sp, #48]	; 0x30
    1070:	4628      	mov	r0, r5
    1072:	4631      	mov	r1, r6
    1074:	f109 0201 	add.w	r2, r9, #1
    1078:	3b01      	subs	r3, #1
    107a:	e01c      	b.n	10b6 <_printf_float+0x3da>
    107c:	4628      	mov	r0, r5
    107e:	4631      	mov	r1, r6
    1080:	f104 021a 	add.w	r2, r4, #26
    1084:	2301      	movs	r3, #1
    1086:	47b8      	blx	r7
    1088:	3001      	adds	r0, #1
    108a:	f43f aef7 	beq.w	e7c <_printf_float+0x1a0>
    108e:	f108 0801 	add.w	r8, r8, #1
    1092:	9b0c      	ldr	r3, [sp, #48]	; 0x30
    1094:	3b01      	subs	r3, #1
    1096:	4598      	cmp	r8, r3
    1098:	dbf0      	blt.n	107c <_printf_float+0x3a0>
    109a:	4628      	mov	r0, r5
    109c:	4631      	mov	r1, r6
    109e:	f104 0250 	add.w	r2, r4, #80	; 0x50
    10a2:	465b      	mov	r3, fp
    10a4:	47b8      	blx	r7
    10a6:	3001      	adds	r0, #1
    10a8:	f47f af0d 	bne.w	ec6 <_printf_float+0x1ea>
    10ac:	e6e6      	b.n	e7c <_printf_float+0x1a0>
    10ae:	4628      	mov	r0, r5
    10b0:	4631      	mov	r1, r6
    10b2:	464a      	mov	r2, r9
    10b4:	2301      	movs	r3, #1
    10b6:	47b8      	blx	r7
    10b8:	3001      	adds	r0, #1
    10ba:	d1ee      	bne.n	109a <_printf_float+0x3be>
    10bc:	e6de      	b.n	e7c <_printf_float+0x1a0>
    10be:	f04f 0800 	mov.w	r8, #0
    10c2:	68e2      	ldr	r2, [r4, #12]
    10c4:	9b0d      	ldr	r3, [sp, #52]	; 0x34
    10c6:	1ad3      	subs	r3, r2, r3
    10c8:	4598      	cmp	r8, r3
    10ca:	db05      	blt.n	10d8 <_printf_float+0x3fc>
    10cc:	68e0      	ldr	r0, [r4, #12]
    10ce:	9b0d      	ldr	r3, [sp, #52]	; 0x34
    10d0:	4298      	cmp	r0, r3
    10d2:	bfb8      	it	lt
    10d4:	4618      	movlt	r0, r3
    10d6:	e00b      	b.n	10f0 <_printf_float+0x414>
    10d8:	4628      	mov	r0, r5
    10da:	4631      	mov	r1, r6
    10dc:	f104 0219 	add.w	r2, r4, #25
    10e0:	2301      	movs	r3, #1
    10e2:	47b8      	blx	r7
    10e4:	3001      	adds	r0, #1
    10e6:	f43f aec9 	beq.w	e7c <_printf_float+0x1a0>
    10ea:	f108 0801 	add.w	r8, r8, #1
    10ee:	e7e8      	b.n	10c2 <_printf_float+0x3e6>
    10f0:	b00f      	add	sp, #60	; 0x3c
    10f2:	e8bd 8ff0 	ldmia.w	sp!, {r4, r5, r6, r7, r8, r9, sl, fp, pc}
    10f6:	bf00      	nop

000010f8 <_printf_common>:
    10f8:	e92d 43f8 	stmdb	sp!, {r3, r4, r5, r6, r7, r8, r9, lr}
    10fc:	4615      	mov	r5, r2
    10fe:	461f      	mov	r7, r3
    1100:	688a      	ldr	r2, [r1, #8]
    1102:	690b      	ldr	r3, [r1, #16]
    1104:	4606      	mov	r6, r0
    1106:	429a      	cmp	r2, r3
    1108:	bfa8      	it	ge
    110a:	4613      	movge	r3, r2
    110c:	602b      	str	r3, [r5, #0]
    110e:	f891 2043 	ldrb.w	r2, [r1, #67]	; 0x43
    1112:	460c      	mov	r4, r1
    1114:	f8dd 8020 	ldr.w	r8, [sp, #32]
    1118:	b10a      	cbz	r2, 111e <_printf_common+0x26>
    111a:	3301      	adds	r3, #1
    111c:	602b      	str	r3, [r5, #0]
    111e:	6823      	ldr	r3, [r4, #0]
    1120:	0699      	lsls	r1, r3, #26
    1122:	d502      	bpl.n	112a <_printf_common+0x32>
    1124:	682b      	ldr	r3, [r5, #0]
    1126:	3302      	adds	r3, #2
    1128:	602b      	str	r3, [r5, #0]
    112a:	6823      	ldr	r3, [r4, #0]
    112c:	f013 0906 	ands.w	r9, r3, #6
    1130:	d01d      	beq.n	116e <_printf_common+0x76>
    1132:	f894 3043 	ldrb.w	r3, [r4, #67]	; 0x43
    1136:	6822      	ldr	r2, [r4, #0]
    1138:	3300      	adds	r3, #0
    113a:	bf18      	it	ne
    113c:	2301      	movne	r3, #1
    113e:	0692      	lsls	r2, r2, #26
    1140:	d51f      	bpl.n	1182 <_printf_common+0x8a>
    1142:	18e1      	adds	r1, r4, r3
    1144:	2030      	movs	r0, #48	; 0x30
    1146:	f881 0043 	strb.w	r0, [r1, #67]	; 0x43
    114a:	1c5a      	adds	r2, r3, #1
    114c:	f894 1045 	ldrb.w	r1, [r4, #69]	; 0x45
    1150:	4422      	add	r2, r4
    1152:	3302      	adds	r3, #2
    1154:	f882 1043 	strb.w	r1, [r2, #67]	; 0x43
    1158:	e013      	b.n	1182 <_printf_common+0x8a>
    115a:	4630      	mov	r0, r6
    115c:	4639      	mov	r1, r7
    115e:	f104 0219 	add.w	r2, r4, #25
    1162:	2301      	movs	r3, #1
    1164:	47c0      	blx	r8
    1166:	3001      	adds	r0, #1
    1168:	d007      	beq.n	117a <_printf_common+0x82>
    116a:	f109 0901 	add.w	r9, r9, #1
    116e:	68e2      	ldr	r2, [r4, #12]
    1170:	682b      	ldr	r3, [r5, #0]
    1172:	1ad3      	subs	r3, r2, r3
    1174:	4599      	cmp	r9, r3
    1176:	dbf0      	blt.n	115a <_printf_common+0x62>
    1178:	e7db      	b.n	1132 <_printf_common+0x3a>
    117a:	f04f 30ff 	mov.w	r0, #4294967295	; 0xffffffff
    117e:	e8bd 83f8 	ldmia.w	sp!, {r3, r4, r5, r6, r7, r8, r9, pc}
    1182:	4630      	mov	r0, r6
    1184:	4639      	mov	r1, r7
    1186:	f104 0243 	add.w	r2, r4, #67	; 0x43
    118a:	47c0      	blx	r8
    118c:	3001      	adds	r0, #1
    118e:	d0f4      	beq.n	117a <_printf_common+0x82>
    1190:	6823      	ldr	r3, [r4, #0]
    1192:	682a      	ldr	r2, [r5, #0]
    1194:	f003 0306 	and.w	r3, r3, #6
    1198:	68e1      	ldr	r1, [r4, #12]
    119a:	2b04      	cmp	r3, #4
    119c:	bf08      	it	eq
    119e:	ebc2 0501 	rsbeq	r5, r2, r1
    11a2:	6923      	ldr	r3, [r4, #16]
    11a4:	68a2      	ldr	r2, [r4, #8]
    11a6:	bf0c      	ite	eq
    11a8:	ea25 75e5 	biceq.w	r5, r5, r5, asr #31
    11ac:	2500      	movne	r5, #0
    11ae:	429a      	cmp	r2, r3
    11b0:	bfc4      	itt	gt
    11b2:	ebc3 0302 	rsbgt	r3, r3, r2
    11b6:	18ed      	addgt	r5, r5, r3
    11b8:	f04f 0900 	mov.w	r9, #0
    11bc:	45a9      	cmp	r9, r5
    11be:	da0a      	bge.n	11d6 <_printf_common+0xde>
    11c0:	4630      	mov	r0, r6
    11c2:	4639      	mov	r1, r7
    11c4:	f104 021a 	add.w	r2, r4, #26
    11c8:	2301      	movs	r3, #1
    11ca:	47c0      	blx	r8
    11cc:	3001      	adds	r0, #1
    11ce:	d0d4      	beq.n	117a <_printf_common+0x82>
    11d0:	f109 0901 	add.w	r9, r9, #1
    11d4:	e7f2      	b.n	11bc <_printf_common+0xc4>
    11d6:	2000      	movs	r0, #0
    11d8:	e8bd 83f8 	ldmia.w	sp!, {r3, r4, r5, r6, r7, r8, r9, pc}

000011dc <_printf_i>:
    11dc:	e92d 47ff 	stmdb	sp!, {r0, r1, r2, r3, r4, r5, r6, r7, r8, r9, sl, lr}
    11e0:	7e0e      	ldrb	r6, [r1, #24]
    11e2:	4680      	mov	r8, r0
    11e4:	2e6e      	cmp	r6, #110	; 0x6e
    11e6:	460c      	mov	r4, r1
    11e8:	4691      	mov	r9, r2
    11ea:	469a      	mov	sl, r3
    11ec:	9d0c      	ldr	r5, [sp, #48]	; 0x30
    11ee:	f101 0043 	add.w	r0, r1, #67	; 0x43
    11f2:	f000 80a5 	beq.w	1340 <_printf_i+0x164>
    11f6:	d811      	bhi.n	121c <_printf_i+0x40>
    11f8:	2e63      	cmp	r6, #99	; 0x63
    11fa:	d022      	beq.n	1242 <_printf_i+0x66>
    11fc:	d809      	bhi.n	1212 <_printf_i+0x36>
    11fe:	2e00      	cmp	r6, #0
    1200:	f000 80af 	beq.w	1362 <_printf_i+0x186>
    1204:	2e58      	cmp	r6, #88	; 0x58
    1206:	f040 80bf 	bne.w	1388 <_printf_i+0x1ac>
    120a:	f881 6045 	strb.w	r6, [r1, #69]	; 0x45
    120e:	4a7b      	ldr	r2, [pc, #492]	; (13fc <_printf_i+0x220>)
    1210:	e04f      	b.n	12b2 <_printf_i+0xd6>
    1212:	2e64      	cmp	r6, #100	; 0x64
    1214:	d01e      	beq.n	1254 <_printf_i+0x78>
    1216:	2e69      	cmp	r6, #105	; 0x69
    1218:	d01c      	beq.n	1254 <_printf_i+0x78>
    121a:	e0b5      	b.n	1388 <_printf_i+0x1ac>
    121c:	2e73      	cmp	r6, #115	; 0x73
    121e:	f000 80a4 	beq.w	136a <_printf_i+0x18e>
    1222:	d809      	bhi.n	1238 <_printf_i+0x5c>
    1224:	2e6f      	cmp	r6, #111	; 0x6f
    1226:	d02b      	beq.n	1280 <_printf_i+0xa4>
    1228:	2e70      	cmp	r6, #112	; 0x70
    122a:	f040 80ad 	bne.w	1388 <_printf_i+0x1ac>
    122e:	680b      	ldr	r3, [r1, #0]
    1230:	f043 0320 	orr.w	r3, r3, #32
    1234:	600b      	str	r3, [r1, #0]
    1236:	e038      	b.n	12aa <_printf_i+0xce>
    1238:	2e75      	cmp	r6, #117	; 0x75
    123a:	d021      	beq.n	1280 <_printf_i+0xa4>
    123c:	2e78      	cmp	r6, #120	; 0x78
    123e:	d034      	beq.n	12aa <_printf_i+0xce>
    1240:	e0a2      	b.n	1388 <_printf_i+0x1ac>
    1242:	682b      	ldr	r3, [r5, #0]
    1244:	f101 0742 	add.w	r7, r1, #66	; 0x42
    1248:	1d1a      	adds	r2, r3, #4
    124a:	681b      	ldr	r3, [r3, #0]
    124c:	602a      	str	r2, [r5, #0]
    124e:	f881 3042 	strb.w	r3, [r1, #66]	; 0x42
    1252:	e09d      	b.n	1390 <_printf_i+0x1b4>
    1254:	6822      	ldr	r2, [r4, #0]
    1256:	682b      	ldr	r3, [r5, #0]
    1258:	f012 0f80 	tst.w	r2, #128	; 0x80
    125c:	d003      	beq.n	1266 <_printf_i+0x8a>
    125e:	1d1a      	adds	r2, r3, #4
    1260:	602a      	str	r2, [r5, #0]
    1262:	681d      	ldr	r5, [r3, #0]
    1264:	e005      	b.n	1272 <_printf_i+0x96>
    1266:	0651      	lsls	r1, r2, #25
    1268:	d5f9      	bpl.n	125e <_printf_i+0x82>
    126a:	1d1a      	adds	r2, r3, #4
    126c:	602a      	str	r2, [r5, #0]
    126e:	f9b3 5000 	ldrsh.w	r5, [r3]
    1272:	2d00      	cmp	r5, #0
    1274:	da39      	bge.n	12ea <_printf_i+0x10e>
    1276:	232d      	movs	r3, #45	; 0x2d
    1278:	426d      	negs	r5, r5
    127a:	f884 3043 	strb.w	r3, [r4, #67]	; 0x43
    127e:	e034      	b.n	12ea <_printf_i+0x10e>
    1280:	6822      	ldr	r2, [r4, #0]
    1282:	682b      	ldr	r3, [r5, #0]
    1284:	f012 0f80 	tst.w	r2, #128	; 0x80
    1288:	d003      	beq.n	1292 <_printf_i+0xb6>
    128a:	1d1a      	adds	r2, r3, #4
    128c:	602a      	str	r2, [r5, #0]
    128e:	681d      	ldr	r5, [r3, #0]
    1290:	e004      	b.n	129c <_printf_i+0xc0>
    1292:	0652      	lsls	r2, r2, #25
    1294:	d5f9      	bpl.n	128a <_printf_i+0xae>
    1296:	1d1a      	adds	r2, r3, #4
    1298:	602a      	str	r2, [r5, #0]
    129a:	881d      	ldrh	r5, [r3, #0]
    129c:	7e23      	ldrb	r3, [r4, #24]
    129e:	4a57      	ldr	r2, [pc, #348]	; (13fc <_printf_i+0x220>)
    12a0:	2b6f      	cmp	r3, #111	; 0x6f
    12a2:	bf14      	ite	ne
    12a4:	230a      	movne	r3, #10
    12a6:	2308      	moveq	r3, #8
    12a8:	e01b      	b.n	12e2 <_printf_i+0x106>
    12aa:	2378      	movs	r3, #120	; 0x78
    12ac:	4a54      	ldr	r2, [pc, #336]	; (1400 <_printf_i+0x224>)
    12ae:	f884 3045 	strb.w	r3, [r4, #69]	; 0x45
    12b2:	6823      	ldr	r3, [r4, #0]
    12b4:	6829      	ldr	r1, [r5, #0]
    12b6:	f013 0f80 	tst.w	r3, #128	; 0x80
    12ba:	f101 0604 	add.w	r6, r1, #4
    12be:	602e      	str	r6, [r5, #0]
    12c0:	d001      	beq.n	12c6 <_printf_i+0xea>
    12c2:	680d      	ldr	r5, [r1, #0]
    12c4:	e002      	b.n	12cc <_printf_i+0xf0>
    12c6:	065f      	lsls	r7, r3, #25
    12c8:	d5fb      	bpl.n	12c2 <_printf_i+0xe6>
    12ca:	880d      	ldrh	r5, [r1, #0]
    12cc:	07de      	lsls	r6, r3, #31
    12ce:	bf44      	itt	mi
    12d0:	f043 0320 	orrmi.w	r3, r3, #32
    12d4:	6023      	strmi	r3, [r4, #0]
    12d6:	b91d      	cbnz	r5, 12e0 <_printf_i+0x104>
    12d8:	6823      	ldr	r3, [r4, #0]
    12da:	f023 0320 	bic.w	r3, r3, #32
    12de:	6023      	str	r3, [r4, #0]
    12e0:	2310      	movs	r3, #16
    12e2:	2100      	movs	r1, #0
    12e4:	f884 1043 	strb.w	r1, [r4, #67]	; 0x43
    12e8:	e001      	b.n	12ee <_printf_i+0x112>
    12ea:	4a44      	ldr	r2, [pc, #272]	; (13fc <_printf_i+0x220>)
    12ec:	230a      	movs	r3, #10
    12ee:	6866      	ldr	r6, [r4, #4]
    12f0:	2e00      	cmp	r6, #0
    12f2:	60a6      	str	r6, [r4, #8]
    12f4:	db03      	blt.n	12fe <_printf_i+0x122>
    12f6:	6821      	ldr	r1, [r4, #0]
    12f8:	f021 0104 	bic.w	r1, r1, #4
    12fc:	6021      	str	r1, [r4, #0]
    12fe:	b905      	cbnz	r5, 1302 <_printf_i+0x126>
    1300:	b16e      	cbz	r6, 131e <_printf_i+0x142>
    1302:	f104 0142 	add.w	r1, r4, #66	; 0x42
    1306:	fbb5 f6f3 	udiv	r6, r5, r3
    130a:	fb03 5516 	mls	r5, r3, r6, r5
    130e:	5d55      	ldrb	r5, [r2, r5]
    1310:	460f      	mov	r7, r1
    1312:	f801 5901 	strb.w	r5, [r1], #-1
    1316:	4635      	mov	r5, r6
    1318:	2e00      	cmp	r6, #0
    131a:	d1f4      	bne.n	1306 <_printf_i+0x12a>
    131c:	e000      	b.n	1320 <_printf_i+0x144>
    131e:	4607      	mov	r7, r0
    1320:	2b08      	cmp	r3, #8
    1322:	d10a      	bne.n	133a <_printf_i+0x15e>
    1324:	6823      	ldr	r3, [r4, #0]
    1326:	07dd      	lsls	r5, r3, #31
    1328:	d507      	bpl.n	133a <_printf_i+0x15e>
    132a:	6862      	ldr	r2, [r4, #4]
    132c:	6923      	ldr	r3, [r4, #16]
    132e:	429a      	cmp	r2, r3
    1330:	dc03      	bgt.n	133a <_printf_i+0x15e>
    1332:	2330      	movs	r3, #48	; 0x30
    1334:	f807 3c01 	strb.w	r3, [r7, #-1]
    1338:	3f01      	subs	r7, #1
    133a:	1bc0      	subs	r0, r0, r7
    133c:	6120      	str	r0, [r4, #16]
    133e:	e02c      	b.n	139a <_printf_i+0x1be>
    1340:	6809      	ldr	r1, [r1, #0]
    1342:	682b      	ldr	r3, [r5, #0]
    1344:	f011 0f80 	tst.w	r1, #128	; 0x80
    1348:	6962      	ldr	r2, [r4, #20]
    134a:	d004      	beq.n	1356 <_printf_i+0x17a>
    134c:	1d19      	adds	r1, r3, #4
    134e:	6029      	str	r1, [r5, #0]
    1350:	681b      	ldr	r3, [r3, #0]
    1352:	601a      	str	r2, [r3, #0]
    1354:	e005      	b.n	1362 <_printf_i+0x186>
    1356:	0649      	lsls	r1, r1, #25
    1358:	d5f8      	bpl.n	134c <_printf_i+0x170>
    135a:	1d19      	adds	r1, r3, #4
    135c:	6029      	str	r1, [r5, #0]
    135e:	681b      	ldr	r3, [r3, #0]
    1360:	801a      	strh	r2, [r3, #0]
    1362:	2300      	movs	r3, #0
    1364:	6123      	str	r3, [r4, #16]
    1366:	4607      	mov	r7, r0
    1368:	e017      	b.n	139a <_printf_i+0x1be>
    136a:	682b      	ldr	r3, [r5, #0]
    136c:	1d1a      	adds	r2, r3, #4
    136e:	602a      	str	r2, [r5, #0]
    1370:	681f      	ldr	r7, [r3, #0]
    1372:	4638      	mov	r0, r7
    1374:	f7ff fa36 	bl	7e4 <strlen>
    1378:	6863      	ldr	r3, [r4, #4]
    137a:	6120      	str	r0, [r4, #16]
    137c:	4298      	cmp	r0, r3
    137e:	bf88      	it	hi
    1380:	6123      	strhi	r3, [r4, #16]
    1382:	6923      	ldr	r3, [r4, #16]
    1384:	6063      	str	r3, [r4, #4]
    1386:	e005      	b.n	1394 <_printf_i+0x1b8>
    1388:	f104 0742 	add.w	r7, r4, #66	; 0x42
    138c:	f884 6042 	strb.w	r6, [r4, #66]	; 0x42
    1390:	2301      	movs	r3, #1
    1392:	6123      	str	r3, [r4, #16]
    1394:	2300      	movs	r3, #0
    1396:	f884 3043 	strb.w	r3, [r4, #67]	; 0x43
    139a:	f8cd a000 	str.w	sl, [sp]
    139e:	4640      	mov	r0, r8
    13a0:	4621      	mov	r1, r4
    13a2:	aa03      	add	r2, sp, #12
    13a4:	464b      	mov	r3, r9
    13a6:	f7ff fea7 	bl	10f8 <_printf_common>
    13aa:	3001      	adds	r0, #1
    13ac:	d102      	bne.n	13b4 <_printf_i+0x1d8>
    13ae:	f04f 30ff 	mov.w	r0, #4294967295	; 0xffffffff
    13b2:	e01f      	b.n	13f4 <_printf_i+0x218>
    13b4:	4640      	mov	r0, r8
    13b6:	4649      	mov	r1, r9
    13b8:	463a      	mov	r2, r7
    13ba:	6923      	ldr	r3, [r4, #16]
    13bc:	47d0      	blx	sl
    13be:	3001      	adds	r0, #1
    13c0:	d0f5      	beq.n	13ae <_printf_i+0x1d2>
    13c2:	6823      	ldr	r3, [r4, #0]
    13c4:	079b      	lsls	r3, r3, #30
    13c6:	d405      	bmi.n	13d4 <_printf_i+0x1f8>
    13c8:	68e0      	ldr	r0, [r4, #12]
    13ca:	9b03      	ldr	r3, [sp, #12]
    13cc:	4298      	cmp	r0, r3
    13ce:	bfb8      	it	lt
    13d0:	4618      	movlt	r0, r3
    13d2:	e00f      	b.n	13f4 <_printf_i+0x218>
    13d4:	2500      	movs	r5, #0
    13d6:	68e2      	ldr	r2, [r4, #12]
    13d8:	9b03      	ldr	r3, [sp, #12]
    13da:	1ad3      	subs	r3, r2, r3
    13dc:	429d      	cmp	r5, r3
    13de:	daf3      	bge.n	13c8 <_printf_i+0x1ec>
    13e0:	4640      	mov	r0, r8
    13e2:	4649      	mov	r1, r9
    13e4:	f104 0219 	add.w	r2, r4, #25
    13e8:	2301      	movs	r3, #1
    13ea:	47d0      	blx	sl
    13ec:	3001      	adds	r0, #1
    13ee:	d0de      	beq.n	13ae <_printf_i+0x1d2>
    13f0:	3501      	adds	r5, #1
    13f2:	e7f0      	b.n	13d6 <_printf_i+0x1fa>
    13f4:	b004      	add	sp, #16
    13f6:	e8bd 87f0 	ldmia.w	sp!, {r4, r5, r6, r7, r8, r9, sl, pc}
    13fa:	bf00      	nop
    13fc:	00004ac1 	andeq	r4, r0, r1, asr #21
    1400:	00004ad2 	ldrdeq	r4, [r0], -r2

00001404 <_scanf_float>:
    1404:	e92d 4ff0 	stmdb	sp!, {r4, r5, r6, r7, r8, r9, sl, fp, lr}
    1408:	4616      	mov	r6, r2
    140a:	688a      	ldr	r2, [r1, #8]
    140c:	b087      	sub	sp, #28
    140e:	9302      	str	r3, [sp, #8]
    1410:	1e53      	subs	r3, r2, #1
    1412:	f5b3 7fae 	cmp.w	r3, #348	; 0x15c
    1416:	4607      	mov	r7, r0
    1418:	460c      	mov	r4, r1
    141a:	d906      	bls.n	142a <_scanf_float+0x26>
    141c:	f46f 73ae 	mvn.w	r3, #348	; 0x15c
    1420:	441a      	add	r2, r3
    1422:	f240 135d 	movw	r3, #349	; 0x15d
    1426:	608b      	str	r3, [r1, #8]
    1428:	e000      	b.n	142c <_scanf_float+0x28>
    142a:	2200      	movs	r2, #0
    142c:	6823      	ldr	r3, [r4, #0]
    142e:	46a0      	mov	r8, r4
    1430:	f443 63f0 	orr.w	r3, r3, #1920	; 0x780
    1434:	f04f 0b00 	mov.w	fp, #0
    1438:	f848 3b1c 	str.w	r3, [r8], #28
    143c:	4645      	mov	r5, r8
    143e:	46da      	mov	sl, fp
    1440:	f8cd b014 	str.w	fp, [sp, #20]
    1444:	f8cd b010 	str.w	fp, [sp, #16]
    1448:	46d9      	mov	r9, fp
    144a:	f8cd b00c 	str.w	fp, [sp, #12]
    144e:	68a1      	ldr	r1, [r4, #8]
    1450:	2900      	cmp	r1, #0
    1452:	f000 80e9 	beq.w	1628 <_scanf_float+0x224>
    1456:	6833      	ldr	r3, [r6, #0]
    1458:	781b      	ldrb	r3, [r3, #0]
    145a:	2b49      	cmp	r3, #73	; 0x49
    145c:	d075      	beq.n	154a <_scanf_float+0x146>
    145e:	d816      	bhi.n	148e <_scanf_float+0x8a>
    1460:	2b39      	cmp	r3, #57	; 0x39
    1462:	d80d      	bhi.n	1480 <_scanf_float+0x7c>
    1464:	2b31      	cmp	r3, #49	; 0x31
    1466:	d23e      	bcs.n	14e6 <_scanf_float+0xe2>
    1468:	2b2d      	cmp	r3, #45	; 0x2d
    146a:	d045      	beq.n	14f8 <_scanf_float+0xf4>
    146c:	d802      	bhi.n	1474 <_scanf_float+0x70>
    146e:	2b2b      	cmp	r3, #43	; 0x2b
    1470:	d042      	beq.n	14f8 <_scanf_float+0xf4>
    1472:	e0d9      	b.n	1628 <_scanf_float+0x224>
    1474:	2b2e      	cmp	r3, #46	; 0x2e
    1476:	f000 8097 	beq.w	15a8 <_scanf_float+0x1a4>
    147a:	2b30      	cmp	r3, #48	; 0x30
    147c:	d023      	beq.n	14c6 <_scanf_float+0xc2>
    147e:	e0d3      	b.n	1628 <_scanf_float+0x224>
    1480:	2b45      	cmp	r3, #69	; 0x45
    1482:	f000 809a 	beq.w	15ba <_scanf_float+0x1b6>
    1486:	2b46      	cmp	r3, #70	; 0x46
    1488:	d07c      	beq.n	1584 <_scanf_float+0x180>
    148a:	2b41      	cmp	r3, #65	; 0x41
    148c:	e00c      	b.n	14a8 <_scanf_float+0xa4>
    148e:	2b65      	cmp	r3, #101	; 0x65
    1490:	f000 8093 	beq.w	15ba <_scanf_float+0x1b6>
    1494:	d80a      	bhi.n	14ac <_scanf_float+0xa8>
    1496:	2b54      	cmp	r3, #84	; 0x54
    1498:	d07a      	beq.n	1590 <_scanf_float+0x18c>
    149a:	d802      	bhi.n	14a2 <_scanf_float+0x9e>
    149c:	2b4e      	cmp	r3, #78	; 0x4e
    149e:	d033      	beq.n	1508 <_scanf_float+0x104>
    14a0:	e0c2      	b.n	1628 <_scanf_float+0x224>
    14a2:	2b59      	cmp	r3, #89	; 0x59
    14a4:	d07a      	beq.n	159c <_scanf_float+0x198>
    14a6:	2b61      	cmp	r3, #97	; 0x61
    14a8:	d049      	beq.n	153e <_scanf_float+0x13a>
    14aa:	e0bd      	b.n	1628 <_scanf_float+0x224>
    14ac:	2b6e      	cmp	r3, #110	; 0x6e
    14ae:	d02b      	beq.n	1508 <_scanf_float+0x104>
    14b0:	d804      	bhi.n	14bc <_scanf_float+0xb8>
    14b2:	2b66      	cmp	r3, #102	; 0x66
    14b4:	d066      	beq.n	1584 <_scanf_float+0x180>
    14b6:	2b69      	cmp	r3, #105	; 0x69
    14b8:	d047      	beq.n	154a <_scanf_float+0x146>
    14ba:	e0b5      	b.n	1628 <_scanf_float+0x224>
    14bc:	2b74      	cmp	r3, #116	; 0x74
    14be:	d067      	beq.n	1590 <_scanf_float+0x18c>
    14c0:	2b79      	cmp	r3, #121	; 0x79
    14c2:	d06b      	beq.n	159c <_scanf_float+0x198>
    14c4:	e0b0      	b.n	1628 <_scanf_float+0x224>
    14c6:	6820      	ldr	r0, [r4, #0]
    14c8:	f410 7f80 	tst.w	r0, #256	; 0x100
    14cc:	d00b      	beq.n	14e6 <_scanf_float+0xe2>
    14ce:	f020 0080 	bic.w	r0, r0, #128	; 0x80
    14d2:	6020      	str	r0, [r4, #0]
    14d4:	f109 0901 	add.w	r9, r9, #1
    14d8:	2a00      	cmp	r2, #0
    14da:	f000 808c 	beq.w	15f6 <_scanf_float+0x1f2>
    14de:	3101      	adds	r1, #1
    14e0:	3a01      	subs	r2, #1
    14e2:	60a1      	str	r1, [r4, #8]
    14e4:	e087      	b.n	15f6 <_scanf_float+0x1f2>
    14e6:	eb0a 010b 	add.w	r1, sl, fp
    14ea:	2900      	cmp	r1, #0
    14ec:	f040 809c 	bne.w	1628 <_scanf_float+0x224>
    14f0:	6821      	ldr	r1, [r4, #0]
    14f2:	f421 71c0 	bic.w	r1, r1, #384	; 0x180
    14f6:	e005      	b.n	1504 <_scanf_float+0x100>
    14f8:	6821      	ldr	r1, [r4, #0]
    14fa:	0608      	lsls	r0, r1, #24
    14fc:	f140 8094 	bpl.w	1628 <_scanf_float+0x224>
    1500:	f021 0180 	bic.w	r1, r1, #128	; 0x80
    1504:	6021      	str	r1, [r4, #0]
    1506:	e074      	b.n	15f2 <_scanf_float+0x1ee>
    1508:	f1ba 0f00 	cmp.w	sl, #0
    150c:	d10e      	bne.n	152c <_scanf_float+0x128>
    150e:	f1b9 0f00 	cmp.w	r9, #0
    1512:	d10e      	bne.n	1532 <_scanf_float+0x12e>
    1514:	6821      	ldr	r1, [r4, #0]
    1516:	f401 60e0 	and.w	r0, r1, #1792	; 0x700
    151a:	f5b0 6fe0 	cmp.w	r0, #1792	; 0x700
    151e:	d108      	bne.n	1532 <_scanf_float+0x12e>
    1520:	f421 61f0 	bic.w	r1, r1, #1920	; 0x780
    1524:	6021      	str	r1, [r4, #0]
    1526:	f04f 0a01 	mov.w	sl, #1
    152a:	e062      	b.n	15f2 <_scanf_float+0x1ee>
    152c:	f1ba 0f02 	cmp.w	sl, #2
    1530:	d05d      	beq.n	15ee <_scanf_float+0x1ea>
    1532:	f1bb 0f01 	cmp.w	fp, #1
    1536:	d020      	beq.n	157a <_scanf_float+0x176>
    1538:	f1bb 0f04 	cmp.w	fp, #4
    153c:	e01c      	b.n	1578 <_scanf_float+0x174>
    153e:	f1ba 0f01 	cmp.w	sl, #1
    1542:	d171      	bne.n	1628 <_scanf_float+0x224>
    1544:	f04f 0a02 	mov.w	sl, #2
    1548:	e053      	b.n	15f2 <_scanf_float+0x1ee>
    154a:	f1bb 0f00 	cmp.w	fp, #0
    154e:	d10e      	bne.n	156e <_scanf_float+0x16a>
    1550:	f1b9 0f00 	cmp.w	r9, #0
    1554:	d16b      	bne.n	162e <_scanf_float+0x22a>
    1556:	6821      	ldr	r1, [r4, #0]
    1558:	f401 60e0 	and.w	r0, r1, #1792	; 0x700
    155c:	f5b0 6fe0 	cmp.w	r0, #1792	; 0x700
    1560:	d169      	bne.n	1636 <_scanf_float+0x232>
    1562:	f421 61f0 	bic.w	r1, r1, #1920	; 0x780
    1566:	6021      	str	r1, [r4, #0]
    1568:	f04f 0b01 	mov.w	fp, #1
    156c:	e041      	b.n	15f2 <_scanf_float+0x1ee>
    156e:	f1bb 0f03 	cmp.w	fp, #3
    1572:	d002      	beq.n	157a <_scanf_float+0x176>
    1574:	f1bb 0f05 	cmp.w	fp, #5
    1578:	d156      	bne.n	1628 <_scanf_float+0x224>
    157a:	f10b 0b01 	add.w	fp, fp, #1
    157e:	fa5f fb8b 	uxtb.w	fp, fp
    1582:	e036      	b.n	15f2 <_scanf_float+0x1ee>
    1584:	f1bb 0f02 	cmp.w	fp, #2
    1588:	d14e      	bne.n	1628 <_scanf_float+0x224>
    158a:	f04f 0b03 	mov.w	fp, #3
    158e:	e030      	b.n	15f2 <_scanf_float+0x1ee>
    1590:	f1bb 0f06 	cmp.w	fp, #6
    1594:	d148      	bne.n	1628 <_scanf_float+0x224>
    1596:	f04f 0b07 	mov.w	fp, #7
    159a:	e02a      	b.n	15f2 <_scanf_float+0x1ee>
    159c:	f1bb 0f07 	cmp.w	fp, #7
    15a0:	d142      	bne.n	1628 <_scanf_float+0x224>
    15a2:	f04f 0b08 	mov.w	fp, #8
    15a6:	e024      	b.n	15f2 <_scanf_float+0x1ee>
    15a8:	6821      	ldr	r1, [r4, #0]
    15aa:	0588      	lsls	r0, r1, #22
    15ac:	d53c      	bpl.n	1628 <_scanf_float+0x224>
    15ae:	f421 7120 	bic.w	r1, r1, #640	; 0x280
    15b2:	6021      	str	r1, [r4, #0]
    15b4:	f8cd 900c 	str.w	r9, [sp, #12]
    15b8:	e01b      	b.n	15f2 <_scanf_float+0x1ee>
    15ba:	6821      	ldr	r1, [r4, #0]
    15bc:	f401 60a0 	and.w	r0, r1, #1280	; 0x500
    15c0:	f5b0 6f80 	cmp.w	r0, #1024	; 0x400
    15c4:	d004      	beq.n	15d0 <_scanf_float+0x1cc>
    15c6:	0548      	lsls	r0, r1, #21
    15c8:	d52e      	bpl.n	1628 <_scanf_float+0x224>
    15ca:	f1b9 0f00 	cmp.w	r9, #0
    15ce:	d032      	beq.n	1636 <_scanf_float+0x232>
    15d0:	0588      	lsls	r0, r1, #22
    15d2:	d404      	bmi.n	15de <_scanf_float+0x1da>
    15d4:	9803      	ldr	r0, [sp, #12]
    15d6:	9505      	str	r5, [sp, #20]
    15d8:	ebc0 0009 	rsb	r0, r0, r9
    15dc:	9004      	str	r0, [sp, #16]
    15de:	f421 61f0 	bic.w	r1, r1, #1920	; 0x780
    15e2:	f441 71c0 	orr.w	r1, r1, #384	; 0x180
    15e6:	6021      	str	r1, [r4, #0]
    15e8:	f04f 0900 	mov.w	r9, #0
    15ec:	e001      	b.n	15f2 <_scanf_float+0x1ee>
    15ee:	f04f 0a03 	mov.w	sl, #3
    15f2:	702b      	strb	r3, [r5, #0]
    15f4:	3501      	adds	r5, #1
    15f6:	68a3      	ldr	r3, [r4, #8]
    15f8:	3b01      	subs	r3, #1
    15fa:	60a3      	str	r3, [r4, #8]
    15fc:	6923      	ldr	r3, [r4, #16]
    15fe:	3301      	adds	r3, #1
    1600:	6123      	str	r3, [r4, #16]
    1602:	6873      	ldr	r3, [r6, #4]
    1604:	3b01      	subs	r3, #1
    1606:	2b00      	cmp	r3, #0
    1608:	6073      	str	r3, [r6, #4]
    160a:	dd03      	ble.n	1614 <_scanf_float+0x210>
    160c:	6833      	ldr	r3, [r6, #0]
    160e:	3301      	adds	r3, #1
    1610:	6033      	str	r3, [r6, #0]
    1612:	e71c      	b.n	144e <_scanf_float+0x4a>
    1614:	9201      	str	r2, [sp, #4]
    1616:	f8d4 3180 	ldr.w	r3, [r4, #384]	; 0x180
    161a:	4638      	mov	r0, r7
    161c:	4631      	mov	r1, r6
    161e:	4798      	blx	r3
    1620:	9a01      	ldr	r2, [sp, #4]
    1622:	2800      	cmp	r0, #0
    1624:	f43f af13 	beq.w	144e <_scanf_float+0x4a>
    1628:	f1b9 0f00 	cmp.w	r9, #0
    162c:	d003      	beq.n	1636 <_scanf_float+0x232>
    162e:	6823      	ldr	r3, [r4, #0]
    1630:	f423 7380 	bic.w	r3, r3, #256	; 0x100
    1634:	6023      	str	r3, [r4, #0]
    1636:	f10a 3aff 	add.w	sl, sl, #4294967295	; 0xffffffff
    163a:	f1ba 0f01 	cmp.w	sl, #1
    163e:	d810      	bhi.n	1662 <_scanf_float+0x25e>
    1640:	4545      	cmp	r5, r8
    1642:	462a      	mov	r2, r5
    1644:	d90b      	bls.n	165e <_scanf_float+0x25a>
    1646:	f8d4 317c 	ldr.w	r3, [r4, #380]	; 0x17c
    164a:	f812 1c01 	ldrb.w	r1, [r2, #-1]
    164e:	4638      	mov	r0, r7
    1650:	4632      	mov	r2, r6
    1652:	4798      	blx	r3
    1654:	6923      	ldr	r3, [r4, #16]
    1656:	3d01      	subs	r5, #1
    1658:	3b01      	subs	r3, #1
    165a:	6123      	str	r3, [r4, #16]
    165c:	e7f0      	b.n	1640 <_scanf_float+0x23c>
    165e:	2601      	movs	r6, #1
    1660:	e0b5      	b.n	17ce <_scanf_float+0x3ca>
    1662:	f10b 33ff 	add.w	r3, fp, #4294967295	; 0xffffffff
    1666:	2b06      	cmp	r3, #6
    1668:	d82c      	bhi.n	16c4 <_scanf_float+0x2c0>
    166a:	f1bb 0f02 	cmp.w	fp, #2
    166e:	d91a      	bls.n	16a6 <_scanf_float+0x2a2>
    1670:	f1ab 0b03 	sub.w	fp, fp, #3
    1674:	fa5f fb8b 	uxtb.w	fp, fp
    1678:	46aa      	mov	sl, r5
    167a:	ebcb 0c05 	rsb	ip, fp, r5
    167e:	45e2      	cmp	sl, ip
    1680:	d00e      	beq.n	16a0 <_scanf_float+0x29c>
    1682:	f8d4 317c 	ldr.w	r3, [r4, #380]	; 0x17c
    1686:	f81a 1d01 	ldrb.w	r1, [sl, #-1]!
    168a:	4638      	mov	r0, r7
    168c:	f8cd c004 	str.w	ip, [sp, #4]
    1690:	4632      	mov	r2, r6
    1692:	4798      	blx	r3
    1694:	6923      	ldr	r3, [r4, #16]
    1696:	f8dd c004 	ldr.w	ip, [sp, #4]
    169a:	3b01      	subs	r3, #1
    169c:	6123      	str	r3, [r4, #16]
    169e:	e7ee      	b.n	167e <_scanf_float+0x27a>
    16a0:	ebcb 0505 	rsb	r5, fp, r5
    16a4:	e00e      	b.n	16c4 <_scanf_float+0x2c0>
    16a6:	4545      	cmp	r5, r8
    16a8:	462a      	mov	r2, r5
    16aa:	d9d8      	bls.n	165e <_scanf_float+0x25a>
    16ac:	f8d4 317c 	ldr.w	r3, [r4, #380]	; 0x17c
    16b0:	f812 1c01 	ldrb.w	r1, [r2, #-1]
    16b4:	4638      	mov	r0, r7
    16b6:	4632      	mov	r2, r6
    16b8:	4798      	blx	r3
    16ba:	6923      	ldr	r3, [r4, #16]
    16bc:	3d01      	subs	r5, #1
    16be:	3b01      	subs	r3, #1
    16c0:	6123      	str	r3, [r4, #16]
    16c2:	e7f0      	b.n	16a6 <_scanf_float+0x2a2>
    16c4:	6823      	ldr	r3, [r4, #0]
    16c6:	05da      	lsls	r2, r3, #23
    16c8:	d52e      	bpl.n	1728 <_scanf_float+0x324>
    16ca:	055b      	lsls	r3, r3, #21
    16cc:	d50e      	bpl.n	16ec <_scanf_float+0x2e8>
    16ce:	4545      	cmp	r5, r8
    16d0:	462a      	mov	r2, r5
    16d2:	d9c4      	bls.n	165e <_scanf_float+0x25a>
    16d4:	f8d4 317c 	ldr.w	r3, [r4, #380]	; 0x17c
    16d8:	f812 1c01 	ldrb.w	r1, [r2, #-1]
    16dc:	4638      	mov	r0, r7
    16de:	4632      	mov	r2, r6
    16e0:	4798      	blx	r3
    16e2:	6923      	ldr	r3, [r4, #16]
    16e4:	3d01      	subs	r5, #1
    16e6:	3b01      	subs	r3, #1
    16e8:	6123      	str	r3, [r4, #16]
    16ea:	e7f0      	b.n	16ce <_scanf_float+0x2ca>
    16ec:	f815 1c01 	ldrb.w	r1, [r5, #-1]
    16f0:	6923      	ldr	r3, [r4, #16]
    16f2:	2965      	cmp	r1, #101	; 0x65
    16f4:	f103 33ff 	add.w	r3, r3, #4294967295	; 0xffffffff
    16f8:	f105 3aff 	add.w	sl, r5, #4294967295	; 0xffffffff
    16fc:	6123      	str	r3, [r4, #16]
    16fe:	d00d      	beq.n	171c <_scanf_float+0x318>
    1700:	2945      	cmp	r1, #69	; 0x45
    1702:	d00b      	beq.n	171c <_scanf_float+0x318>
    1704:	f8d4 317c 	ldr.w	r3, [r4, #380]	; 0x17c
    1708:	4638      	mov	r0, r7
    170a:	4632      	mov	r2, r6
    170c:	4798      	blx	r3
    170e:	6923      	ldr	r3, [r4, #16]
    1710:	f815 1c02 	ldrb.w	r1, [r5, #-2]
    1714:	3b01      	subs	r3, #1
    1716:	f1a5 0a02 	sub.w	sl, r5, #2
    171a:	6123      	str	r3, [r4, #16]
    171c:	f8d4 317c 	ldr.w	r3, [r4, #380]	; 0x17c
    1720:	4638      	mov	r0, r7
    1722:	4632      	mov	r2, r6
    1724:	4798      	blx	r3
    1726:	4655      	mov	r5, sl
    1728:	6826      	ldr	r6, [r4, #0]
    172a:	f016 0610 	ands.w	r6, r6, #16
    172e:	d14d      	bne.n	17cc <_scanf_float+0x3c8>
    1730:	702e      	strb	r6, [r5, #0]
    1732:	6823      	ldr	r3, [r4, #0]
    1734:	f403 63c0 	and.w	r3, r3, #1536	; 0x600
    1738:	f5b3 6f80 	cmp.w	r3, #1024	; 0x400
    173c:	d105      	bne.n	174a <_scanf_float+0x346>
    173e:	9903      	ldr	r1, [sp, #12]
    1740:	ebc1 0309 	rsb	r3, r1, r9
    1744:	425a      	negs	r2, r3
    1746:	b963      	cbnz	r3, 1762 <_scanf_float+0x35e>
    1748:	e015      	b.n	1776 <_scanf_float+0x372>
    174a:	9d04      	ldr	r5, [sp, #16]
    174c:	b19d      	cbz	r5, 1776 <_scanf_float+0x372>
    174e:	9d05      	ldr	r5, [sp, #20]
    1750:	4632      	mov	r2, r6
    1752:	1c69      	adds	r1, r5, #1
    1754:	4638      	mov	r0, r7
    1756:	230a      	movs	r3, #10
    1758:	f7ff f862 	bl	820 <_strtol_r>
    175c:	9d04      	ldr	r5, [sp, #16]
    175e:	1b42      	subs	r2, r0, r5
    1760:	9d05      	ldr	r5, [sp, #20]
    1762:	f204 136f 	addw	r3, r4, #367	; 0x16f
    1766:	429d      	cmp	r5, r3
    1768:	bf28      	it	cs
    176a:	f504 75b7 	addcs.w	r5, r4, #366	; 0x16e
    176e:	4628      	mov	r0, r5
    1770:	4919      	ldr	r1, [pc, #100]	; (17d8 <_scanf_float+0x3d4>)
    1772:	f7ff f813 	bl	79c <siprintf>
    1776:	4641      	mov	r1, r8
    1778:	2200      	movs	r2, #0
    177a:	4638      	mov	r0, r7
    177c:	f001 fb3c 	bl	2df8 <_strtod_r>
    1780:	6822      	ldr	r2, [r4, #0]
    1782:	9d02      	ldr	r5, [sp, #8]
    1784:	f012 0f02 	tst.w	r2, #2
    1788:	4680      	mov	r8, r0
    178a:	4689      	mov	r9, r1
    178c:	682b      	ldr	r3, [r5, #0]
    178e:	d002      	beq.n	1796 <_scanf_float+0x392>
    1790:	1d1a      	adds	r2, r3, #4
    1792:	602a      	str	r2, [r5, #0]
    1794:	e006      	b.n	17a4 <_scanf_float+0x3a0>
    1796:	9d02      	ldr	r5, [sp, #8]
    1798:	f012 0f04 	tst.w	r2, #4
    179c:	f103 0204 	add.w	r2, r3, #4
    17a0:	602a      	str	r2, [r5, #0]
    17a2:	d003      	beq.n	17ac <_scanf_float+0x3a8>
    17a4:	681b      	ldr	r3, [r3, #0]
    17a6:	e9c3 8900 	strd	r8, r9, [r3]
    17aa:	e00b      	b.n	17c4 <_scanf_float+0x3c0>
    17ac:	681d      	ldr	r5, [r3, #0]
    17ae:	f001 fac7 	bl	2d40 <__fpclassifyd>
    17b2:	b910      	cbnz	r0, 17ba <_scanf_float+0x3b6>
    17b4:	f001 fae6 	bl	2d84 <nanf>
    17b8:	e003      	b.n	17c2 <_scanf_float+0x3be>
    17ba:	4640      	mov	r0, r8
    17bc:	4649      	mov	r1, r9
    17be:	f003 f8f7 	bl	49b0 <__aeabi_d2f>
    17c2:	6028      	str	r0, [r5, #0]
    17c4:	68e3      	ldr	r3, [r4, #12]
    17c6:	3301      	adds	r3, #1
    17c8:	60e3      	str	r3, [r4, #12]
    17ca:	e000      	b.n	17ce <_scanf_float+0x3ca>
    17cc:	2600      	movs	r6, #0
    17ce:	4630      	mov	r0, r6
    17d0:	b007      	add	sp, #28
    17d2:	e8bd 8ff0 	ldmia.w	sp!, {r4, r5, r6, r7, r8, r9, sl, fp, pc}
    17d6:	bf00      	nop
    17d8:	00004ae3 	andeq	r4, r0, r3, ror #21

000017dc <quorem>:
    17dc:	e92d 4ff7 	stmdb	sp!, {r0, r1, r2, r4, r5, r6, r7, r8, r9, sl, fp, lr}
    17e0:	6903      	ldr	r3, [r0, #16]
    17e2:	690c      	ldr	r4, [r1, #16]
    17e4:	4680      	mov	r8, r0
    17e6:	42a3      	cmp	r3, r4
    17e8:	f2c0 8083 	blt.w	18f2 <quorem+0x116>
    17ec:	3c01      	subs	r4, #1
    17ee:	00a2      	lsls	r2, r4, #2
    17f0:	f101 0714 	add.w	r7, r1, #20
    17f4:	f100 0514 	add.w	r5, r0, #20
    17f8:	4691      	mov	r9, r2
    17fa:	9200      	str	r2, [sp, #0]
    17fc:	f857 6024 	ldr.w	r6, [r7, r4, lsl #2]
    1800:	442a      	add	r2, r5
    1802:	9201      	str	r2, [sp, #4]
    1804:	f855 2024 	ldr.w	r2, [r5, r4, lsl #2]
    1808:	3601      	adds	r6, #1
    180a:	fbb2 f6f6 	udiv	r6, r2, r6
    180e:	44b9      	add	r9, r7
    1810:	2e00      	cmp	r6, #0
    1812:	d03b      	beq.n	188c <quorem+0xb0>
    1814:	f04f 0e00 	mov.w	lr, #0
    1818:	463a      	mov	r2, r7
    181a:	4628      	mov	r0, r5
    181c:	46f3      	mov	fp, lr
    181e:	f852 cb04 	ldr.w	ip, [r2], #4
    1822:	6803      	ldr	r3, [r0, #0]
    1824:	fa1f fa8c 	uxth.w	sl, ip
    1828:	ea4f 4c1c 	mov.w	ip, ip, lsr #16
    182c:	fb0a ea06 	mla	sl, sl, r6, lr
    1830:	fb0c fc06 	mul.w	ip, ip, r6
    1834:	eb0c 4c1a 	add.w	ip, ip, sl, lsr #16
    1838:	fa1f fa8a 	uxth.w	sl, sl
    183c:	ebca 0b0b 	rsb	fp, sl, fp
    1840:	ea4f 4e1c 	mov.w	lr, ip, lsr #16
    1844:	fa1f fa83 	uxth.w	sl, r3
    1848:	fa1f fc8c 	uxth.w	ip, ip
    184c:	44da      	add	sl, fp
    184e:	ebcc 4c13 	rsb	ip, ip, r3, lsr #16
    1852:	eb0c 4c2a 	add.w	ip, ip, sl, asr #16
    1856:	fa1f fa8a 	uxth.w	sl, sl
    185a:	ea4a 4a0c 	orr.w	sl, sl, ip, lsl #16
    185e:	454a      	cmp	r2, r9
    1860:	ea4f 4b2c 	mov.w	fp, ip, asr #16
    1864:	f840 ab04 	str.w	sl, [r0], #4
    1868:	d9d9      	bls.n	181e <quorem+0x42>
    186a:	9a00      	ldr	r2, [sp, #0]
    186c:	58ab      	ldr	r3, [r5, r2]
    186e:	b96b      	cbnz	r3, 188c <quorem+0xb0>
    1870:	9a01      	ldr	r2, [sp, #4]
    1872:	1f13      	subs	r3, r2, #4
    1874:	42ab      	cmp	r3, r5
    1876:	461a      	mov	r2, r3
    1878:	d802      	bhi.n	1880 <quorem+0xa4>
    187a:	f8c8 4010 	str.w	r4, [r8, #16]
    187e:	e005      	b.n	188c <quorem+0xb0>
    1880:	6812      	ldr	r2, [r2, #0]
    1882:	3b04      	subs	r3, #4
    1884:	2a00      	cmp	r2, #0
    1886:	d1f8      	bne.n	187a <quorem+0x9e>
    1888:	3c01      	subs	r4, #1
    188a:	e7f3      	b.n	1874 <quorem+0x98>
    188c:	4640      	mov	r0, r8
    188e:	f001 f87c 	bl	298a <__mcmp>
    1892:	2800      	cmp	r0, #0
    1894:	db2b      	blt.n	18ee <quorem+0x112>
    1896:	3601      	adds	r6, #1
    1898:	462b      	mov	r3, r5
    189a:	2000      	movs	r0, #0
    189c:	f857 cb04 	ldr.w	ip, [r7], #4
    18a0:	681a      	ldr	r2, [r3, #0]
    18a2:	fa1f f18c 	uxth.w	r1, ip
    18a6:	1a41      	subs	r1, r0, r1
    18a8:	fa1f fa82 	uxth.w	sl, r2
    18ac:	ea4f 4c1c 	mov.w	ip, ip, lsr #16
    18b0:	4451      	add	r1, sl
    18b2:	ebcc 4212 	rsb	r2, ip, r2, lsr #16
    18b6:	eb02 4221 	add.w	r2, r2, r1, asr #16
    18ba:	b289      	uxth	r1, r1
    18bc:	1410      	asrs	r0, r2, #16
    18be:	454f      	cmp	r7, r9
    18c0:	ea41 4202 	orr.w	r2, r1, r2, lsl #16
    18c4:	f843 2b04 	str.w	r2, [r3], #4
    18c8:	d9e8      	bls.n	189c <quorem+0xc0>
    18ca:	f855 2024 	ldr.w	r2, [r5, r4, lsl #2]
    18ce:	eb05 0384 	add.w	r3, r5, r4, lsl #2
    18d2:	b962      	cbnz	r2, 18ee <quorem+0x112>
    18d4:	3b04      	subs	r3, #4
    18d6:	42ab      	cmp	r3, r5
    18d8:	461a      	mov	r2, r3
    18da:	d802      	bhi.n	18e2 <quorem+0x106>
    18dc:	f8c8 4010 	str.w	r4, [r8, #16]
    18e0:	e005      	b.n	18ee <quorem+0x112>
    18e2:	6812      	ldr	r2, [r2, #0]
    18e4:	3b04      	subs	r3, #4
    18e6:	2a00      	cmp	r2, #0
    18e8:	d1f8      	bne.n	18dc <quorem+0x100>
    18ea:	3c01      	subs	r4, #1
    18ec:	e7f3      	b.n	18d6 <quorem+0xfa>
    18ee:	4630      	mov	r0, r6
    18f0:	e000      	b.n	18f4 <quorem+0x118>
    18f2:	2000      	movs	r0, #0
    18f4:	b003      	add	sp, #12
    18f6:	e8bd 8ff0 	ldmia.w	sp!, {r4, r5, r6, r7, r8, r9, sl, fp, pc}
    18fa:	0000      	movs	r0, r0
    18fc:	0000      	movs	r0, r0
	...

00001900 <_dtoa_r>:
    1900:	e92d 4ff0 	stmdb	sp!, {r4, r5, r6, r7, r8, r9, sl, fp, lr}
    1904:	6a45      	ldr	r5, [r0, #36]	; 0x24
    1906:	b09b      	sub	sp, #108	; 0x6c
    1908:	4682      	mov	sl, r0
    190a:	9c27      	ldr	r4, [sp, #156]	; 0x9c
    190c:	e9cd 2304 	strd	r2, r3, [sp, #16]
    1910:	b945      	cbnz	r5, 1924 <_dtoa_r+0x24>
    1912:	2010      	movs	r0, #16
    1914:	f7fe fe80 	bl	618 <malloc>
    1918:	f8ca 0024 	str.w	r0, [sl, #36]	; 0x24
    191c:	6045      	str	r5, [r0, #4]
    191e:	6085      	str	r5, [r0, #8]
    1920:	6005      	str	r5, [r0, #0]
    1922:	60c5      	str	r5, [r0, #12]
    1924:	f8da 3024 	ldr.w	r3, [sl, #36]	; 0x24
    1928:	6819      	ldr	r1, [r3, #0]
    192a:	b161      	cbz	r1, 1946 <_dtoa_r+0x46>
    192c:	685b      	ldr	r3, [r3, #4]
    192e:	2201      	movs	r2, #1
    1930:	604b      	str	r3, [r1, #4]
    1932:	fa02 f303 	lsl.w	r3, r2, r3
    1936:	4650      	mov	r0, sl
    1938:	608b      	str	r3, [r1, #8]
    193a:	f000 fe03 	bl	2544 <_Bfree>
    193e:	f8da 3024 	ldr.w	r3, [sl, #36]	; 0x24
    1942:	2200      	movs	r2, #0
    1944:	601a      	str	r2, [r3, #0]
    1946:	9805      	ldr	r0, [sp, #20]
    1948:	2800      	cmp	r0, #0
    194a:	da05      	bge.n	1958 <_dtoa_r+0x58>
    194c:	2301      	movs	r3, #1
    194e:	f020 4100 	bic.w	r1, r0, #2147483648	; 0x80000000
    1952:	6023      	str	r3, [r4, #0]
    1954:	9105      	str	r1, [sp, #20]
    1956:	e001      	b.n	195c <_dtoa_r+0x5c>
    1958:	2300      	movs	r3, #0
    195a:	6023      	str	r3, [r4, #0]
    195c:	9f05      	ldr	r7, [sp, #20]
    195e:	4a9c      	ldr	r2, [pc, #624]	; (1bd0 <_dtoa_r+0x2d0>)
    1960:	f027 4300 	bic.w	r3, r7, #2147483648	; 0x80000000
    1964:	0d1b      	lsrs	r3, r3, #20
    1966:	051b      	lsls	r3, r3, #20
    1968:	4293      	cmp	r3, r2
    196a:	d11d      	bne.n	19a8 <_dtoa_r+0xa8>
    196c:	9a26      	ldr	r2, [sp, #152]	; 0x98
    196e:	f242 730f 	movw	r3, #9999	; 0x270f
    1972:	6013      	str	r3, [r2, #0]
    1974:	9b04      	ldr	r3, [sp, #16]
    1976:	b943      	cbnz	r3, 198a <_dtoa_r+0x8a>
    1978:	4b96      	ldr	r3, [pc, #600]	; (1bd4 <_dtoa_r+0x2d4>)
    197a:	4a97      	ldr	r2, [pc, #604]	; (1bd8 <_dtoa_r+0x2d8>)
    197c:	f3c7 0013 	ubfx	r0, r7, #0, #20
    1980:	2800      	cmp	r0, #0
    1982:	bf0c      	ite	eq
    1984:	4610      	moveq	r0, r2
    1986:	4618      	movne	r0, r3
    1988:	e000      	b.n	198c <_dtoa_r+0x8c>
    198a:	4892      	ldr	r0, [pc, #584]	; (1bd4 <_dtoa_r+0x2d4>)
    198c:	9f28      	ldr	r7, [sp, #160]	; 0xa0
    198e:	2f00      	cmp	r7, #0
    1990:	f000 8571 	beq.w	2476 <_dtoa_r+0xb76>
    1994:	78c3      	ldrb	r3, [r0, #3]
    1996:	b113      	cbz	r3, 199e <_dtoa_r+0x9e>
    1998:	f100 0308 	add.w	r3, r0, #8
    199c:	e000      	b.n	19a0 <_dtoa_r+0xa0>
    199e:	1cc3      	adds	r3, r0, #3
    19a0:	9f28      	ldr	r7, [sp, #160]	; 0xa0
    19a2:	603b      	str	r3, [r7, #0]
    19a4:	f000 bd67 	b.w	2476 <_dtoa_r+0xb76>
    19a8:	e9dd 4504 	ldrd	r4, r5, [sp, #16]
    19ac:	2200      	movs	r2, #0
    19ae:	4620      	mov	r0, r4
    19b0:	4629      	mov	r1, r5
    19b2:	2300      	movs	r3, #0
    19b4:	f002 ff82 	bl	48bc <__aeabi_dcmpeq>
    19b8:	4680      	mov	r8, r0
    19ba:	b158      	cbz	r0, 19d4 <_dtoa_r+0xd4>
    19bc:	9f26      	ldr	r7, [sp, #152]	; 0x98
    19be:	2301      	movs	r3, #1
    19c0:	603b      	str	r3, [r7, #0]
    19c2:	9f28      	ldr	r7, [sp, #160]	; 0xa0
    19c4:	2f00      	cmp	r7, #0
    19c6:	f000 8553 	beq.w	2470 <_dtoa_r+0xb70>
    19ca:	4884      	ldr	r0, [pc, #528]	; (1bdc <_dtoa_r+0x2dc>)
    19cc:	6038      	str	r0, [r7, #0]
    19ce:	3801      	subs	r0, #1
    19d0:	f000 bd51 	b.w	2476 <_dtoa_r+0xb76>
    19d4:	ab19      	add	r3, sp, #100	; 0x64
    19d6:	9300      	str	r3, [sp, #0]
    19d8:	ab18      	add	r3, sp, #96	; 0x60
    19da:	9301      	str	r3, [sp, #4]
    19dc:	4650      	mov	r0, sl
    19de:	4622      	mov	r2, r4
    19e0:	462b      	mov	r3, r5
    19e2:	f001 f8c4 	bl	2b6e <__d2b>
    19e6:	f3c7 560a 	ubfx	r6, r7, #20, #11
    19ea:	4683      	mov	fp, r0
    19ec:	b15e      	cbz	r6, 1a06 <_dtoa_r+0x106>
    19ee:	f3c5 0313 	ubfx	r3, r5, #0, #20
    19f2:	f043 517f 	orr.w	r1, r3, #1069547520	; 0x3fc00000
    19f6:	4620      	mov	r0, r4
    19f8:	f441 1140 	orr.w	r1, r1, #3145728	; 0x300000
    19fc:	f2a6 36ff 	subw	r6, r6, #1023	; 0x3ff
    1a00:	f8cd 8054 	str.w	r8, [sp, #84]	; 0x54
    1a04:	e01c      	b.n	1a40 <_dtoa_r+0x140>
    1a06:	9b19      	ldr	r3, [sp, #100]	; 0x64
    1a08:	9e18      	ldr	r6, [sp, #96]	; 0x60
    1a0a:	441e      	add	r6, r3
    1a0c:	f46f 6382 	mvn.w	r3, #1040	; 0x410
    1a10:	429e      	cmp	r6, r3
    1a12:	db09      	blt.n	1a28 <_dtoa_r+0x128>
    1a14:	9904      	ldr	r1, [sp, #16]
    1a16:	331f      	adds	r3, #31
    1a18:	f206 4012 	addw	r0, r6, #1042	; 0x412
    1a1c:	1b9b      	subs	r3, r3, r6
    1a1e:	fa21 f000 	lsr.w	r0, r1, r0
    1a22:	409f      	lsls	r7, r3
    1a24:	4338      	orrs	r0, r7
    1a26:	e004      	b.n	1a32 <_dtoa_r+0x132>
    1a28:	486d      	ldr	r0, [pc, #436]	; (1be0 <_dtoa_r+0x2e0>)
    1a2a:	9a04      	ldr	r2, [sp, #16]
    1a2c:	1b80      	subs	r0, r0, r6
    1a2e:	fa02 f000 	lsl.w	r0, r2, r0
    1a32:	f002 fc65 	bl	4300 <__aeabi_ui2d>
    1a36:	2701      	movs	r7, #1
    1a38:	f1a1 71f8 	sub.w	r1, r1, #32505856	; 0x1f00000
    1a3c:	3e01      	subs	r6, #1
    1a3e:	9715      	str	r7, [sp, #84]	; 0x54
    1a40:	2200      	movs	r2, #0
    1a42:	4b68      	ldr	r3, [pc, #416]	; (1be4 <_dtoa_r+0x2e4>)
    1a44:	f002 fb1e 	bl	4084 <__aeabi_dsub>
    1a48:	a35b      	add	r3, pc, #364	; (adr r3, 1bb8 <_dtoa_r+0x2b8>)
    1a4a:	e9d3 2300 	ldrd	r2, r3, [r3]
    1a4e:	f002 fccd 	bl	43ec <__aeabi_dmul>
    1a52:	a35b      	add	r3, pc, #364	; (adr r3, 1bc0 <_dtoa_r+0x2c0>)
    1a54:	e9d3 2300 	ldrd	r2, r3, [r3]
    1a58:	f002 fb16 	bl	4088 <__adddf3>
    1a5c:	4604      	mov	r4, r0
    1a5e:	4630      	mov	r0, r6
    1a60:	460d      	mov	r5, r1
    1a62:	f002 fc5d 	bl	4320 <__aeabi_i2d>
    1a66:	a358      	add	r3, pc, #352	; (adr r3, 1bc8 <_dtoa_r+0x2c8>)
    1a68:	e9d3 2300 	ldrd	r2, r3, [r3]
    1a6c:	f002 fcbe 	bl	43ec <__aeabi_dmul>
    1a70:	4602      	mov	r2, r0
    1a72:	460b      	mov	r3, r1
    1a74:	4620      	mov	r0, r4
    1a76:	4629      	mov	r1, r5
    1a78:	f002 fb06 	bl	4088 <__adddf3>
    1a7c:	4604      	mov	r4, r0
    1a7e:	460d      	mov	r5, r1
    1a80:	f002 ff4e 	bl	4920 <__aeabi_d2iz>
    1a84:	4629      	mov	r1, r5
    1a86:	4681      	mov	r9, r0
    1a88:	2200      	movs	r2, #0
    1a8a:	4620      	mov	r0, r4
    1a8c:	2300      	movs	r3, #0
    1a8e:	f002 ff1f 	bl	48d0 <__aeabi_dcmplt>
    1a92:	b158      	cbz	r0, 1aac <_dtoa_r+0x1ac>
    1a94:	4648      	mov	r0, r9
    1a96:	f002 fc43 	bl	4320 <__aeabi_i2d>
    1a9a:	4602      	mov	r2, r0
    1a9c:	460b      	mov	r3, r1
    1a9e:	4620      	mov	r0, r4
    1aa0:	4629      	mov	r1, r5
    1aa2:	f002 ff0b 	bl	48bc <__aeabi_dcmpeq>
    1aa6:	b908      	cbnz	r0, 1aac <_dtoa_r+0x1ac>
    1aa8:	f109 39ff 	add.w	r9, r9, #4294967295	; 0xffffffff
    1aac:	f1b9 0f16 	cmp.w	r9, #22
    1ab0:	d80d      	bhi.n	1ace <_dtoa_r+0x1ce>
    1ab2:	4b4d      	ldr	r3, [pc, #308]	; (1be8 <_dtoa_r+0x2e8>)
    1ab4:	eb03 03c9 	add.w	r3, r3, r9, lsl #3
    1ab8:	e9d3 0100 	ldrd	r0, r1, [r3]
    1abc:	e9dd 2304 	ldrd	r2, r3, [sp, #16]
    1ac0:	f002 ff24 	bl	490c <__aeabi_dcmpgt>
    1ac4:	b130      	cbz	r0, 1ad4 <_dtoa_r+0x1d4>
    1ac6:	f109 39ff 	add.w	r9, r9, #4294967295	; 0xffffffff
    1aca:	2700      	movs	r7, #0
    1acc:	e000      	b.n	1ad0 <_dtoa_r+0x1d0>
    1ace:	2701      	movs	r7, #1
    1ad0:	9714      	str	r7, [sp, #80]	; 0x50
    1ad2:	e000      	b.n	1ad6 <_dtoa_r+0x1d6>
    1ad4:	9014      	str	r0, [sp, #80]	; 0x50
    1ad6:	9b18      	ldr	r3, [sp, #96]	; 0x60
    1ad8:	1b9e      	subs	r6, r3, r6
    1ada:	3e01      	subs	r6, #1
    1adc:	9609      	str	r6, [sp, #36]	; 0x24
    1ade:	d504      	bpl.n	1aea <_dtoa_r+0x1ea>
    1ae0:	4277      	negs	r7, r6
    1ae2:	9708      	str	r7, [sp, #32]
    1ae4:	2700      	movs	r7, #0
    1ae6:	9709      	str	r7, [sp, #36]	; 0x24
    1ae8:	e001      	b.n	1aee <_dtoa_r+0x1ee>
    1aea:	2700      	movs	r7, #0
    1aec:	9708      	str	r7, [sp, #32]
    1aee:	f1b9 0f00 	cmp.w	r9, #0
    1af2:	db07      	blt.n	1b04 <_dtoa_r+0x204>
    1af4:	9f09      	ldr	r7, [sp, #36]	; 0x24
    1af6:	f8cd 9044 	str.w	r9, [sp, #68]	; 0x44
    1afa:	444f      	add	r7, r9
    1afc:	9709      	str	r7, [sp, #36]	; 0x24
    1afe:	2700      	movs	r7, #0
    1b00:	970e      	str	r7, [sp, #56]	; 0x38
    1b02:	e008      	b.n	1b16 <_dtoa_r+0x216>
    1b04:	9f08      	ldr	r7, [sp, #32]
    1b06:	ebc9 0707 	rsb	r7, r9, r7
    1b0a:	9708      	str	r7, [sp, #32]
    1b0c:	f1c9 0700 	rsb	r7, r9, #0
    1b10:	970e      	str	r7, [sp, #56]	; 0x38
    1b12:	2700      	movs	r7, #0
    1b14:	9711      	str	r7, [sp, #68]	; 0x44
    1b16:	9f24      	ldr	r7, [sp, #144]	; 0x90
    1b18:	2f09      	cmp	r7, #9
    1b1a:	d829      	bhi.n	1b70 <_dtoa_r+0x270>
    1b1c:	2f05      	cmp	r7, #5
    1b1e:	bfc4      	itt	gt
    1b20:	3f04      	subgt	r7, #4
    1b22:	9724      	strgt	r7, [sp, #144]	; 0x90
    1b24:	9f24      	ldr	r7, [sp, #144]	; 0x90
    1b26:	bfc8      	it	gt
    1b28:	2500      	movgt	r5, #0
    1b2a:	f1a7 0302 	sub.w	r3, r7, #2
    1b2e:	bfd8      	it	le
    1b30:	2501      	movle	r5, #1
    1b32:	2b03      	cmp	r3, #3
    1b34:	d821      	bhi.n	1b7a <_dtoa_r+0x27a>
    1b36:	e8df f003 	tbb	[pc, r3]
    1b3a:	04020f06 	streq	r0, [r2], #-3846	; 0xf06
    1b3e:	2701      	movs	r7, #1
    1b40:	e002      	b.n	1b48 <_dtoa_r+0x248>
    1b42:	2701      	movs	r7, #1
    1b44:	e009      	b.n	1b5a <_dtoa_r+0x25a>
    1b46:	2700      	movs	r7, #0
    1b48:	970f      	str	r7, [sp, #60]	; 0x3c
    1b4a:	9f25      	ldr	r7, [sp, #148]	; 0x94
    1b4c:	2f00      	cmp	r7, #0
    1b4e:	dd1e      	ble.n	1b8e <_dtoa_r+0x28e>
    1b50:	970b      	str	r7, [sp, #44]	; 0x2c
    1b52:	9707      	str	r7, [sp, #28]
    1b54:	463b      	mov	r3, r7
    1b56:	e01f      	b.n	1b98 <_dtoa_r+0x298>
    1b58:	2700      	movs	r7, #0
    1b5a:	970f      	str	r7, [sp, #60]	; 0x3c
    1b5c:	9f25      	ldr	r7, [sp, #148]	; 0x94
    1b5e:	444f      	add	r7, r9
    1b60:	970b      	str	r7, [sp, #44]	; 0x2c
    1b62:	3701      	adds	r7, #1
    1b64:	463b      	mov	r3, r7
    1b66:	9707      	str	r7, [sp, #28]
    1b68:	2b01      	cmp	r3, #1
    1b6a:	bfb8      	it	lt
    1b6c:	2301      	movlt	r3, #1
    1b6e:	e013      	b.n	1b98 <_dtoa_r+0x298>
    1b70:	2501      	movs	r5, #1
    1b72:	2700      	movs	r7, #0
    1b74:	9724      	str	r7, [sp, #144]	; 0x90
    1b76:	950f      	str	r5, [sp, #60]	; 0x3c
    1b78:	e001      	b.n	1b7e <_dtoa_r+0x27e>
    1b7a:	2701      	movs	r7, #1
    1b7c:	970f      	str	r7, [sp, #60]	; 0x3c
    1b7e:	f04f 37ff 	mov.w	r7, #4294967295	; 0xffffffff
    1b82:	970b      	str	r7, [sp, #44]	; 0x2c
    1b84:	9707      	str	r7, [sp, #28]
    1b86:	2700      	movs	r7, #0
    1b88:	2312      	movs	r3, #18
    1b8a:	9725      	str	r7, [sp, #148]	; 0x94
    1b8c:	e004      	b.n	1b98 <_dtoa_r+0x298>
    1b8e:	2701      	movs	r7, #1
    1b90:	970b      	str	r7, [sp, #44]	; 0x2c
    1b92:	9707      	str	r7, [sp, #28]
    1b94:	463b      	mov	r3, r7
    1b96:	9725      	str	r7, [sp, #148]	; 0x94
    1b98:	f8da 4024 	ldr.w	r4, [sl, #36]	; 0x24
    1b9c:	2200      	movs	r2, #0
    1b9e:	6062      	str	r2, [r4, #4]
    1ba0:	2104      	movs	r1, #4
    1ba2:	f101 0214 	add.w	r2, r1, #20
    1ba6:	429a      	cmp	r2, r3
    1ba8:	d820      	bhi.n	1bec <_dtoa_r+0x2ec>
    1baa:	6862      	ldr	r2, [r4, #4]
    1bac:	0049      	lsls	r1, r1, #1
    1bae:	3201      	adds	r2, #1
    1bb0:	6062      	str	r2, [r4, #4]
    1bb2:	e7f6      	b.n	1ba2 <_dtoa_r+0x2a2>
    1bb4:	f3af 8000 	nop.w
    1bb8:	636f4361 	cmnvs	pc, #-2080374783	; 0x84000001
    1bbc:	3fd287a7 	svccc	0x00d287a7
    1bc0:	8b60c8b3 	blhi	1833e94 <_etext+0x182f0d8>
    1bc4:	3fc68a28 	svccc	0x00c68a28
    1bc8:	509f79fb 			; <UNDEFINED> instruction: 0x509f79fb
    1bcc:	3fd34413 	svccc	0x00d34413
    1bd0:	7ff00000 	svcvc	0x00f00000	; IMB
    1bd4:	00004bf2 	strdeq	r4, [r0], -r2
    1bd8:	00004be9 	andeq	r4, r0, r9, ror #23
    1bdc:	00004ac0 	andeq	r4, r0, r0, asr #21
    1be0:	fffffbee 			; <UNDEFINED> instruction: 0xfffffbee
    1be4:	3ff80000 	svccc	0x00f80000
    1be8:	00004c60 	andeq	r4, r0, r0, ror #24
    1bec:	4650      	mov	r0, sl
    1bee:	6861      	ldr	r1, [r4, #4]
    1bf0:	f000 fc73 	bl	24da <_Balloc>
    1bf4:	f8da 3024 	ldr.w	r3, [sl, #36]	; 0x24
    1bf8:	6020      	str	r0, [r4, #0]
    1bfa:	9f07      	ldr	r7, [sp, #28]
    1bfc:	681b      	ldr	r3, [r3, #0]
    1bfe:	2f0e      	cmp	r7, #14
    1c00:	930a      	str	r3, [sp, #40]	; 0x28
    1c02:	f200 816b 	bhi.w	1edc <_dtoa_r+0x5dc>
    1c06:	2d00      	cmp	r5, #0
    1c08:	f000 8168 	beq.w	1edc <_dtoa_r+0x5dc>
    1c0c:	f1b9 0f00 	cmp.w	r9, #0
    1c10:	e9dd 0104 	ldrd	r0, r1, [sp, #16]
    1c14:	e9cd 0112 	strd	r0, r1, [sp, #72]	; 0x48
    1c18:	dd31      	ble.n	1c7e <_dtoa_r+0x37e>
    1c1a:	4a81      	ldr	r2, [pc, #516]	; (1e20 <_dtoa_r+0x520>)
    1c1c:	f009 030f 	and.w	r3, r9, #15
    1c20:	eb02 03c3 	add.w	r3, r2, r3, lsl #3
    1c24:	ea4f 1429 	mov.w	r4, r9, asr #4
    1c28:	e9d3 0100 	ldrd	r0, r1, [r3]
    1c2c:	e9cd 010c 	strd	r0, r1, [sp, #48]	; 0x30
    1c30:	06e0      	lsls	r0, r4, #27
    1c32:	d50c      	bpl.n	1c4e <_dtoa_r+0x34e>
    1c34:	e9dd 0112 	ldrd	r0, r1, [sp, #72]	; 0x48
    1c38:	4b7a      	ldr	r3, [pc, #488]	; (1e24 <_dtoa_r+0x524>)
    1c3a:	f004 040f 	and.w	r4, r4, #15
    1c3e:	e9d3 2308 	ldrd	r2, r3, [r3, #32]
    1c42:	f002 fcfd 	bl	4640 <__aeabi_ddiv>
    1c46:	2703      	movs	r7, #3
    1c48:	e9cd 0104 	strd	r0, r1, [sp, #16]
    1c4c:	e000      	b.n	1c50 <_dtoa_r+0x350>
    1c4e:	2702      	movs	r7, #2
    1c50:	4d74      	ldr	r5, [pc, #464]	; (1e24 <_dtoa_r+0x524>)
    1c52:	b16c      	cbz	r4, 1c70 <_dtoa_r+0x370>
    1c54:	07e1      	lsls	r1, r4, #31
    1c56:	d508      	bpl.n	1c6a <_dtoa_r+0x36a>
    1c58:	e9dd 010c 	ldrd	r0, r1, [sp, #48]	; 0x30
    1c5c:	e9d5 2300 	ldrd	r2, r3, [r5]
    1c60:	f002 fbc4 	bl	43ec <__aeabi_dmul>
    1c64:	e9cd 010c 	strd	r0, r1, [sp, #48]	; 0x30
    1c68:	3701      	adds	r7, #1
    1c6a:	1064      	asrs	r4, r4, #1
    1c6c:	3508      	adds	r5, #8
    1c6e:	e7f0      	b.n	1c52 <_dtoa_r+0x352>
    1c70:	e9dd 0104 	ldrd	r0, r1, [sp, #16]
    1c74:	e9dd 230c 	ldrd	r2, r3, [sp, #48]	; 0x30
    1c78:	f002 fce2 	bl	4640 <__aeabi_ddiv>
    1c7c:	e01b      	b.n	1cb6 <_dtoa_r+0x3b6>
    1c7e:	f1c9 0400 	rsb	r4, r9, #0
    1c82:	b1dc      	cbz	r4, 1cbc <_dtoa_r+0x3bc>
    1c84:	4b66      	ldr	r3, [pc, #408]	; (1e20 <_dtoa_r+0x520>)
    1c86:	f004 020f 	and.w	r2, r4, #15
    1c8a:	eb03 03c2 	add.w	r3, r3, r2, lsl #3
    1c8e:	e9dd 0112 	ldrd	r0, r1, [sp, #72]	; 0x48
    1c92:	e9d3 2300 	ldrd	r2, r3, [r3]
    1c96:	f002 fba9 	bl	43ec <__aeabi_dmul>
    1c9a:	4d62      	ldr	r5, [pc, #392]	; (1e24 <_dtoa_r+0x524>)
    1c9c:	1124      	asrs	r4, r4, #4
    1c9e:	2702      	movs	r7, #2
    1ca0:	b14c      	cbz	r4, 1cb6 <_dtoa_r+0x3b6>
    1ca2:	07e2      	lsls	r2, r4, #31
    1ca4:	d504      	bpl.n	1cb0 <_dtoa_r+0x3b0>
    1ca6:	e9d5 2300 	ldrd	r2, r3, [r5]
    1caa:	3701      	adds	r7, #1
    1cac:	f002 fb9e 	bl	43ec <__aeabi_dmul>
    1cb0:	1064      	asrs	r4, r4, #1
    1cb2:	3508      	adds	r5, #8
    1cb4:	e7f4      	b.n	1ca0 <_dtoa_r+0x3a0>
    1cb6:	e9cd 0104 	strd	r0, r1, [sp, #16]
    1cba:	e000      	b.n	1cbe <_dtoa_r+0x3be>
    1cbc:	2702      	movs	r7, #2
    1cbe:	9914      	ldr	r1, [sp, #80]	; 0x50
    1cc0:	b1e9      	cbz	r1, 1cfe <_dtoa_r+0x3fe>
    1cc2:	e9dd 4504 	ldrd	r4, r5, [sp, #16]
    1cc6:	2200      	movs	r2, #0
    1cc8:	4620      	mov	r0, r4
    1cca:	4629      	mov	r1, r5
    1ccc:	4b56      	ldr	r3, [pc, #344]	; (1e28 <_dtoa_r+0x528>)
    1cce:	f002 fdff 	bl	48d0 <__aeabi_dcmplt>
    1cd2:	b1c8      	cbz	r0, 1d08 <_dtoa_r+0x408>
    1cd4:	9a07      	ldr	r2, [sp, #28]
    1cd6:	b1e2      	cbz	r2, 1d12 <_dtoa_r+0x412>
    1cd8:	9b0b      	ldr	r3, [sp, #44]	; 0x2c
    1cda:	2b00      	cmp	r3, #0
    1cdc:	f340 80fa 	ble.w	1ed4 <_dtoa_r+0x5d4>
    1ce0:	f109 30ff 	add.w	r0, r9, #4294967295	; 0xffffffff
    1ce4:	9010      	str	r0, [sp, #64]	; 0x40
    1ce6:	4629      	mov	r1, r5
    1ce8:	4620      	mov	r0, r4
    1cea:	2200      	movs	r2, #0
    1cec:	4b4f      	ldr	r3, [pc, #316]	; (1e2c <_dtoa_r+0x52c>)
    1cee:	f002 fb7d 	bl	43ec <__aeabi_dmul>
    1cf2:	e9cd 0104 	strd	r0, r1, [sp, #16]
    1cf6:	990b      	ldr	r1, [sp, #44]	; 0x2c
    1cf8:	3701      	adds	r7, #1
    1cfa:	910c      	str	r1, [sp, #48]	; 0x30
    1cfc:	e00d      	b.n	1d1a <_dtoa_r+0x41a>
    1cfe:	9a07      	ldr	r2, [sp, #28]
    1d00:	f8cd 9040 	str.w	r9, [sp, #64]	; 0x40
    1d04:	920c      	str	r2, [sp, #48]	; 0x30
    1d06:	e008      	b.n	1d1a <_dtoa_r+0x41a>
    1d08:	9b07      	ldr	r3, [sp, #28]
    1d0a:	f8cd 9040 	str.w	r9, [sp, #64]	; 0x40
    1d0e:	930c      	str	r3, [sp, #48]	; 0x30
    1d10:	e003      	b.n	1d1a <_dtoa_r+0x41a>
    1d12:	9807      	ldr	r0, [sp, #28]
    1d14:	f8cd 9040 	str.w	r9, [sp, #64]	; 0x40
    1d18:	900c      	str	r0, [sp, #48]	; 0x30
    1d1a:	4638      	mov	r0, r7
    1d1c:	f002 fb00 	bl	4320 <__aeabi_i2d>
    1d20:	e9dd 2304 	ldrd	r2, r3, [sp, #16]
    1d24:	f002 fb62 	bl	43ec <__aeabi_dmul>
    1d28:	2200      	movs	r2, #0
    1d2a:	4b41      	ldr	r3, [pc, #260]	; (1e30 <_dtoa_r+0x530>)
    1d2c:	f002 f9ac 	bl	4088 <__adddf3>
    1d30:	9f0c      	ldr	r7, [sp, #48]	; 0x30
    1d32:	4604      	mov	r4, r0
    1d34:	f1a1 7550 	sub.w	r5, r1, #54525952	; 0x3400000
    1d38:	b9cf      	cbnz	r7, 1d6e <_dtoa_r+0x46e>
    1d3a:	2200      	movs	r2, #0
    1d3c:	4b3d      	ldr	r3, [pc, #244]	; (1e34 <_dtoa_r+0x534>)
    1d3e:	e9dd 0104 	ldrd	r0, r1, [sp, #16]
    1d42:	f002 f99f 	bl	4084 <__aeabi_dsub>
    1d46:	4622      	mov	r2, r4
    1d48:	462b      	mov	r3, r5
    1d4a:	4606      	mov	r6, r0
    1d4c:	460f      	mov	r7, r1
    1d4e:	f002 fddd 	bl	490c <__aeabi_dcmpgt>
    1d52:	2800      	cmp	r0, #0
    1d54:	f040 8253 	bne.w	21fe <_dtoa_r+0x8fe>
    1d58:	4622      	mov	r2, r4
    1d5a:	f105 4300 	add.w	r3, r5, #2147483648	; 0x80000000
    1d5e:	4630      	mov	r0, r6
    1d60:	4639      	mov	r1, r7
    1d62:	f002 fdb5 	bl	48d0 <__aeabi_dcmplt>
    1d66:	2800      	cmp	r0, #0
    1d68:	f040 823f 	bne.w	21ea <_dtoa_r+0x8ea>
    1d6c:	e0b2      	b.n	1ed4 <_dtoa_r+0x5d4>
    1d6e:	9f0c      	ldr	r7, [sp, #48]	; 0x30
    1d70:	4b2b      	ldr	r3, [pc, #172]	; (1e20 <_dtoa_r+0x520>)
    1d72:	1e7a      	subs	r2, r7, #1
    1d74:	9f0f      	ldr	r7, [sp, #60]	; 0x3c
    1d76:	eb03 03c2 	add.w	r3, r3, r2, lsl #3
    1d7a:	2f00      	cmp	r7, #0
    1d7c:	d05e      	beq.n	1e3c <_dtoa_r+0x53c>
    1d7e:	e9d3 2300 	ldrd	r2, r3, [r3]
    1d82:	2000      	movs	r0, #0
    1d84:	492c      	ldr	r1, [pc, #176]	; (1e38 <_dtoa_r+0x538>)
    1d86:	f002 fc5b 	bl	4640 <__aeabi_ddiv>
    1d8a:	4622      	mov	r2, r4
    1d8c:	462b      	mov	r3, r5
    1d8e:	f002 f979 	bl	4084 <__aeabi_dsub>
    1d92:	e9dd 6704 	ldrd	r6, r7, [sp, #16]
    1d96:	f8dd 8028 	ldr.w	r8, [sp, #40]	; 0x28
    1d9a:	4604      	mov	r4, r0
    1d9c:	460d      	mov	r5, r1
    1d9e:	4639      	mov	r1, r7
    1da0:	4630      	mov	r0, r6
    1da2:	f002 fdbd 	bl	4920 <__aeabi_d2iz>
    1da6:	9002      	str	r0, [sp, #8]
    1da8:	f002 faba 	bl	4320 <__aeabi_i2d>
    1dac:	4602      	mov	r2, r0
    1dae:	460b      	mov	r3, r1
    1db0:	4630      	mov	r0, r6
    1db2:	4639      	mov	r1, r7
    1db4:	f002 f966 	bl	4084 <__aeabi_dsub>
    1db8:	f8dd c008 	ldr.w	ip, [sp, #8]
    1dbc:	4622      	mov	r2, r4
    1dbe:	f10c 0330 	add.w	r3, ip, #48	; 0x30
    1dc2:	f808 3b01 	strb.w	r3, [r8], #1
    1dc6:	462b      	mov	r3, r5
    1dc8:	4606      	mov	r6, r0
    1dca:	460f      	mov	r7, r1
    1dcc:	f002 fd80 	bl	48d0 <__aeabi_dcmplt>
    1dd0:	2800      	cmp	r0, #0
    1dd2:	f040 833b 	bne.w	244c <_dtoa_r+0xb4c>
    1dd6:	4632      	mov	r2, r6
    1dd8:	463b      	mov	r3, r7
    1dda:	2000      	movs	r0, #0
    1ddc:	4912      	ldr	r1, [pc, #72]	; (1e28 <_dtoa_r+0x528>)
    1dde:	f002 f951 	bl	4084 <__aeabi_dsub>
    1de2:	4622      	mov	r2, r4
    1de4:	462b      	mov	r3, r5
    1de6:	f002 fd73 	bl	48d0 <__aeabi_dcmplt>
    1dea:	2800      	cmp	r0, #0
    1dec:	f040 80d5 	bne.w	1f9a <_dtoa_r+0x69a>
    1df0:	980a      	ldr	r0, [sp, #40]	; 0x28
    1df2:	990c      	ldr	r1, [sp, #48]	; 0x30
    1df4:	ebc0 0308 	rsb	r3, r0, r8
    1df8:	428b      	cmp	r3, r1
    1dfa:	da6b      	bge.n	1ed4 <_dtoa_r+0x5d4>
    1dfc:	4620      	mov	r0, r4
    1dfe:	4629      	mov	r1, r5
    1e00:	2200      	movs	r2, #0
    1e02:	4b0a      	ldr	r3, [pc, #40]	; (1e2c <_dtoa_r+0x52c>)
    1e04:	f002 faf2 	bl	43ec <__aeabi_dmul>
    1e08:	2200      	movs	r2, #0
    1e0a:	4604      	mov	r4, r0
    1e0c:	460d      	mov	r5, r1
    1e0e:	4630      	mov	r0, r6
    1e10:	4639      	mov	r1, r7
    1e12:	4b06      	ldr	r3, [pc, #24]	; (1e2c <_dtoa_r+0x52c>)
    1e14:	f002 faea 	bl	43ec <__aeabi_dmul>
    1e18:	4606      	mov	r6, r0
    1e1a:	460f      	mov	r7, r1
    1e1c:	e7bf      	b.n	1d9e <_dtoa_r+0x49e>
    1e1e:	bf00      	nop
    1e20:	00004c60 	andeq	r4, r0, r0, ror #24
    1e24:	00004d28 	andeq	r4, r0, r8, lsr #26
    1e28:	3ff00000 	svccc	0x00f00000	; IMB
    1e2c:	40240000 	eormi	r0, r4, r0
    1e30:	401c0000 	andsmi	r0, ip, r0
    1e34:	40140000 	andsmi	r0, r4, r0
    1e38:	3fe00000 	svccc	0x00e00000
    1e3c:	4622      	mov	r2, r4
    1e3e:	e9d3 0100 	ldrd	r0, r1, [r3]
    1e42:	462b      	mov	r3, r5
    1e44:	f002 fad2 	bl	43ec <__aeabi_dmul>
    1e48:	e9dd 6704 	ldrd	r6, r7, [sp, #16]
    1e4c:	f8dd 8028 	ldr.w	r8, [sp, #40]	; 0x28
    1e50:	9a0c      	ldr	r2, [sp, #48]	; 0x30
    1e52:	e9cd 0116 	strd	r0, r1, [sp, #88]	; 0x58
    1e56:	9c0a      	ldr	r4, [sp, #40]	; 0x28
    1e58:	4490      	add	r8, r2
    1e5a:	4639      	mov	r1, r7
    1e5c:	4630      	mov	r0, r6
    1e5e:	f002 fd5f 	bl	4920 <__aeabi_d2iz>
    1e62:	4605      	mov	r5, r0
    1e64:	f002 fa5c 	bl	4320 <__aeabi_i2d>
    1e68:	4602      	mov	r2, r0
    1e6a:	460b      	mov	r3, r1
    1e6c:	4630      	mov	r0, r6
    1e6e:	4639      	mov	r1, r7
    1e70:	f002 f908 	bl	4084 <__aeabi_dsub>
    1e74:	3530      	adds	r5, #48	; 0x30
    1e76:	f804 5b01 	strb.w	r5, [r4], #1
    1e7a:	4544      	cmp	r4, r8
    1e7c:	4606      	mov	r6, r0
    1e7e:	460f      	mov	r7, r1
    1e80:	d121      	bne.n	1ec6 <_dtoa_r+0x5c6>
    1e82:	2200      	movs	r2, #0
    1e84:	4b87      	ldr	r3, [pc, #540]	; (20a4 <_dtoa_r+0x7a4>)
    1e86:	e9dd 0116 	ldrd	r0, r1, [sp, #88]	; 0x58
    1e8a:	f002 f8fd 	bl	4088 <__adddf3>
    1e8e:	4602      	mov	r2, r0
    1e90:	460b      	mov	r3, r1
    1e92:	4630      	mov	r0, r6
    1e94:	4639      	mov	r1, r7
    1e96:	f002 fd39 	bl	490c <__aeabi_dcmpgt>
    1e9a:	2800      	cmp	r0, #0
    1e9c:	d17d      	bne.n	1f9a <_dtoa_r+0x69a>
    1e9e:	e9dd 2316 	ldrd	r2, r3, [sp, #88]	; 0x58
    1ea2:	2000      	movs	r0, #0
    1ea4:	497f      	ldr	r1, [pc, #508]	; (20a4 <_dtoa_r+0x7a4>)
    1ea6:	f002 f8ed 	bl	4084 <__aeabi_dsub>
    1eaa:	4602      	mov	r2, r0
    1eac:	460b      	mov	r3, r1
    1eae:	4630      	mov	r0, r6
    1eb0:	4639      	mov	r1, r7
    1eb2:	f002 fd0d 	bl	48d0 <__aeabi_dcmplt>
    1eb6:	b168      	cbz	r0, 1ed4 <_dtoa_r+0x5d4>
    1eb8:	46a0      	mov	r8, r4
    1eba:	f818 3c01 	ldrb.w	r3, [r8, #-1]
    1ebe:	3c01      	subs	r4, #1
    1ec0:	2b30      	cmp	r3, #48	; 0x30
    1ec2:	d0f9      	beq.n	1eb8 <_dtoa_r+0x5b8>
    1ec4:	e2c2      	b.n	244c <_dtoa_r+0xb4c>
    1ec6:	2200      	movs	r2, #0
    1ec8:	4b77      	ldr	r3, [pc, #476]	; (20a8 <_dtoa_r+0x7a8>)
    1eca:	f002 fa8f 	bl	43ec <__aeabi_dmul>
    1ece:	4606      	mov	r6, r0
    1ed0:	460f      	mov	r7, r1
    1ed2:	e7c2      	b.n	1e5a <_dtoa_r+0x55a>
    1ed4:	e9dd 0112 	ldrd	r0, r1, [sp, #72]	; 0x48
    1ed8:	e9cd 0104 	strd	r0, r1, [sp, #16]
    1edc:	9b19      	ldr	r3, [sp, #100]	; 0x64
    1ede:	2b00      	cmp	r3, #0
    1ee0:	db7c      	blt.n	1fdc <_dtoa_r+0x6dc>
    1ee2:	f1b9 0f0e 	cmp.w	r9, #14
    1ee6:	dc79      	bgt.n	1fdc <_dtoa_r+0x6dc>
    1ee8:	4b70      	ldr	r3, [pc, #448]	; (20ac <_dtoa_r+0x7ac>)
    1eea:	9f25      	ldr	r7, [sp, #148]	; 0x94
    1eec:	eb03 03c9 	add.w	r3, r3, r9, lsl #3
    1ef0:	2f00      	cmp	r7, #0
    1ef2:	e9d3 4500 	ldrd	r4, r5, [r3]
    1ef6:	da14      	bge.n	1f22 <_dtoa_r+0x622>
    1ef8:	9f07      	ldr	r7, [sp, #28]
    1efa:	2f00      	cmp	r7, #0
    1efc:	dc11      	bgt.n	1f22 <_dtoa_r+0x622>
    1efe:	f040 8176 	bne.w	21ee <_dtoa_r+0x8ee>
    1f02:	4620      	mov	r0, r4
    1f04:	4629      	mov	r1, r5
    1f06:	2200      	movs	r2, #0
    1f08:	4b69      	ldr	r3, [pc, #420]	; (20b0 <_dtoa_r+0x7b0>)
    1f0a:	f002 fa6f 	bl	43ec <__aeabi_dmul>
    1f0e:	e9dd 2304 	ldrd	r2, r3, [sp, #16]
    1f12:	f002 fcf1 	bl	48f8 <__aeabi_dcmpge>
    1f16:	9d07      	ldr	r5, [sp, #28]
    1f18:	462c      	mov	r4, r5
    1f1a:	2800      	cmp	r0, #0
    1f1c:	f040 8169 	bne.w	21f2 <_dtoa_r+0x8f2>
    1f20:	e171      	b.n	2206 <_dtoa_r+0x906>
    1f22:	f8dd 8028 	ldr.w	r8, [sp, #40]	; 0x28
    1f26:	e9dd 6704 	ldrd	r6, r7, [sp, #16]
    1f2a:	4622      	mov	r2, r4
    1f2c:	462b      	mov	r3, r5
    1f2e:	4630      	mov	r0, r6
    1f30:	4639      	mov	r1, r7
    1f32:	f002 fb85 	bl	4640 <__aeabi_ddiv>
    1f36:	f002 fcf3 	bl	4920 <__aeabi_d2iz>
    1f3a:	9004      	str	r0, [sp, #16]
    1f3c:	f002 f9f0 	bl	4320 <__aeabi_i2d>
    1f40:	4622      	mov	r2, r4
    1f42:	462b      	mov	r3, r5
    1f44:	f002 fa52 	bl	43ec <__aeabi_dmul>
    1f48:	4602      	mov	r2, r0
    1f4a:	460b      	mov	r3, r1
    1f4c:	4630      	mov	r0, r6
    1f4e:	4639      	mov	r1, r7
    1f50:	f002 f898 	bl	4084 <__aeabi_dsub>
    1f54:	9f04      	ldr	r7, [sp, #16]
    1f56:	4602      	mov	r2, r0
    1f58:	f107 0630 	add.w	r6, r7, #48	; 0x30
    1f5c:	9f0a      	ldr	r7, [sp, #40]	; 0x28
    1f5e:	f808 6b01 	strb.w	r6, [r8], #1
    1f62:	ebc7 0608 	rsb	r6, r7, r8
    1f66:	9f07      	ldr	r7, [sp, #28]
    1f68:	460b      	mov	r3, r1
    1f6a:	42be      	cmp	r6, r7
    1f6c:	d129      	bne.n	1fc2 <_dtoa_r+0x6c2>
    1f6e:	f002 f88b 	bl	4088 <__adddf3>
    1f72:	4622      	mov	r2, r4
    1f74:	462b      	mov	r3, r5
    1f76:	4606      	mov	r6, r0
    1f78:	460f      	mov	r7, r1
    1f7a:	f002 fcc7 	bl	490c <__aeabi_dcmpgt>
    1f7e:	b970      	cbnz	r0, 1f9e <_dtoa_r+0x69e>
    1f80:	4630      	mov	r0, r6
    1f82:	4639      	mov	r1, r7
    1f84:	4622      	mov	r2, r4
    1f86:	462b      	mov	r3, r5
    1f88:	f002 fc98 	bl	48bc <__aeabi_dcmpeq>
    1f8c:	2800      	cmp	r0, #0
    1f8e:	f000 825f 	beq.w	2450 <_dtoa_r+0xb50>
    1f92:	9f04      	ldr	r7, [sp, #16]
    1f94:	07fb      	lsls	r3, r7, #31
    1f96:	d402      	bmi.n	1f9e <_dtoa_r+0x69e>
    1f98:	e25a      	b.n	2450 <_dtoa_r+0xb50>
    1f9a:	f8dd 9040 	ldr.w	r9, [sp, #64]	; 0x40
    1f9e:	4643      	mov	r3, r8
    1fa0:	4698      	mov	r8, r3
    1fa2:	f818 2c01 	ldrb.w	r2, [r8, #-1]
    1fa6:	3b01      	subs	r3, #1
    1fa8:	2a39      	cmp	r2, #57	; 0x39
    1faa:	d106      	bne.n	1fba <_dtoa_r+0x6ba>
    1fac:	9f0a      	ldr	r7, [sp, #40]	; 0x28
    1fae:	429f      	cmp	r7, r3
    1fb0:	d1f6      	bne.n	1fa0 <_dtoa_r+0x6a0>
    1fb2:	2230      	movs	r2, #48	; 0x30
    1fb4:	f109 0901 	add.w	r9, r9, #1
    1fb8:	703a      	strb	r2, [r7, #0]
    1fba:	781a      	ldrb	r2, [r3, #0]
    1fbc:	3201      	adds	r2, #1
    1fbe:	701a      	strb	r2, [r3, #0]
    1fc0:	e246      	b.n	2450 <_dtoa_r+0xb50>
    1fc2:	2200      	movs	r2, #0
    1fc4:	4b38      	ldr	r3, [pc, #224]	; (20a8 <_dtoa_r+0x7a8>)
    1fc6:	f002 fa11 	bl	43ec <__aeabi_dmul>
    1fca:	2200      	movs	r2, #0
    1fcc:	2300      	movs	r3, #0
    1fce:	4606      	mov	r6, r0
    1fd0:	460f      	mov	r7, r1
    1fd2:	f002 fc73 	bl	48bc <__aeabi_dcmpeq>
    1fd6:	2800      	cmp	r0, #0
    1fd8:	d0a7      	beq.n	1f2a <_dtoa_r+0x62a>
    1fda:	e239      	b.n	2450 <_dtoa_r+0xb50>
    1fdc:	9f0f      	ldr	r7, [sp, #60]	; 0x3c
    1fde:	2f00      	cmp	r7, #0
    1fe0:	d030      	beq.n	2044 <_dtoa_r+0x744>
    1fe2:	9f24      	ldr	r7, [sp, #144]	; 0x90
    1fe4:	2f01      	cmp	r7, #1
    1fe6:	dc0a      	bgt.n	1ffe <_dtoa_r+0x6fe>
    1fe8:	9f15      	ldr	r7, [sp, #84]	; 0x54
    1fea:	b117      	cbz	r7, 1ff2 <_dtoa_r+0x6f2>
    1fec:	f203 4333 	addw	r3, r3, #1075	; 0x433
    1ff0:	e002      	b.n	1ff8 <_dtoa_r+0x6f8>
    1ff2:	9b18      	ldr	r3, [sp, #96]	; 0x60
    1ff4:	f1c3 0336 	rsb	r3, r3, #54	; 0x36
    1ff8:	9d0e      	ldr	r5, [sp, #56]	; 0x38
    1ffa:	9e08      	ldr	r6, [sp, #32]
    1ffc:	e016      	b.n	202c <_dtoa_r+0x72c>
    1ffe:	9f07      	ldr	r7, [sp, #28]
    2000:	1e7d      	subs	r5, r7, #1
    2002:	9f0e      	ldr	r7, [sp, #56]	; 0x38
    2004:	42af      	cmp	r7, r5
    2006:	db01      	blt.n	200c <_dtoa_r+0x70c>
    2008:	1b7d      	subs	r5, r7, r5
    200a:	e006      	b.n	201a <_dtoa_r+0x71a>
    200c:	9f0e      	ldr	r7, [sp, #56]	; 0x38
    200e:	950e      	str	r5, [sp, #56]	; 0x38
    2010:	1beb      	subs	r3, r5, r7
    2012:	9f11      	ldr	r7, [sp, #68]	; 0x44
    2014:	2500      	movs	r5, #0
    2016:	441f      	add	r7, r3
    2018:	9711      	str	r7, [sp, #68]	; 0x44
    201a:	9f07      	ldr	r7, [sp, #28]
    201c:	2f00      	cmp	r7, #0
    201e:	da03      	bge.n	2028 <_dtoa_r+0x728>
    2020:	9808      	ldr	r0, [sp, #32]
    2022:	2300      	movs	r3, #0
    2024:	1bc6      	subs	r6, r0, r7
    2026:	e001      	b.n	202c <_dtoa_r+0x72c>
    2028:	9e08      	ldr	r6, [sp, #32]
    202a:	9b07      	ldr	r3, [sp, #28]
    202c:	9f08      	ldr	r7, [sp, #32]
    202e:	4650      	mov	r0, sl
    2030:	441f      	add	r7, r3
    2032:	9708      	str	r7, [sp, #32]
    2034:	9f09      	ldr	r7, [sp, #36]	; 0x24
    2036:	2101      	movs	r1, #1
    2038:	441f      	add	r7, r3
    203a:	9709      	str	r7, [sp, #36]	; 0x24
    203c:	f000 fb62 	bl	2704 <__i2b>
    2040:	4604      	mov	r4, r0
    2042:	e002      	b.n	204a <_dtoa_r+0x74a>
    2044:	9d0e      	ldr	r5, [sp, #56]	; 0x38
    2046:	9e08      	ldr	r6, [sp, #32]
    2048:	9c0f      	ldr	r4, [sp, #60]	; 0x3c
    204a:	b16e      	cbz	r6, 2068 <_dtoa_r+0x768>
    204c:	9f09      	ldr	r7, [sp, #36]	; 0x24
    204e:	2f00      	cmp	r7, #0
    2050:	dd0a      	ble.n	2068 <_dtoa_r+0x768>
    2052:	463b      	mov	r3, r7
    2054:	9f08      	ldr	r7, [sp, #32]
    2056:	42b3      	cmp	r3, r6
    2058:	bfa8      	it	ge
    205a:	4633      	movge	r3, r6
    205c:	1aff      	subs	r7, r7, r3
    205e:	9708      	str	r7, [sp, #32]
    2060:	9f09      	ldr	r7, [sp, #36]	; 0x24
    2062:	1af6      	subs	r6, r6, r3
    2064:	1aff      	subs	r7, r7, r3
    2066:	9709      	str	r7, [sp, #36]	; 0x24
    2068:	9f0e      	ldr	r7, [sp, #56]	; 0x38
    206a:	2f00      	cmp	r7, #0
    206c:	dd28      	ble.n	20c0 <_dtoa_r+0x7c0>
    206e:	9f0f      	ldr	r7, [sp, #60]	; 0x3c
    2070:	b307      	cbz	r7, 20b4 <_dtoa_r+0x7b4>
    2072:	2d00      	cmp	r5, #0
    2074:	dd10      	ble.n	2098 <_dtoa_r+0x798>
    2076:	4621      	mov	r1, r4
    2078:	462a      	mov	r2, r5
    207a:	4650      	mov	r0, sl
    207c:	f000 fbe4 	bl	2848 <__pow5mult>
    2080:	4604      	mov	r4, r0
    2082:	465a      	mov	r2, fp
    2084:	4621      	mov	r1, r4
    2086:	4650      	mov	r0, sl
    2088:	f000 fb45 	bl	2716 <__multiply>
    208c:	4659      	mov	r1, fp
    208e:	4607      	mov	r7, r0
    2090:	4650      	mov	r0, sl
    2092:	f000 fa57 	bl	2544 <_Bfree>
    2096:	46bb      	mov	fp, r7
    2098:	9f0e      	ldr	r7, [sp, #56]	; 0x38
    209a:	1b7a      	subs	r2, r7, r5
    209c:	d010      	beq.n	20c0 <_dtoa_r+0x7c0>
    209e:	4650      	mov	r0, sl
    20a0:	4659      	mov	r1, fp
    20a2:	e00a      	b.n	20ba <_dtoa_r+0x7ba>
    20a4:	3fe00000 	svccc	0x00e00000
    20a8:	40240000 	eormi	r0, r4, r0
    20ac:	00004c60 	andeq	r4, r0, r0, ror #24
    20b0:	40140000 	andsmi	r0, r4, r0
    20b4:	9a0e      	ldr	r2, [sp, #56]	; 0x38
    20b6:	4650      	mov	r0, sl
    20b8:	4659      	mov	r1, fp
    20ba:	f000 fbc5 	bl	2848 <__pow5mult>
    20be:	4683      	mov	fp, r0
    20c0:	4650      	mov	r0, sl
    20c2:	2101      	movs	r1, #1
    20c4:	f000 fb1e 	bl	2704 <__i2b>
    20c8:	9f11      	ldr	r7, [sp, #68]	; 0x44
    20ca:	4605      	mov	r5, r0
    20cc:	2f00      	cmp	r7, #0
    20ce:	dd05      	ble.n	20dc <_dtoa_r+0x7dc>
    20d0:	4629      	mov	r1, r5
    20d2:	4650      	mov	r0, sl
    20d4:	463a      	mov	r2, r7
    20d6:	f000 fbb7 	bl	2848 <__pow5mult>
    20da:	4605      	mov	r5, r0
    20dc:	9f24      	ldr	r7, [sp, #144]	; 0x90
    20de:	2f01      	cmp	r7, #1
    20e0:	dc12      	bgt.n	2108 <_dtoa_r+0x808>
    20e2:	9804      	ldr	r0, [sp, #16]
    20e4:	b980      	cbnz	r0, 2108 <_dtoa_r+0x808>
    20e6:	9905      	ldr	r1, [sp, #20]
    20e8:	f3c1 0313 	ubfx	r3, r1, #0, #20
    20ec:	b973      	cbnz	r3, 210c <_dtoa_r+0x80c>
    20ee:	f021 4700 	bic.w	r7, r1, #2147483648	; 0x80000000
    20f2:	0d3f      	lsrs	r7, r7, #20
    20f4:	053f      	lsls	r7, r7, #20
    20f6:	b157      	cbz	r7, 210e <_dtoa_r+0x80e>
    20f8:	9f08      	ldr	r7, [sp, #32]
    20fa:	3701      	adds	r7, #1
    20fc:	9708      	str	r7, [sp, #32]
    20fe:	9f09      	ldr	r7, [sp, #36]	; 0x24
    2100:	3701      	adds	r7, #1
    2102:	9709      	str	r7, [sp, #36]	; 0x24
    2104:	2701      	movs	r7, #1
    2106:	e002      	b.n	210e <_dtoa_r+0x80e>
    2108:	2700      	movs	r7, #0
    210a:	e000      	b.n	210e <_dtoa_r+0x80e>
    210c:	9f04      	ldr	r7, [sp, #16]
    210e:	9811      	ldr	r0, [sp, #68]	; 0x44
    2110:	b140      	cbz	r0, 2124 <_dtoa_r+0x824>
    2112:	692b      	ldr	r3, [r5, #16]
    2114:	eb05 0383 	add.w	r3, r5, r3, lsl #2
    2118:	6918      	ldr	r0, [r3, #16]
    211a:	f000 faa6 	bl	266a <__hi0bits>
    211e:	f1c0 0020 	rsb	r0, r0, #32
    2122:	e000      	b.n	2126 <_dtoa_r+0x826>
    2124:	2001      	movs	r0, #1
    2126:	9b09      	ldr	r3, [sp, #36]	; 0x24
    2128:	4403      	add	r3, r0
    212a:	f013 031f 	ands.w	r3, r3, #31
    212e:	d00f      	beq.n	2150 <_dtoa_r+0x850>
    2130:	f1c3 0220 	rsb	r2, r3, #32
    2134:	2a04      	cmp	r2, #4
    2136:	dd09      	ble.n	214c <_dtoa_r+0x84c>
    2138:	9908      	ldr	r1, [sp, #32]
    213a:	9a09      	ldr	r2, [sp, #36]	; 0x24
    213c:	f1c3 031c 	rsb	r3, r3, #28
    2140:	4419      	add	r1, r3
    2142:	441a      	add	r2, r3
    2144:	9108      	str	r1, [sp, #32]
    2146:	441e      	add	r6, r3
    2148:	9209      	str	r2, [sp, #36]	; 0x24
    214a:	e009      	b.n	2160 <_dtoa_r+0x860>
    214c:	d008      	beq.n	2160 <_dtoa_r+0x860>
    214e:	4613      	mov	r3, r2
    2150:	9808      	ldr	r0, [sp, #32]
    2152:	9909      	ldr	r1, [sp, #36]	; 0x24
    2154:	331c      	adds	r3, #28
    2156:	4418      	add	r0, r3
    2158:	4419      	add	r1, r3
    215a:	9008      	str	r0, [sp, #32]
    215c:	441e      	add	r6, r3
    215e:	9109      	str	r1, [sp, #36]	; 0x24
    2160:	9a08      	ldr	r2, [sp, #32]
    2162:	2a00      	cmp	r2, #0
    2164:	dd04      	ble.n	2170 <_dtoa_r+0x870>
    2166:	4659      	mov	r1, fp
    2168:	4650      	mov	r0, sl
    216a:	f000 fbbb 	bl	28e4 <__lshift>
    216e:	4683      	mov	fp, r0
    2170:	9b09      	ldr	r3, [sp, #36]	; 0x24
    2172:	2b00      	cmp	r3, #0
    2174:	dd05      	ble.n	2182 <_dtoa_r+0x882>
    2176:	4629      	mov	r1, r5
    2178:	4650      	mov	r0, sl
    217a:	461a      	mov	r2, r3
    217c:	f000 fbb2 	bl	28e4 <__lshift>
    2180:	4605      	mov	r5, r0
    2182:	9814      	ldr	r0, [sp, #80]	; 0x50
    2184:	b1e0      	cbz	r0, 21c0 <_dtoa_r+0x8c0>
    2186:	4658      	mov	r0, fp
    2188:	4629      	mov	r1, r5
    218a:	f000 fbfe 	bl	298a <__mcmp>
    218e:	2800      	cmp	r0, #0
    2190:	da16      	bge.n	21c0 <_dtoa_r+0x8c0>
    2192:	4659      	mov	r1, fp
    2194:	4650      	mov	r0, sl
    2196:	220a      	movs	r2, #10
    2198:	2300      	movs	r3, #0
    219a:	f000 f9ea 	bl	2572 <__multadd>
    219e:	990f      	ldr	r1, [sp, #60]	; 0x3c
    21a0:	f109 39ff 	add.w	r9, r9, #4294967295	; 0xffffffff
    21a4:	4683      	mov	fp, r0
    21a6:	b149      	cbz	r1, 21bc <_dtoa_r+0x8bc>
    21a8:	4621      	mov	r1, r4
    21aa:	220a      	movs	r2, #10
    21ac:	4650      	mov	r0, sl
    21ae:	2300      	movs	r3, #0
    21b0:	f000 f9df 	bl	2572 <__multadd>
    21b4:	9a0b      	ldr	r2, [sp, #44]	; 0x2c
    21b6:	4604      	mov	r4, r0
    21b8:	9207      	str	r2, [sp, #28]
    21ba:	e001      	b.n	21c0 <_dtoa_r+0x8c0>
    21bc:	9b0b      	ldr	r3, [sp, #44]	; 0x2c
    21be:	9307      	str	r3, [sp, #28]
    21c0:	9807      	ldr	r0, [sp, #28]
    21c2:	2800      	cmp	r0, #0
    21c4:	dc29      	bgt.n	221a <_dtoa_r+0x91a>
    21c6:	9924      	ldr	r1, [sp, #144]	; 0x90
    21c8:	2902      	cmp	r1, #2
    21ca:	dd26      	ble.n	221a <_dtoa_r+0x91a>
    21cc:	b988      	cbnz	r0, 21f2 <_dtoa_r+0x8f2>
    21ce:	4629      	mov	r1, r5
    21d0:	2205      	movs	r2, #5
    21d2:	9b07      	ldr	r3, [sp, #28]
    21d4:	4650      	mov	r0, sl
    21d6:	f000 f9cc 	bl	2572 <__multadd>
    21da:	4605      	mov	r5, r0
    21dc:	4629      	mov	r1, r5
    21de:	4658      	mov	r0, fp
    21e0:	f000 fbd3 	bl	298a <__mcmp>
    21e4:	2800      	cmp	r0, #0
    21e6:	dc0e      	bgt.n	2206 <_dtoa_r+0x906>
    21e8:	e003      	b.n	21f2 <_dtoa_r+0x8f2>
    21ea:	9d0c      	ldr	r5, [sp, #48]	; 0x30
    21ec:	e000      	b.n	21f0 <_dtoa_r+0x8f0>
    21ee:	2500      	movs	r5, #0
    21f0:	462c      	mov	r4, r5
    21f2:	9f25      	ldr	r7, [sp, #148]	; 0x94
    21f4:	f8dd 8028 	ldr.w	r8, [sp, #40]	; 0x28
    21f8:	ea6f 0907 	mvn.w	r9, r7
    21fc:	e00a      	b.n	2214 <_dtoa_r+0x914>
    21fe:	9d0c      	ldr	r5, [sp, #48]	; 0x30
    2200:	f8dd 9040 	ldr.w	r9, [sp, #64]	; 0x40
    2204:	462c      	mov	r4, r5
    2206:	9f0a      	ldr	r7, [sp, #40]	; 0x28
    2208:	2331      	movs	r3, #49	; 0x31
    220a:	f107 0801 	add.w	r8, r7, #1
    220e:	703b      	strb	r3, [r7, #0]
    2210:	f109 0901 	add.w	r9, r9, #1
    2214:	4627      	mov	r7, r4
    2216:	2400      	movs	r4, #0
    2218:	e107      	b.n	242a <_dtoa_r+0xb2a>
    221a:	980f      	ldr	r0, [sp, #60]	; 0x3c
    221c:	2800      	cmp	r0, #0
    221e:	f000 80bb 	beq.w	2398 <_dtoa_r+0xa98>
    2222:	2e00      	cmp	r6, #0
    2224:	dd05      	ble.n	2232 <_dtoa_r+0x932>
    2226:	4621      	mov	r1, r4
    2228:	4650      	mov	r0, sl
    222a:	4632      	mov	r2, r6
    222c:	f000 fb5a 	bl	28e4 <__lshift>
    2230:	4604      	mov	r4, r0
    2232:	b19f      	cbz	r7, 225c <_dtoa_r+0x95c>
    2234:	6861      	ldr	r1, [r4, #4]
    2236:	4650      	mov	r0, sl
    2238:	f000 f94f 	bl	24da <_Balloc>
    223c:	6922      	ldr	r2, [r4, #16]
    223e:	4606      	mov	r6, r0
    2240:	3202      	adds	r2, #2
    2242:	f104 010c 	add.w	r1, r4, #12
    2246:	0092      	lsls	r2, r2, #2
    2248:	300c      	adds	r0, #12
    224a:	f7fe f9ed 	bl	628 <memcpy>
    224e:	4650      	mov	r0, sl
    2250:	4631      	mov	r1, r6
    2252:	2201      	movs	r2, #1
    2254:	f000 fb46 	bl	28e4 <__lshift>
    2258:	4607      	mov	r7, r0
    225a:	e000      	b.n	225e <_dtoa_r+0x95e>
    225c:	4627      	mov	r7, r4
    225e:	9e0a      	ldr	r6, [sp, #40]	; 0x28
    2260:	4629      	mov	r1, r5
    2262:	4658      	mov	r0, fp
    2264:	f7ff faba 	bl	17dc <quorem>
    2268:	4621      	mov	r1, r4
    226a:	f100 0c30 	add.w	ip, r0, #48	; 0x30
    226e:	4680      	mov	r8, r0
    2270:	4658      	mov	r0, fp
    2272:	f8cd c008 	str.w	ip, [sp, #8]
    2276:	f000 fb88 	bl	298a <__mcmp>
    227a:	463a      	mov	r2, r7
    227c:	9008      	str	r0, [sp, #32]
    227e:	4629      	mov	r1, r5
    2280:	4650      	mov	r0, sl
    2282:	f000 fb9f 	bl	29c4 <__mdiff>
    2286:	68c3      	ldr	r3, [r0, #12]
    2288:	4602      	mov	r2, r0
    228a:	f8dd c008 	ldr.w	ip, [sp, #8]
    228e:	b94b      	cbnz	r3, 22a4 <_dtoa_r+0x9a4>
    2290:	4611      	mov	r1, r2
    2292:	4658      	mov	r0, fp
    2294:	9203      	str	r2, [sp, #12]
    2296:	f000 fb78 	bl	298a <__mcmp>
    229a:	9a03      	ldr	r2, [sp, #12]
    229c:	4603      	mov	r3, r0
    229e:	f8dd c008 	ldr.w	ip, [sp, #8]
    22a2:	e000      	b.n	22a6 <_dtoa_r+0x9a6>
    22a4:	2301      	movs	r3, #1
    22a6:	4650      	mov	r0, sl
    22a8:	4611      	mov	r1, r2
    22aa:	9303      	str	r3, [sp, #12]
    22ac:	f8cd c008 	str.w	ip, [sp, #8]
    22b0:	f000 f948 	bl	2544 <_Bfree>
    22b4:	9b03      	ldr	r3, [sp, #12]
    22b6:	f8dd c008 	ldr.w	ip, [sp, #8]
    22ba:	b963      	cbnz	r3, 22d6 <_dtoa_r+0x9d6>
    22bc:	9924      	ldr	r1, [sp, #144]	; 0x90
    22be:	b951      	cbnz	r1, 22d6 <_dtoa_r+0x9d6>
    22c0:	9804      	ldr	r0, [sp, #16]
    22c2:	f000 0201 	and.w	r2, r0, #1
    22c6:	b932      	cbnz	r2, 22d6 <_dtoa_r+0x9d6>
    22c8:	f1bc 0f39 	cmp.w	ip, #57	; 0x39
    22cc:	d035      	beq.n	233a <_dtoa_r+0xa3a>
    22ce:	9b08      	ldr	r3, [sp, #32]
    22d0:	2b00      	cmp	r3, #0
    22d2:	dc24      	bgt.n	231e <_dtoa_r+0xa1e>
    22d4:	e025      	b.n	2322 <_dtoa_r+0xa22>
    22d6:	9808      	ldr	r0, [sp, #32]
    22d8:	2800      	cmp	r0, #0
    22da:	da02      	bge.n	22e2 <_dtoa_r+0x9e2>
    22dc:	2b00      	cmp	r3, #0
    22de:	dc08      	bgt.n	22f2 <_dtoa_r+0x9f2>
    22e0:	e01f      	b.n	2322 <_dtoa_r+0xa22>
    22e2:	d123      	bne.n	232c <_dtoa_r+0xa2c>
    22e4:	9924      	ldr	r1, [sp, #144]	; 0x90
    22e6:	bb09      	cbnz	r1, 232c <_dtoa_r+0xa2c>
    22e8:	9804      	ldr	r0, [sp, #16]
    22ea:	f000 0201 	and.w	r2, r0, #1
    22ee:	b9ea      	cbnz	r2, 232c <_dtoa_r+0xa2c>
    22f0:	e7f4      	b.n	22dc <_dtoa_r+0x9dc>
    22f2:	4659      	mov	r1, fp
    22f4:	2201      	movs	r2, #1
    22f6:	4650      	mov	r0, sl
    22f8:	f8cd c008 	str.w	ip, [sp, #8]
    22fc:	f000 faf2 	bl	28e4 <__lshift>
    2300:	4629      	mov	r1, r5
    2302:	4683      	mov	fp, r0
    2304:	f000 fb41 	bl	298a <__mcmp>
    2308:	2800      	cmp	r0, #0
    230a:	f8dd c008 	ldr.w	ip, [sp, #8]
    230e:	dc03      	bgt.n	2318 <_dtoa_r+0xa18>
    2310:	d107      	bne.n	2322 <_dtoa_r+0xa22>
    2312:	f01c 0f01 	tst.w	ip, #1
    2316:	d004      	beq.n	2322 <_dtoa_r+0xa22>
    2318:	f1bc 0f39 	cmp.w	ip, #57	; 0x39
    231c:	d00d      	beq.n	233a <_dtoa_r+0xa3a>
    231e:	f108 0c31 	add.w	ip, r8, #49	; 0x31
    2322:	f106 0801 	add.w	r8, r6, #1
    2326:	f886 c000 	strb.w	ip, [r6]
    232a:	e07e      	b.n	242a <_dtoa_r+0xb2a>
    232c:	2b00      	cmp	r3, #0
    232e:	f106 0801 	add.w	r8, r6, #1
    2332:	dd09      	ble.n	2348 <_dtoa_r+0xa48>
    2334:	f1bc 0f39 	cmp.w	ip, #57	; 0x39
    2338:	d103      	bne.n	2342 <_dtoa_r+0xa42>
    233a:	2339      	movs	r3, #57	; 0x39
    233c:	7033      	strb	r3, [r6, #0]
    233e:	3601      	adds	r6, #1
    2340:	e05b      	b.n	23fa <_dtoa_r+0xafa>
    2342:	f10c 0301 	add.w	r3, ip, #1
    2346:	e068      	b.n	241a <_dtoa_r+0xb1a>
    2348:	990a      	ldr	r1, [sp, #40]	; 0x28
    234a:	9a07      	ldr	r2, [sp, #28]
    234c:	ebc1 0308 	rsb	r3, r1, r8
    2350:	4646      	mov	r6, r8
    2352:	4293      	cmp	r3, r2
    2354:	f806 cc01 	strb.w	ip, [r6, #-1]
    2358:	d03c      	beq.n	23d4 <_dtoa_r+0xad4>
    235a:	4659      	mov	r1, fp
    235c:	220a      	movs	r2, #10
    235e:	2300      	movs	r3, #0
    2360:	4650      	mov	r0, sl
    2362:	f000 f906 	bl	2572 <__multadd>
    2366:	42bc      	cmp	r4, r7
    2368:	4683      	mov	fp, r0
    236a:	4621      	mov	r1, r4
    236c:	4650      	mov	r0, sl
    236e:	f04f 020a 	mov.w	r2, #10
    2372:	f04f 0300 	mov.w	r3, #0
    2376:	d104      	bne.n	2382 <_dtoa_r+0xa82>
    2378:	f000 f8fb 	bl	2572 <__multadd>
    237c:	4604      	mov	r4, r0
    237e:	4607      	mov	r7, r0
    2380:	e76e      	b.n	2260 <_dtoa_r+0x960>
    2382:	f000 f8f6 	bl	2572 <__multadd>
    2386:	4639      	mov	r1, r7
    2388:	4604      	mov	r4, r0
    238a:	220a      	movs	r2, #10
    238c:	4650      	mov	r0, sl
    238e:	2300      	movs	r3, #0
    2390:	f000 f8ef 	bl	2572 <__multadd>
    2394:	4607      	mov	r7, r0
    2396:	e763      	b.n	2260 <_dtoa_r+0x960>
    2398:	9e0f      	ldr	r6, [sp, #60]	; 0x3c
    239a:	4658      	mov	r0, fp
    239c:	4629      	mov	r1, r5
    239e:	f7ff fa1d 	bl	17dc <quorem>
    23a2:	9f0a      	ldr	r7, [sp, #40]	; 0x28
    23a4:	f100 0c30 	add.w	ip, r0, #48	; 0x30
    23a8:	f807 c006 	strb.w	ip, [r7, r6]
    23ac:	9f07      	ldr	r7, [sp, #28]
    23ae:	3601      	adds	r6, #1
    23b0:	42be      	cmp	r6, r7
    23b2:	db07      	blt.n	23c4 <_dtoa_r+0xac4>
    23b4:	9e0a      	ldr	r6, [sp, #40]	; 0x28
    23b6:	2f01      	cmp	r7, #1
    23b8:	bfac      	ite	ge
    23ba:	19f6      	addge	r6, r6, r7
    23bc:	3601      	addlt	r6, #1
    23be:	4627      	mov	r7, r4
    23c0:	2400      	movs	r4, #0
    23c2:	e007      	b.n	23d4 <_dtoa_r+0xad4>
    23c4:	4659      	mov	r1, fp
    23c6:	4650      	mov	r0, sl
    23c8:	220a      	movs	r2, #10
    23ca:	2300      	movs	r3, #0
    23cc:	f000 f8d1 	bl	2572 <__multadd>
    23d0:	4683      	mov	fp, r0
    23d2:	e7e2      	b.n	239a <_dtoa_r+0xa9a>
    23d4:	4659      	mov	r1, fp
    23d6:	2201      	movs	r2, #1
    23d8:	4650      	mov	r0, sl
    23da:	f8cd c008 	str.w	ip, [sp, #8]
    23de:	f000 fa81 	bl	28e4 <__lshift>
    23e2:	4629      	mov	r1, r5
    23e4:	4683      	mov	fp, r0
    23e6:	f000 fad0 	bl	298a <__mcmp>
    23ea:	2800      	cmp	r0, #0
    23ec:	f8dd c008 	ldr.w	ip, [sp, #8]
    23f0:	dc03      	bgt.n	23fa <_dtoa_r+0xafa>
    23f2:	d114      	bne.n	241e <_dtoa_r+0xb1e>
    23f4:	f01c 0f01 	tst.w	ip, #1
    23f8:	d011      	beq.n	241e <_dtoa_r+0xb1e>
    23fa:	f816 3c01 	ldrb.w	r3, [r6, #-1]
    23fe:	46b0      	mov	r8, r6
    2400:	2b39      	cmp	r3, #57	; 0x39
    2402:	f106 36ff 	add.w	r6, r6, #4294967295	; 0xffffffff
    2406:	d107      	bne.n	2418 <_dtoa_r+0xb18>
    2408:	980a      	ldr	r0, [sp, #40]	; 0x28
    240a:	42b0      	cmp	r0, r6
    240c:	d1f5      	bne.n	23fa <_dtoa_r+0xafa>
    240e:	2331      	movs	r3, #49	; 0x31
    2410:	f109 0901 	add.w	r9, r9, #1
    2414:	7003      	strb	r3, [r0, #0]
    2416:	e008      	b.n	242a <_dtoa_r+0xb2a>
    2418:	3301      	adds	r3, #1
    241a:	7033      	strb	r3, [r6, #0]
    241c:	e005      	b.n	242a <_dtoa_r+0xb2a>
    241e:	46b0      	mov	r8, r6
    2420:	f818 3c01 	ldrb.w	r3, [r8, #-1]
    2424:	3e01      	subs	r6, #1
    2426:	2b30      	cmp	r3, #48	; 0x30
    2428:	d0f9      	beq.n	241e <_dtoa_r+0xb1e>
    242a:	4650      	mov	r0, sl
    242c:	4629      	mov	r1, r5
    242e:	f000 f889 	bl	2544 <_Bfree>
    2432:	b16f      	cbz	r7, 2450 <_dtoa_r+0xb50>
    2434:	b12c      	cbz	r4, 2442 <_dtoa_r+0xb42>
    2436:	42bc      	cmp	r4, r7
    2438:	d003      	beq.n	2442 <_dtoa_r+0xb42>
    243a:	4650      	mov	r0, sl
    243c:	4621      	mov	r1, r4
    243e:	f000 f881 	bl	2544 <_Bfree>
    2442:	4650      	mov	r0, sl
    2444:	4639      	mov	r1, r7
    2446:	f000 f87d 	bl	2544 <_Bfree>
    244a:	e001      	b.n	2450 <_dtoa_r+0xb50>
    244c:	f8dd 9040 	ldr.w	r9, [sp, #64]	; 0x40
    2450:	4650      	mov	r0, sl
    2452:	4659      	mov	r1, fp
    2454:	f000 f876 	bl	2544 <_Bfree>
    2458:	2300      	movs	r3, #0
    245a:	9f26      	ldr	r7, [sp, #152]	; 0x98
    245c:	f888 3000 	strb.w	r3, [r8]
    2460:	f109 0301 	add.w	r3, r9, #1
    2464:	603b      	str	r3, [r7, #0]
    2466:	9f28      	ldr	r7, [sp, #160]	; 0xa0
    2468:	b127      	cbz	r7, 2474 <_dtoa_r+0xb74>
    246a:	f8c7 8000 	str.w	r8, [r7]
    246e:	e001      	b.n	2474 <_dtoa_r+0xb74>
    2470:	4802      	ldr	r0, [pc, #8]	; (247c <_dtoa_r+0xb7c>)
    2472:	e000      	b.n	2476 <_dtoa_r+0xb76>
    2474:	980a      	ldr	r0, [sp, #40]	; 0x28
    2476:	b01b      	add	sp, #108	; 0x6c
    2478:	e8bd 8ff0 	ldmia.w	sp!, {r4, r5, r6, r7, r8, r9, sl, fp, pc}
    247c:	00004abf 			; <UNDEFINED> instruction: 0x00004abf

00002480 <_localeconv_r>:
    2480:	4800      	ldr	r0, [pc, #0]	; (2484 <_localeconv_r+0x4>)
    2482:	4770      	bx	lr
    2484:	10000134 	andne	r0, r0, r4, lsr r1

00002488 <memchr>:
    2488:	b510      	push	{r4, lr}
    248a:	b2c9      	uxtb	r1, r1
    248c:	4402      	add	r2, r0
    248e:	4290      	cmp	r0, r2
    2490:	4603      	mov	r3, r0
    2492:	d005      	beq.n	24a0 <memchr+0x18>
    2494:	781c      	ldrb	r4, [r3, #0]
    2496:	3001      	adds	r0, #1
    2498:	428c      	cmp	r4, r1
    249a:	d1f8      	bne.n	248e <memchr+0x6>
    249c:	4618      	mov	r0, r3
    249e:	bd10      	pop	{r4, pc}
    24a0:	2000      	movs	r0, #0
    24a2:	bd10      	pop	{r4, pc}

000024a4 <memmove>:
    24a4:	4281      	cmp	r1, r0
    24a6:	b570      	push	{r4, r5, r6, lr}
    24a8:	d301      	bcc.n	24ae <memmove+0xa>
    24aa:	2300      	movs	r3, #0
    24ac:	e00e      	b.n	24cc <memmove+0x28>
    24ae:	188c      	adds	r4, r1, r2
    24b0:	42a0      	cmp	r0, r4
    24b2:	d2fa      	bcs.n	24aa <memmove+0x6>
    24b4:	1885      	adds	r5, r0, r2
    24b6:	4613      	mov	r3, r2
    24b8:	f113 33ff 	adds.w	r3, r3, #4294967295	; 0xffffffff
    24bc:	d305      	bcc.n	24ca <memmove+0x26>
    24be:	4251      	negs	r1, r2
    24c0:	1866      	adds	r6, r4, r1
    24c2:	5cf6      	ldrb	r6, [r6, r3]
    24c4:	4429      	add	r1, r5
    24c6:	54ce      	strb	r6, [r1, r3]
    24c8:	e7f6      	b.n	24b8 <memmove+0x14>
    24ca:	bd70      	pop	{r4, r5, r6, pc}
    24cc:	4293      	cmp	r3, r2
    24ce:	d003      	beq.n	24d8 <memmove+0x34>
    24d0:	5ccc      	ldrb	r4, [r1, r3]
    24d2:	54c4      	strb	r4, [r0, r3]
    24d4:	3301      	adds	r3, #1
    24d6:	e7f9      	b.n	24cc <memmove+0x28>
    24d8:	bd70      	pop	{r4, r5, r6, pc}

000024da <_Balloc>:
    24da:	b570      	push	{r4, r5, r6, lr}
    24dc:	6a45      	ldr	r5, [r0, #36]	; 0x24
    24de:	4604      	mov	r4, r0
    24e0:	460e      	mov	r6, r1
    24e2:	b93d      	cbnz	r5, 24f4 <_Balloc+0x1a>
    24e4:	2010      	movs	r0, #16
    24e6:	f7fe f897 	bl	618 <malloc>
    24ea:	6260      	str	r0, [r4, #36]	; 0x24
    24ec:	6045      	str	r5, [r0, #4]
    24ee:	6085      	str	r5, [r0, #8]
    24f0:	6005      	str	r5, [r0, #0]
    24f2:	60c5      	str	r5, [r0, #12]
    24f4:	6a65      	ldr	r5, [r4, #36]	; 0x24
    24f6:	68eb      	ldr	r3, [r5, #12]
    24f8:	b143      	cbz	r3, 250c <_Balloc+0x32>
    24fa:	6a63      	ldr	r3, [r4, #36]	; 0x24
    24fc:	68da      	ldr	r2, [r3, #12]
    24fe:	f852 0026 	ldr.w	r0, [r2, r6, lsl #2]
    2502:	b178      	cbz	r0, 2524 <_Balloc+0x4a>
    2504:	6801      	ldr	r1, [r0, #0]
    2506:	f842 1026 	str.w	r1, [r2, r6, lsl #2]
    250a:	e017      	b.n	253c <_Balloc+0x62>
    250c:	4620      	mov	r0, r4
    250e:	2104      	movs	r1, #4
    2510:	2221      	movs	r2, #33	; 0x21
    2512:	f000 fbe0 	bl	2cd6 <_calloc_r>
    2516:	6a63      	ldr	r3, [r4, #36]	; 0x24
    2518:	60e8      	str	r0, [r5, #12]
    251a:	68db      	ldr	r3, [r3, #12]
    251c:	2b00      	cmp	r3, #0
    251e:	d1ec      	bne.n	24fa <_Balloc+0x20>
    2520:	2000      	movs	r0, #0
    2522:	bd70      	pop	{r4, r5, r6, pc}
    2524:	2101      	movs	r1, #1
    2526:	fa01 f506 	lsl.w	r5, r1, r6
    252a:	1d6a      	adds	r2, r5, #5
    252c:	4620      	mov	r0, r4
    252e:	0092      	lsls	r2, r2, #2
    2530:	f000 fbd1 	bl	2cd6 <_calloc_r>
    2534:	2800      	cmp	r0, #0
    2536:	d0f3      	beq.n	2520 <_Balloc+0x46>
    2538:	6046      	str	r6, [r0, #4]
    253a:	6085      	str	r5, [r0, #8]
    253c:	2200      	movs	r2, #0
    253e:	6102      	str	r2, [r0, #16]
    2540:	60c2      	str	r2, [r0, #12]
    2542:	bd70      	pop	{r4, r5, r6, pc}

00002544 <_Bfree>:
    2544:	b570      	push	{r4, r5, r6, lr}
    2546:	6a44      	ldr	r4, [r0, #36]	; 0x24
    2548:	4606      	mov	r6, r0
    254a:	460d      	mov	r5, r1
    254c:	b93c      	cbnz	r4, 255e <_Bfree+0x1a>
    254e:	2010      	movs	r0, #16
    2550:	f7fe f862 	bl	618 <malloc>
    2554:	6270      	str	r0, [r6, #36]	; 0x24
    2556:	6044      	str	r4, [r0, #4]
    2558:	6084      	str	r4, [r0, #8]
    255a:	6004      	str	r4, [r0, #0]
    255c:	60c4      	str	r4, [r0, #12]
    255e:	b13d      	cbz	r5, 2570 <_Bfree+0x2c>
    2560:	6a73      	ldr	r3, [r6, #36]	; 0x24
    2562:	686a      	ldr	r2, [r5, #4]
    2564:	68db      	ldr	r3, [r3, #12]
    2566:	f853 1022 	ldr.w	r1, [r3, r2, lsl #2]
    256a:	6029      	str	r1, [r5, #0]
    256c:	f843 5022 	str.w	r5, [r3, r2, lsl #2]
    2570:	bd70      	pop	{r4, r5, r6, pc}

00002572 <__multadd>:
    2572:	e92d 41f0 	stmdb	sp!, {r4, r5, r6, r7, r8, lr}
    2576:	460c      	mov	r4, r1
    2578:	461e      	mov	r6, r3
    257a:	690d      	ldr	r5, [r1, #16]
    257c:	4607      	mov	r7, r0
    257e:	3114      	adds	r1, #20
    2580:	2300      	movs	r3, #0
    2582:	6808      	ldr	r0, [r1, #0]
    2584:	3301      	adds	r3, #1
    2586:	fa1f fc80 	uxth.w	ip, r0
    258a:	0c00      	lsrs	r0, r0, #16
    258c:	fb02 6c0c 	mla	ip, r2, ip, r6
    2590:	4350      	muls	r0, r2
    2592:	eb00 401c 	add.w	r0, r0, ip, lsr #16
    2596:	fa1f fc8c 	uxth.w	ip, ip
    259a:	0c06      	lsrs	r6, r0, #16
    259c:	42ab      	cmp	r3, r5
    259e:	eb0c 4000 	add.w	r0, ip, r0, lsl #16
    25a2:	f841 0b04 	str.w	r0, [r1], #4
    25a6:	dbec      	blt.n	2582 <__multadd+0x10>
    25a8:	b1d6      	cbz	r6, 25e0 <__multadd+0x6e>
    25aa:	68a3      	ldr	r3, [r4, #8]
    25ac:	429d      	cmp	r5, r3
    25ae:	db12      	blt.n	25d6 <__multadd+0x64>
    25b0:	6861      	ldr	r1, [r4, #4]
    25b2:	4638      	mov	r0, r7
    25b4:	3101      	adds	r1, #1
    25b6:	f7ff ff90 	bl	24da <_Balloc>
    25ba:	6922      	ldr	r2, [r4, #16]
    25bc:	f104 010c 	add.w	r1, r4, #12
    25c0:	3202      	adds	r2, #2
    25c2:	4680      	mov	r8, r0
    25c4:	0092      	lsls	r2, r2, #2
    25c6:	300c      	adds	r0, #12
    25c8:	f7fe f82e 	bl	628 <memcpy>
    25cc:	4621      	mov	r1, r4
    25ce:	4638      	mov	r0, r7
    25d0:	f7ff ffb8 	bl	2544 <_Bfree>
    25d4:	4644      	mov	r4, r8
    25d6:	eb04 0385 	add.w	r3, r4, r5, lsl #2
    25da:	3501      	adds	r5, #1
    25dc:	615e      	str	r6, [r3, #20]
    25de:	6125      	str	r5, [r4, #16]
    25e0:	4620      	mov	r0, r4
    25e2:	e8bd 81f0 	ldmia.w	sp!, {r4, r5, r6, r7, r8, pc}

000025e6 <__s2b>:
    25e6:	e92d 43f8 	stmdb	sp!, {r3, r4, r5, r6, r7, r8, r9, lr}
    25ea:	4614      	mov	r4, r2
    25ec:	4698      	mov	r8, r3
    25ee:	f103 0208 	add.w	r2, r3, #8
    25f2:	2309      	movs	r3, #9
    25f4:	460d      	mov	r5, r1
    25f6:	fb92 f2f3 	sdiv	r2, r2, r3
    25fa:	4606      	mov	r6, r0
    25fc:	2301      	movs	r3, #1
    25fe:	2100      	movs	r1, #0
    2600:	429a      	cmp	r2, r3
    2602:	dd02      	ble.n	260a <__s2b+0x24>
    2604:	005b      	lsls	r3, r3, #1
    2606:	3101      	adds	r1, #1
    2608:	e7fa      	b.n	2600 <__s2b+0x1a>
    260a:	4630      	mov	r0, r6
    260c:	f7ff ff65 	bl	24da <_Balloc>
    2610:	9b08      	ldr	r3, [sp, #32]
    2612:	2c09      	cmp	r4, #9
    2614:	6143      	str	r3, [r0, #20]
    2616:	f04f 0301 	mov.w	r3, #1
    261a:	4601      	mov	r1, r0
    261c:	6103      	str	r3, [r0, #16]
    261e:	dd11      	ble.n	2644 <__s2b+0x5e>
    2620:	f105 0909 	add.w	r9, r5, #9
    2624:	464f      	mov	r7, r9
    2626:	4425      	add	r5, r4
    2628:	f817 3b01 	ldrb.w	r3, [r7], #1
    262c:	4630      	mov	r0, r6
    262e:	220a      	movs	r2, #10
    2630:	3b30      	subs	r3, #48	; 0x30
    2632:	f7ff ff9e 	bl	2572 <__multadd>
    2636:	42af      	cmp	r7, r5
    2638:	4601      	mov	r1, r0
    263a:	d1f5      	bne.n	2628 <__s2b+0x42>
    263c:	eb09 0704 	add.w	r7, r9, r4
    2640:	3f08      	subs	r7, #8
    2642:	e002      	b.n	264a <__s2b+0x64>
    2644:	f105 070a 	add.w	r7, r5, #10
    2648:	2409      	movs	r4, #9
    264a:	4625      	mov	r5, r4
    264c:	4545      	cmp	r5, r8
    264e:	da09      	bge.n	2664 <__s2b+0x7e>
    2650:	1b3b      	subs	r3, r7, r4
    2652:	5d5b      	ldrb	r3, [r3, r5]
    2654:	4630      	mov	r0, r6
    2656:	220a      	movs	r2, #10
    2658:	3b30      	subs	r3, #48	; 0x30
    265a:	f7ff ff8a 	bl	2572 <__multadd>
    265e:	3501      	adds	r5, #1
    2660:	4601      	mov	r1, r0
    2662:	e7f3      	b.n	264c <__s2b+0x66>
    2664:	4608      	mov	r0, r1
    2666:	e8bd 83f8 	ldmia.w	sp!, {r3, r4, r5, r6, r7, r8, r9, pc}

0000266a <__hi0bits>:
    266a:	0c03      	lsrs	r3, r0, #16
    266c:	041b      	lsls	r3, r3, #16
    266e:	b913      	cbnz	r3, 2676 <__hi0bits+0xc>
    2670:	0400      	lsls	r0, r0, #16
    2672:	2310      	movs	r3, #16
    2674:	e000      	b.n	2678 <__hi0bits+0xe>
    2676:	2300      	movs	r3, #0
    2678:	f010 4f7f 	tst.w	r0, #4278190080	; 0xff000000
    267c:	bf04      	itt	eq
    267e:	0200      	lsleq	r0, r0, #8
    2680:	3308      	addeq	r3, #8
    2682:	f010 4f70 	tst.w	r0, #4026531840	; 0xf0000000
    2686:	bf04      	itt	eq
    2688:	0100      	lsleq	r0, r0, #4
    268a:	3304      	addeq	r3, #4
    268c:	f010 4f40 	tst.w	r0, #3221225472	; 0xc0000000
    2690:	bf04      	itt	eq
    2692:	0080      	lsleq	r0, r0, #2
    2694:	3302      	addeq	r3, #2
    2696:	2800      	cmp	r0, #0
    2698:	db03      	blt.n	26a2 <__hi0bits+0x38>
    269a:	0042      	lsls	r2, r0, #1
    269c:	d503      	bpl.n	26a6 <__hi0bits+0x3c>
    269e:	1c58      	adds	r0, r3, #1
    26a0:	4770      	bx	lr
    26a2:	4618      	mov	r0, r3
    26a4:	4770      	bx	lr
    26a6:	2020      	movs	r0, #32
    26a8:	4770      	bx	lr

000026aa <__lo0bits>:
    26aa:	6803      	ldr	r3, [r0, #0]
    26ac:	f013 0207 	ands.w	r2, r3, #7
    26b0:	d00b      	beq.n	26ca <__lo0bits+0x20>
    26b2:	07d9      	lsls	r1, r3, #31
    26b4:	d422      	bmi.n	26fc <__lo0bits+0x52>
    26b6:	079a      	lsls	r2, r3, #30
    26b8:	d503      	bpl.n	26c2 <__lo0bits+0x18>
    26ba:	085b      	lsrs	r3, r3, #1
    26bc:	6003      	str	r3, [r0, #0]
    26be:	2001      	movs	r0, #1
    26c0:	4770      	bx	lr
    26c2:	089b      	lsrs	r3, r3, #2
    26c4:	6003      	str	r3, [r0, #0]
    26c6:	2002      	movs	r0, #2
    26c8:	4770      	bx	lr
    26ca:	b299      	uxth	r1, r3
    26cc:	b909      	cbnz	r1, 26d2 <__lo0bits+0x28>
    26ce:	0c1b      	lsrs	r3, r3, #16
    26d0:	2210      	movs	r2, #16
    26d2:	f013 0fff 	tst.w	r3, #255	; 0xff
    26d6:	bf04      	itt	eq
    26d8:	0a1b      	lsreq	r3, r3, #8
    26da:	3208      	addeq	r2, #8
    26dc:	0719      	lsls	r1, r3, #28
    26de:	bf04      	itt	eq
    26e0:	091b      	lsreq	r3, r3, #4
    26e2:	3204      	addeq	r2, #4
    26e4:	0799      	lsls	r1, r3, #30
    26e6:	bf04      	itt	eq
    26e8:	089b      	lsreq	r3, r3, #2
    26ea:	3202      	addeq	r2, #2
    26ec:	07d9      	lsls	r1, r3, #31
    26ee:	d402      	bmi.n	26f6 <__lo0bits+0x4c>
    26f0:	085b      	lsrs	r3, r3, #1
    26f2:	d005      	beq.n	2700 <__lo0bits+0x56>
    26f4:	3201      	adds	r2, #1
    26f6:	6003      	str	r3, [r0, #0]
    26f8:	4610      	mov	r0, r2
    26fa:	4770      	bx	lr
    26fc:	2000      	movs	r0, #0
    26fe:	4770      	bx	lr
    2700:	2020      	movs	r0, #32
    2702:	4770      	bx	lr

00002704 <__i2b>:
    2704:	b510      	push	{r4, lr}
    2706:	460c      	mov	r4, r1
    2708:	2101      	movs	r1, #1
    270a:	f7ff fee6 	bl	24da <_Balloc>
    270e:	2201      	movs	r2, #1
    2710:	6144      	str	r4, [r0, #20]
    2712:	6102      	str	r2, [r0, #16]
    2714:	bd10      	pop	{r4, pc}

00002716 <__multiply>:
    2716:	e92d 4ff0 	stmdb	sp!, {r4, r5, r6, r7, r8, r9, sl, fp, lr}
    271a:	4616      	mov	r6, r2
    271c:	6933      	ldr	r3, [r6, #16]
    271e:	690a      	ldr	r2, [r1, #16]
    2720:	b085      	sub	sp, #20
    2722:	429a      	cmp	r2, r3
    2724:	460d      	mov	r5, r1
    2726:	da01      	bge.n	272c <__multiply+0x16>
    2728:	4635      	mov	r5, r6
    272a:	460e      	mov	r6, r1
    272c:	f8d5 8010 	ldr.w	r8, [r5, #16]
    2730:	6937      	ldr	r7, [r6, #16]
    2732:	68ab      	ldr	r3, [r5, #8]
    2734:	6869      	ldr	r1, [r5, #4]
    2736:	eb08 0407 	add.w	r4, r8, r7
    273a:	429c      	cmp	r4, r3
    273c:	bfc8      	it	gt
    273e:	3101      	addgt	r1, #1
    2740:	f7ff fecb 	bl	24da <_Balloc>
    2744:	f100 0314 	add.w	r3, r0, #20
    2748:	eb03 0184 	add.w	r1, r3, r4, lsl #2
    274c:	9101      	str	r1, [sp, #4]
    274e:	461a      	mov	r2, r3
    2750:	f8dd a004 	ldr.w	sl, [sp, #4]
    2754:	4552      	cmp	r2, sl
    2756:	d203      	bcs.n	2760 <__multiply+0x4a>
    2758:	2100      	movs	r1, #0
    275a:	f842 1b04 	str.w	r1, [r2], #4
    275e:	e7f7      	b.n	2750 <__multiply+0x3a>
    2760:	f105 0114 	add.w	r1, r5, #20
    2764:	f106 0214 	add.w	r2, r6, #20
    2768:	eb01 0888 	add.w	r8, r1, r8, lsl #2
    276c:	eb02 0787 	add.w	r7, r2, r7, lsl #2
    2770:	f8cd 8008 	str.w	r8, [sp, #8]
    2774:	9703      	str	r7, [sp, #12]
    2776:	9e03      	ldr	r6, [sp, #12]
    2778:	4615      	mov	r5, r2
    277a:	42b2      	cmp	r2, r6
    277c:	d256      	bcs.n	282c <__multiply+0x116>
    277e:	f8b5 c000 	ldrh.w	ip, [r5]
    2782:	3204      	adds	r2, #4
    2784:	f1bc 0f00 	cmp.w	ip, #0
    2788:	d025      	beq.n	27d6 <__multiply+0xc0>
    278a:	460f      	mov	r7, r1
    278c:	461d      	mov	r5, r3
    278e:	2600      	movs	r6, #0
    2790:	f857 9b04 	ldr.w	r9, [r7], #4
    2794:	f8d5 8000 	ldr.w	r8, [r5]
    2798:	fa1f fb89 	uxth.w	fp, r9
    279c:	fa1f fa88 	uxth.w	sl, r8
    27a0:	fb0c aa0b 	mla	sl, ip, fp, sl
    27a4:	ea4f 4919 	mov.w	r9, r9, lsr #16
    27a8:	ea4f 4818 	mov.w	r8, r8, lsr #16
    27ac:	fb0c 8809 	mla	r8, ip, r9, r8
    27b0:	44b2      	add	sl, r6
    27b2:	eb08 481a 	add.w	r8, r8, sl, lsr #16
    27b6:	fa1f fa8a 	uxth.w	sl, sl
    27ba:	ea4a 4a08 	orr.w	sl, sl, r8, lsl #16
    27be:	ea4f 4618 	mov.w	r6, r8, lsr #16
    27c2:	f8dd 8008 	ldr.w	r8, [sp, #8]
    27c6:	46ab      	mov	fp, r5
    27c8:	45b8      	cmp	r8, r7
    27ca:	f84b ab04 	str.w	sl, [fp], #4
    27ce:	d901      	bls.n	27d4 <__multiply+0xbe>
    27d0:	465d      	mov	r5, fp
    27d2:	e7dd      	b.n	2790 <__multiply+0x7a>
    27d4:	606e      	str	r6, [r5, #4]
    27d6:	f832 8c02 	ldrh.w	r8, [r2, #-2]
    27da:	f1b8 0f00 	cmp.w	r8, #0
    27de:	d023      	beq.n	2828 <__multiply+0x112>
    27e0:	681e      	ldr	r6, [r3, #0]
    27e2:	460f      	mov	r7, r1
    27e4:	461d      	mov	r5, r3
    27e6:	f04f 0900 	mov.w	r9, #0
    27ea:	f8b7 a000 	ldrh.w	sl, [r7]
    27ee:	f8b5 c002 	ldrh.w	ip, [r5, #2]
    27f2:	b2b6      	uxth	r6, r6
    27f4:	fb08 cc0a 	mla	ip, r8, sl, ip
    27f8:	44e1      	add	r9, ip
    27fa:	ea46 4609 	orr.w	r6, r6, r9, lsl #16
    27fe:	46ac      	mov	ip, r5
    2800:	f84c 6b04 	str.w	r6, [ip], #4
    2804:	f857 6b04 	ldr.w	r6, [r7], #4
    2808:	f8b5 a004 	ldrh.w	sl, [r5, #4]
    280c:	0c36      	lsrs	r6, r6, #16
    280e:	fb08 a606 	mla	r6, r8, r6, sl
    2812:	f8dd a008 	ldr.w	sl, [sp, #8]
    2816:	eb06 4619 	add.w	r6, r6, r9, lsr #16
    281a:	4557      	cmp	r7, sl
    281c:	ea4f 4916 	mov.w	r9, r6, lsr #16
    2820:	d201      	bcs.n	2826 <__multiply+0x110>
    2822:	4665      	mov	r5, ip
    2824:	e7e1      	b.n	27ea <__multiply+0xd4>
    2826:	606e      	str	r6, [r5, #4]
    2828:	3304      	adds	r3, #4
    282a:	e7a4      	b.n	2776 <__multiply+0x60>
    282c:	9b01      	ldr	r3, [sp, #4]
    282e:	2c00      	cmp	r4, #0
    2830:	dc03      	bgt.n	283a <__multiply+0x124>
    2832:	6104      	str	r4, [r0, #16]
    2834:	b005      	add	sp, #20
    2836:	e8bd 8ff0 	ldmia.w	sp!, {r4, r5, r6, r7, r8, r9, sl, fp, pc}
    283a:	f853 2d04 	ldr.w	r2, [r3, #-4]!
    283e:	2a00      	cmp	r2, #0
    2840:	d1f7      	bne.n	2832 <__multiply+0x11c>
    2842:	3c01      	subs	r4, #1
    2844:	e7f3      	b.n	282e <__multiply+0x118>
	...

00002848 <__pow5mult>:
    2848:	f012 0303 	ands.w	r3, r2, #3
    284c:	e92d 41f0 	stmdb	sp!, {r4, r5, r6, r7, r8, lr}
    2850:	4605      	mov	r5, r0
    2852:	460e      	mov	r6, r1
    2854:	4617      	mov	r7, r2
    2856:	d007      	beq.n	2868 <__pow5mult+0x20>
    2858:	4a21      	ldr	r2, [pc, #132]	; (28e0 <__pow5mult+0x98>)
    285a:	3b01      	subs	r3, #1
    285c:	f852 2023 	ldr.w	r2, [r2, r3, lsl #2]
    2860:	2300      	movs	r3, #0
    2862:	f7ff fe86 	bl	2572 <__multadd>
    2866:	4606      	mov	r6, r0
    2868:	10bf      	asrs	r7, r7, #2
    286a:	d035      	beq.n	28d8 <__pow5mult+0x90>
    286c:	6a6c      	ldr	r4, [r5, #36]	; 0x24
    286e:	b93c      	cbnz	r4, 2880 <__pow5mult+0x38>
    2870:	2010      	movs	r0, #16
    2872:	f7fd fed1 	bl	618 <malloc>
    2876:	6268      	str	r0, [r5, #36]	; 0x24
    2878:	6044      	str	r4, [r0, #4]
    287a:	6084      	str	r4, [r0, #8]
    287c:	6004      	str	r4, [r0, #0]
    287e:	60c4      	str	r4, [r0, #12]
    2880:	f8d5 8024 	ldr.w	r8, [r5, #36]	; 0x24
    2884:	f8d8 4008 	ldr.w	r4, [r8, #8]
    2888:	b97c      	cbnz	r4, 28aa <__pow5mult+0x62>
    288a:	4628      	mov	r0, r5
    288c:	f240 2171 	movw	r1, #625	; 0x271
    2890:	f7ff ff38 	bl	2704 <__i2b>
    2894:	2300      	movs	r3, #0
    2896:	f8c8 0008 	str.w	r0, [r8, #8]
    289a:	4604      	mov	r4, r0
    289c:	6003      	str	r3, [r0, #0]
    289e:	e004      	b.n	28aa <__pow5mult+0x62>
    28a0:	107f      	asrs	r7, r7, #1
    28a2:	d019      	beq.n	28d8 <__pow5mult+0x90>
    28a4:	6820      	ldr	r0, [r4, #0]
    28a6:	b170      	cbz	r0, 28c6 <__pow5mult+0x7e>
    28a8:	4604      	mov	r4, r0
    28aa:	07fb      	lsls	r3, r7, #31
    28ac:	d5f8      	bpl.n	28a0 <__pow5mult+0x58>
    28ae:	4631      	mov	r1, r6
    28b0:	4622      	mov	r2, r4
    28b2:	4628      	mov	r0, r5
    28b4:	f7ff ff2f 	bl	2716 <__multiply>
    28b8:	4631      	mov	r1, r6
    28ba:	4680      	mov	r8, r0
    28bc:	4628      	mov	r0, r5
    28be:	f7ff fe41 	bl	2544 <_Bfree>
    28c2:	4646      	mov	r6, r8
    28c4:	e7ec      	b.n	28a0 <__pow5mult+0x58>
    28c6:	4628      	mov	r0, r5
    28c8:	4621      	mov	r1, r4
    28ca:	4622      	mov	r2, r4
    28cc:	f7ff ff23 	bl	2716 <__multiply>
    28d0:	2300      	movs	r3, #0
    28d2:	6020      	str	r0, [r4, #0]
    28d4:	6003      	str	r3, [r0, #0]
    28d6:	e7e7      	b.n	28a8 <__pow5mult+0x60>
    28d8:	4630      	mov	r0, r6
    28da:	e8bd 81f0 	ldmia.w	sp!, {r4, r5, r6, r7, r8, pc}
    28de:	bf00      	nop
    28e0:	00004d50 	andeq	r4, r0, r0, asr sp

000028e4 <__lshift>:
    28e4:	e92d 47f0 	stmdb	sp!, {r4, r5, r6, r7, r8, r9, sl, lr}
    28e8:	460c      	mov	r4, r1
    28ea:	6923      	ldr	r3, [r4, #16]
    28ec:	ea4f 1a62 	mov.w	sl, r2, asr #5
    28f0:	eb0a 0903 	add.w	r9, sl, r3
    28f4:	6849      	ldr	r1, [r1, #4]
    28f6:	68a3      	ldr	r3, [r4, #8]
    28f8:	4680      	mov	r8, r0
    28fa:	4615      	mov	r5, r2
    28fc:	f109 0701 	add.w	r7, r9, #1
    2900:	429f      	cmp	r7, r3
    2902:	dd02      	ble.n	290a <__lshift+0x26>
    2904:	3101      	adds	r1, #1
    2906:	005b      	lsls	r3, r3, #1
    2908:	e7fa      	b.n	2900 <__lshift+0x1c>
    290a:	4640      	mov	r0, r8
    290c:	f7ff fde5 	bl	24da <_Balloc>
    2910:	2300      	movs	r3, #0
    2912:	4606      	mov	r6, r0
    2914:	f100 0214 	add.w	r2, r0, #20
    2918:	4553      	cmp	r3, sl
    291a:	da04      	bge.n	2926 <__lshift+0x42>
    291c:	2100      	movs	r1, #0
    291e:	f842 1023 	str.w	r1, [r2, r3, lsl #2]
    2922:	3301      	adds	r3, #1
    2924:	e7f8      	b.n	2918 <__lshift+0x34>
    2926:	6920      	ldr	r0, [r4, #16]
    2928:	ea2a 71ea 	bic.w	r1, sl, sl, asr #31
    292c:	f104 0314 	add.w	r3, r4, #20
    2930:	f015 0c1f 	ands.w	ip, r5, #31
    2934:	eb02 0181 	add.w	r1, r2, r1, lsl #2
    2938:	eb03 0e80 	add.w	lr, r3, r0, lsl #2
    293c:	d016      	beq.n	296c <__lshift+0x88>
    293e:	f1cc 0a20 	rsb	sl, ip, #32
    2942:	2500      	movs	r5, #0
    2944:	6818      	ldr	r0, [r3, #0]
    2946:	460a      	mov	r2, r1
    2948:	fa00 f00c 	lsl.w	r0, r0, ip
    294c:	4305      	orrs	r5, r0
    294e:	f842 5b04 	str.w	r5, [r2], #4
    2952:	f853 5b04 	ldr.w	r5, [r3], #4
    2956:	4573      	cmp	r3, lr
    2958:	fa25 f50a 	lsr.w	r5, r5, sl
    295c:	d201      	bcs.n	2962 <__lshift+0x7e>
    295e:	4611      	mov	r1, r2
    2960:	e7f0      	b.n	2944 <__lshift+0x60>
    2962:	604d      	str	r5, [r1, #4]
    2964:	b145      	cbz	r5, 2978 <__lshift+0x94>
    2966:	f109 0702 	add.w	r7, r9, #2
    296a:	e005      	b.n	2978 <__lshift+0x94>
    296c:	f853 2b04 	ldr.w	r2, [r3], #4
    2970:	4573      	cmp	r3, lr
    2972:	f841 2b04 	str.w	r2, [r1], #4
    2976:	d3f9      	bcc.n	296c <__lshift+0x88>
    2978:	3f01      	subs	r7, #1
    297a:	4640      	mov	r0, r8
    297c:	6137      	str	r7, [r6, #16]
    297e:	4621      	mov	r1, r4
    2980:	f7ff fde0 	bl	2544 <_Bfree>
    2984:	4630      	mov	r0, r6
    2986:	e8bd 87f0 	ldmia.w	sp!, {r4, r5, r6, r7, r8, r9, sl, pc}

0000298a <__mcmp>:
    298a:	6902      	ldr	r2, [r0, #16]
    298c:	690b      	ldr	r3, [r1, #16]
    298e:	b510      	push	{r4, lr}
    2990:	1ad2      	subs	r2, r2, r3
    2992:	d113      	bne.n	29bc <__mcmp+0x32>
    2994:	009c      	lsls	r4, r3, #2
    2996:	3014      	adds	r0, #20
    2998:	f101 0214 	add.w	r2, r1, #20
    299c:	1903      	adds	r3, r0, r4
    299e:	4422      	add	r2, r4
    29a0:	f853 4d04 	ldr.w	r4, [r3, #-4]!
    29a4:	f852 1d04 	ldr.w	r1, [r2, #-4]!
    29a8:	428c      	cmp	r4, r1
    29aa:	d003      	beq.n	29b4 <__mcmp+0x2a>
    29ac:	d208      	bcs.n	29c0 <__mcmp+0x36>
    29ae:	f04f 30ff 	mov.w	r0, #4294967295	; 0xffffffff
    29b2:	bd10      	pop	{r4, pc}
    29b4:	4298      	cmp	r0, r3
    29b6:	d3f3      	bcc.n	29a0 <__mcmp+0x16>
    29b8:	2000      	movs	r0, #0
    29ba:	bd10      	pop	{r4, pc}
    29bc:	4610      	mov	r0, r2
    29be:	bd10      	pop	{r4, pc}
    29c0:	2001      	movs	r0, #1
    29c2:	bd10      	pop	{r4, pc}

000029c4 <__mdiff>:
    29c4:	e92d 47f0 	stmdb	sp!, {r4, r5, r6, r7, r8, r9, sl, lr}
    29c8:	4606      	mov	r6, r0
    29ca:	460c      	mov	r4, r1
    29cc:	4608      	mov	r0, r1
    29ce:	4611      	mov	r1, r2
    29d0:	4615      	mov	r5, r2
    29d2:	f7ff ffda 	bl	298a <__mcmp>
    29d6:	1e07      	subs	r7, r0, #0
    29d8:	d108      	bne.n	29ec <__mdiff+0x28>
    29da:	4630      	mov	r0, r6
    29dc:	4639      	mov	r1, r7
    29de:	f7ff fd7c 	bl	24da <_Balloc>
    29e2:	2301      	movs	r3, #1
    29e4:	6103      	str	r3, [r0, #16]
    29e6:	6147      	str	r7, [r0, #20]
    29e8:	e8bd 87f0 	ldmia.w	sp!, {r4, r5, r6, r7, r8, r9, sl, pc}
    29ec:	db01      	blt.n	29f2 <__mdiff+0x2e>
    29ee:	2700      	movs	r7, #0
    29f0:	e003      	b.n	29fa <__mdiff+0x36>
    29f2:	4623      	mov	r3, r4
    29f4:	2701      	movs	r7, #1
    29f6:	462c      	mov	r4, r5
    29f8:	461d      	mov	r5, r3
    29fa:	6861      	ldr	r1, [r4, #4]
    29fc:	4630      	mov	r0, r6
    29fe:	f7ff fd6c 	bl	24da <_Balloc>
    2a02:	6922      	ldr	r2, [r4, #16]
    2a04:	692b      	ldr	r3, [r5, #16]
    2a06:	3414      	adds	r4, #20
    2a08:	f105 0614 	add.w	r6, r5, #20
    2a0c:	eb06 0a83 	add.w	sl, r6, r3, lsl #2
    2a10:	60c7      	str	r7, [r0, #12]
    2a12:	eb04 0c82 	add.w	ip, r4, r2, lsl #2
    2a16:	f100 0314 	add.w	r3, r0, #20
    2a1a:	2100      	movs	r1, #0
    2a1c:	f854 7b04 	ldr.w	r7, [r4], #4
    2a20:	f856 9b04 	ldr.w	r9, [r6], #4
    2a24:	fa1f f887 	uxth.w	r8, r7
    2a28:	fa1f f589 	uxth.w	r5, r9
    2a2c:	4441      	add	r1, r8
    2a2e:	ea4f 4919 	mov.w	r9, r9, lsr #16
    2a32:	ebc5 0801 	rsb	r8, r5, r1
    2a36:	ebc9 4717 	rsb	r7, r9, r7, lsr #16
    2a3a:	eb07 4728 	add.w	r7, r7, r8, asr #16
    2a3e:	fa1f f888 	uxth.w	r8, r8
    2a42:	1439      	asrs	r1, r7, #16
    2a44:	45b2      	cmp	sl, r6
    2a46:	ea48 4707 	orr.w	r7, r8, r7, lsl #16
    2a4a:	4625      	mov	r5, r4
    2a4c:	f843 7b04 	str.w	r7, [r3], #4
    2a50:	d8e4      	bhi.n	2a1c <__mdiff+0x58>
    2a52:	4565      	cmp	r5, ip
    2a54:	d20d      	bcs.n	2a72 <__mdiff+0xae>
    2a56:	f855 4b04 	ldr.w	r4, [r5], #4
    2a5a:	b2a6      	uxth	r6, r4
    2a5c:	440e      	add	r6, r1
    2a5e:	0c24      	lsrs	r4, r4, #16
    2a60:	eb04 4426 	add.w	r4, r4, r6, asr #16
    2a64:	b2b6      	uxth	r6, r6
    2a66:	1421      	asrs	r1, r4, #16
    2a68:	ea46 4404 	orr.w	r4, r6, r4, lsl #16
    2a6c:	f843 4b04 	str.w	r4, [r3], #4
    2a70:	e7ef      	b.n	2a52 <__mdiff+0x8e>
    2a72:	f853 1d04 	ldr.w	r1, [r3, #-4]!
    2a76:	b909      	cbnz	r1, 2a7c <__mdiff+0xb8>
    2a78:	3a01      	subs	r2, #1
    2a7a:	e7fa      	b.n	2a72 <__mdiff+0xae>
    2a7c:	6102      	str	r2, [r0, #16]
    2a7e:	e8bd 87f0 	ldmia.w	sp!, {r4, r5, r6, r7, r8, r9, sl, pc}
	...

00002a84 <__ulp>:
    2a84:	4b0f      	ldr	r3, [pc, #60]	; (2ac4 <__ulp+0x40>)
    2a86:	400b      	ands	r3, r1
    2a88:	f1a3 7350 	sub.w	r3, r3, #54525952	; 0x3400000
    2a8c:	2b00      	cmp	r3, #0
    2a8e:	dd01      	ble.n	2a94 <__ulp+0x10>
    2a90:	4619      	mov	r1, r3
    2a92:	e009      	b.n	2aa8 <__ulp+0x24>
    2a94:	425b      	negs	r3, r3
    2a96:	151b      	asrs	r3, r3, #20
    2a98:	2b13      	cmp	r3, #19
    2a9a:	f04f 0100 	mov.w	r1, #0
    2a9e:	dc05      	bgt.n	2aac <__ulp+0x28>
    2aa0:	f44f 2200 	mov.w	r2, #524288	; 0x80000
    2aa4:	fa42 f103 	asr.w	r1, r2, r3
    2aa8:	2000      	movs	r0, #0
    2aaa:	4770      	bx	lr
    2aac:	2b32      	cmp	r3, #50	; 0x32
    2aae:	f04f 0201 	mov.w	r2, #1
    2ab2:	bfda      	itte	le
    2ab4:	f1c3 0333 	rsble	r3, r3, #51	; 0x33
    2ab8:	fa02 f303 	lslle.w	r3, r2, r3
    2abc:	4613      	movgt	r3, r2
    2abe:	4618      	mov	r0, r3
    2ac0:	4770      	bx	lr
    2ac2:	bf00      	nop
    2ac4:	7ff00000 	svcvc	0x00f00000	; IMB

00002ac8 <__b2d>:
    2ac8:	e92d 41f0 	stmdb	sp!, {r4, r5, r6, r7, r8, lr}
    2acc:	6906      	ldr	r6, [r0, #16]
    2ace:	f100 0714 	add.w	r7, r0, #20
    2ad2:	eb07 0686 	add.w	r6, r7, r6, lsl #2
    2ad6:	f856 4c04 	ldr.w	r4, [r6, #-4]
    2ada:	4688      	mov	r8, r1
    2adc:	4620      	mov	r0, r4
    2ade:	f7ff fdc4 	bl	266a <__hi0bits>
    2ae2:	f1c0 0320 	rsb	r3, r0, #32
    2ae6:	280a      	cmp	r0, #10
    2ae8:	f1a6 0504 	sub.w	r5, r6, #4
    2aec:	f8c8 3000 	str.w	r3, [r8]
    2af0:	dc14      	bgt.n	2b1c <__b2d+0x54>
    2af2:	42bd      	cmp	r5, r7
    2af4:	f1c0 010b 	rsb	r1, r0, #11
    2af8:	bf88      	it	hi
    2afa:	f856 5c08 	ldrhi.w	r5, [r6, #-8]
    2afe:	fa24 fc01 	lsr.w	ip, r4, r1
    2b02:	bf98      	it	ls
    2b04:	2500      	movls	r5, #0
    2b06:	3015      	adds	r0, #21
    2b08:	fa25 f101 	lsr.w	r1, r5, r1
    2b0c:	4084      	lsls	r4, r0
    2b0e:	f04c 537f 	orr.w	r3, ip, #1069547520	; 0x3fc00000
    2b12:	f443 1340 	orr.w	r3, r3, #3145728	; 0x300000
    2b16:	ea41 0204 	orr.w	r2, r1, r4
    2b1a:	e024      	b.n	2b66 <__b2d+0x9e>
    2b1c:	42bd      	cmp	r5, r7
    2b1e:	bf86      	itte	hi
    2b20:	f1a6 0508 	subhi.w	r5, r6, #8
    2b24:	f856 1c08 	ldrhi.w	r1, [r6, #-8]
    2b28:	2100      	movls	r1, #0
    2b2a:	f1b0 060b 	subs.w	r6, r0, #11
    2b2e:	d015      	beq.n	2b5c <__b2d+0x94>
    2b30:	40b4      	lsls	r4, r6
    2b32:	f1c0 002b 	rsb	r0, r0, #43	; 0x2b
    2b36:	fa21 fc00 	lsr.w	ip, r1, r0
    2b3a:	f044 547f 	orr.w	r4, r4, #1069547520	; 0x3fc00000
    2b3e:	f444 1440 	orr.w	r4, r4, #3145728	; 0x300000
    2b42:	42bd      	cmp	r5, r7
    2b44:	ea44 030c 	orr.w	r3, r4, ip
    2b48:	bf8c      	ite	hi
    2b4a:	f855 4c04 	ldrhi.w	r4, [r5, #-4]
    2b4e:	2400      	movls	r4, #0
    2b50:	fa24 f000 	lsr.w	r0, r4, r0
    2b54:	40b1      	lsls	r1, r6
    2b56:	ea40 0201 	orr.w	r2, r0, r1
    2b5a:	e004      	b.n	2b66 <__b2d+0x9e>
    2b5c:	f044 537f 	orr.w	r3, r4, #1069547520	; 0x3fc00000
    2b60:	f443 1340 	orr.w	r3, r3, #3145728	; 0x300000
    2b64:	460a      	mov	r2, r1
    2b66:	4610      	mov	r0, r2
    2b68:	4619      	mov	r1, r3
    2b6a:	e8bd 81f0 	ldmia.w	sp!, {r4, r5, r6, r7, r8, pc}

00002b6e <__d2b>:
    2b6e:	e92d 43f7 	stmdb	sp!, {r0, r1, r2, r4, r5, r6, r7, r8, r9, lr}
    2b72:	2101      	movs	r1, #1
    2b74:	461d      	mov	r5, r3
    2b76:	f8dd 9028 	ldr.w	r9, [sp, #40]	; 0x28
    2b7a:	f8dd 802c 	ldr.w	r8, [sp, #44]	; 0x2c
    2b7e:	4614      	mov	r4, r2
    2b80:	f7ff fcab 	bl	24da <_Balloc>
    2b84:	f3c5 570a 	ubfx	r7, r5, #20, #11
    2b88:	4606      	mov	r6, r0
    2b8a:	f3c5 0313 	ubfx	r3, r5, #0, #20
    2b8e:	b10f      	cbz	r7, 2b94 <__d2b+0x26>
    2b90:	f443 1380 	orr.w	r3, r3, #1048576	; 0x100000
    2b94:	9301      	str	r3, [sp, #4]
    2b96:	b1d4      	cbz	r4, 2bce <__d2b+0x60>
    2b98:	a802      	add	r0, sp, #8
    2b9a:	f840 4d08 	str.w	r4, [r0, #-8]!
    2b9e:	4668      	mov	r0, sp
    2ba0:	f7ff fd83 	bl	26aa <__lo0bits>
    2ba4:	9b00      	ldr	r3, [sp, #0]
    2ba6:	b148      	cbz	r0, 2bbc <__d2b+0x4e>
    2ba8:	9a01      	ldr	r2, [sp, #4]
    2baa:	f1c0 0120 	rsb	r1, r0, #32
    2bae:	fa02 f101 	lsl.w	r1, r2, r1
    2bb2:	40c2      	lsrs	r2, r0
    2bb4:	430b      	orrs	r3, r1
    2bb6:	6173      	str	r3, [r6, #20]
    2bb8:	9201      	str	r2, [sp, #4]
    2bba:	e000      	b.n	2bbe <__d2b+0x50>
    2bbc:	6173      	str	r3, [r6, #20]
    2bbe:	9b01      	ldr	r3, [sp, #4]
    2bc0:	2b00      	cmp	r3, #0
    2bc2:	bf0c      	ite	eq
    2bc4:	2401      	moveq	r4, #1
    2bc6:	2402      	movne	r4, #2
    2bc8:	61b3      	str	r3, [r6, #24]
    2bca:	6134      	str	r4, [r6, #16]
    2bcc:	e007      	b.n	2bde <__d2b+0x70>
    2bce:	a801      	add	r0, sp, #4
    2bd0:	f7ff fd6b 	bl	26aa <__lo0bits>
    2bd4:	9b01      	ldr	r3, [sp, #4]
    2bd6:	2401      	movs	r4, #1
    2bd8:	6173      	str	r3, [r6, #20]
    2bda:	6134      	str	r4, [r6, #16]
    2bdc:	3020      	adds	r0, #32
    2bde:	b13f      	cbz	r7, 2bf0 <__d2b+0x82>
    2be0:	f2a7 4733 	subw	r7, r7, #1075	; 0x433
    2be4:	4407      	add	r7, r0
    2be6:	f8c9 7000 	str.w	r7, [r9]
    2bea:	f1c0 0035 	rsb	r0, r0, #53	; 0x35
    2bee:	e00a      	b.n	2c06 <__d2b+0x98>
    2bf0:	f2a0 4032 	subw	r0, r0, #1074	; 0x432
    2bf4:	eb06 0384 	add.w	r3, r6, r4, lsl #2
    2bf8:	f8c9 0000 	str.w	r0, [r9]
    2bfc:	6918      	ldr	r0, [r3, #16]
    2bfe:	f7ff fd34 	bl	266a <__hi0bits>
    2c02:	ebc0 1044 	rsb	r0, r0, r4, lsl #5
    2c06:	f8c8 0000 	str.w	r0, [r8]
    2c0a:	4630      	mov	r0, r6
    2c0c:	b003      	add	sp, #12
    2c0e:	e8bd 83f0 	ldmia.w	sp!, {r4, r5, r6, r7, r8, r9, pc}

00002c12 <__ratio>:
    2c12:	e92d 41f3 	stmdb	sp!, {r0, r1, r4, r5, r6, r7, r8, lr}
    2c16:	460e      	mov	r6, r1
    2c18:	4669      	mov	r1, sp
    2c1a:	4680      	mov	r8, r0
    2c1c:	f7ff ff54 	bl	2ac8 <__b2d>
    2c20:	460d      	mov	r5, r1
    2c22:	4604      	mov	r4, r0
    2c24:	a901      	add	r1, sp, #4
    2c26:	4630      	mov	r0, r6
    2c28:	f7ff ff4e 	bl	2ac8 <__b2d>
    2c2c:	9f00      	ldr	r7, [sp, #0]
    2c2e:	460b      	mov	r3, r1
    2c30:	9901      	ldr	r1, [sp, #4]
    2c32:	4602      	mov	r2, r0
    2c34:	1a7f      	subs	r7, r7, r1
    2c36:	f8d8 0010 	ldr.w	r0, [r8, #16]
    2c3a:	6931      	ldr	r1, [r6, #16]
    2c3c:	1a41      	subs	r1, r0, r1
    2c3e:	eb07 1141 	add.w	r1, r7, r1, lsl #5
    2c42:	2900      	cmp	r1, #0
    2c44:	bfcc      	ite	gt
    2c46:	eb05 5501 	addgt.w	r5, r5, r1, lsl #20
    2c4a:	eba3 5301 	suble.w	r3, r3, r1, lsl #20
    2c4e:	4620      	mov	r0, r4
    2c50:	4629      	mov	r1, r5
    2c52:	f001 fcf5 	bl	4640 <__aeabi_ddiv>
    2c56:	b002      	add	sp, #8
    2c58:	e8bd 81f0 	ldmia.w	sp!, {r4, r5, r6, r7, r8, pc}

00002c5c <__copybits>:
    2c5c:	b510      	push	{r4, lr}
    2c5e:	3901      	subs	r1, #1
    2c60:	f102 0314 	add.w	r3, r2, #20
    2c64:	1149      	asrs	r1, r1, #5
    2c66:	6912      	ldr	r2, [r2, #16]
    2c68:	3101      	adds	r1, #1
    2c6a:	eb00 0181 	add.w	r1, r0, r1, lsl #2
    2c6e:	eb03 0282 	add.w	r2, r3, r2, lsl #2
    2c72:	4293      	cmp	r3, r2
    2c74:	d204      	bcs.n	2c80 <__copybits+0x24>
    2c76:	f853 4b04 	ldr.w	r4, [r3], #4
    2c7a:	f840 4b04 	str.w	r4, [r0], #4
    2c7e:	e7f8      	b.n	2c72 <__copybits+0x16>
    2c80:	4288      	cmp	r0, r1
    2c82:	d203      	bcs.n	2c8c <__copybits+0x30>
    2c84:	2300      	movs	r3, #0
    2c86:	f840 3b04 	str.w	r3, [r0], #4
    2c8a:	e7f9      	b.n	2c80 <__copybits+0x24>
    2c8c:	bd10      	pop	{r4, pc}

00002c8e <__any_on>:
    2c8e:	f100 0214 	add.w	r2, r0, #20
    2c92:	6900      	ldr	r0, [r0, #16]
    2c94:	114b      	asrs	r3, r1, #5
    2c96:	4283      	cmp	r3, r0
    2c98:	b510      	push	{r4, lr}
    2c9a:	dc0c      	bgt.n	2cb6 <__any_on+0x28>
    2c9c:	da0c      	bge.n	2cb8 <__any_on+0x2a>
    2c9e:	f011 011f 	ands.w	r1, r1, #31
    2ca2:	d009      	beq.n	2cb8 <__any_on+0x2a>
    2ca4:	f852 0023 	ldr.w	r0, [r2, r3, lsl #2]
    2ca8:	fa20 f401 	lsr.w	r4, r0, r1
    2cac:	fa04 f101 	lsl.w	r1, r4, r1
    2cb0:	4281      	cmp	r1, r0
    2cb2:	d10e      	bne.n	2cd2 <__any_on+0x44>
    2cb4:	e000      	b.n	2cb8 <__any_on+0x2a>
    2cb6:	4603      	mov	r3, r0
    2cb8:	eb02 0383 	add.w	r3, r2, r3, lsl #2
    2cbc:	4293      	cmp	r3, r2
    2cbe:	4619      	mov	r1, r3
    2cc0:	d905      	bls.n	2cce <__any_on+0x40>
    2cc2:	f851 1c04 	ldr.w	r1, [r1, #-4]
    2cc6:	3b04      	subs	r3, #4
    2cc8:	2900      	cmp	r1, #0
    2cca:	d0f7      	beq.n	2cbc <__any_on+0x2e>
    2ccc:	e001      	b.n	2cd2 <__any_on+0x44>
    2cce:	2000      	movs	r0, #0
    2cd0:	bd10      	pop	{r4, pc}
    2cd2:	2001      	movs	r0, #1
    2cd4:	bd10      	pop	{r4, pc}

00002cd6 <_calloc_r>:
    2cd6:	b538      	push	{r3, r4, r5, lr}
    2cd8:	fb02 f401 	mul.w	r4, r2, r1
    2cdc:	4621      	mov	r1, r4
    2cde:	f7fd fcf9 	bl	6d4 <_malloc_r>
    2ce2:	4605      	mov	r5, r0
    2ce4:	b118      	cbz	r0, 2cee <_calloc_r+0x18>
    2ce6:	2100      	movs	r1, #0
    2ce8:	4622      	mov	r2, r4
    2cea:	f7fd fca6 	bl	63a <memset>
    2cee:	4628      	mov	r0, r5
    2cf0:	bd38      	pop	{r3, r4, r5, pc}

00002cf2 <_realloc_r>:
    2cf2:	b5f8      	push	{r3, r4, r5, r6, r7, lr}
    2cf4:	4606      	mov	r6, r0
    2cf6:	4614      	mov	r4, r2
    2cf8:	460d      	mov	r5, r1
    2cfa:	b921      	cbnz	r1, 2d06 <_realloc_r+0x14>
    2cfc:	4611      	mov	r1, r2
    2cfe:	e8bd 40f8 	ldmia.w	sp!, {r3, r4, r5, r6, r7, lr}
    2d02:	f7fd bce7 	b.w	6d4 <_malloc_r>
    2d06:	b91a      	cbnz	r2, 2d10 <_realloc_r+0x1e>
    2d08:	f7fd fca0 	bl	64c <_free_r>
    2d0c:	4620      	mov	r0, r4
    2d0e:	bdf8      	pop	{r3, r4, r5, r6, r7, pc}
    2d10:	f001 f9aa 	bl	4068 <_malloc_usable_size_r>
    2d14:	42a0      	cmp	r0, r4
    2d16:	d20e      	bcs.n	2d36 <_realloc_r+0x44>
    2d18:	4630      	mov	r0, r6
    2d1a:	4621      	mov	r1, r4
    2d1c:	f7fd fcda 	bl	6d4 <_malloc_r>
    2d20:	4607      	mov	r7, r0
    2d22:	b150      	cbz	r0, 2d3a <_realloc_r+0x48>
    2d24:	4629      	mov	r1, r5
    2d26:	4622      	mov	r2, r4
    2d28:	f7fd fc7e 	bl	628 <memcpy>
    2d2c:	4630      	mov	r0, r6
    2d2e:	4629      	mov	r1, r5
    2d30:	f7fd fc8c 	bl	64c <_free_r>
    2d34:	e001      	b.n	2d3a <_realloc_r+0x48>
    2d36:	4628      	mov	r0, r5
    2d38:	bdf8      	pop	{r3, r4, r5, r6, r7, pc}
    2d3a:	4638      	mov	r0, r7
    2d3c:	bdf8      	pop	{r3, r4, r5, r6, r7, pc}
	...

00002d40 <__fpclassifyd>:
    2d40:	f031 4300 	bics.w	r3, r1, #2147483648	; 0x80000000
    2d44:	b510      	push	{r4, lr}
    2d46:	d100      	bne.n	2d4a <__fpclassifyd+0xa>
    2d48:	b178      	cbz	r0, 2d6a <__fpclassifyd+0x2a>
    2d4a:	4a0c      	ldr	r2, [pc, #48]	; (2d7c <__fpclassifyd+0x3c>)
    2d4c:	f5a3 1480 	sub.w	r4, r3, #1048576	; 0x100000
    2d50:	4294      	cmp	r4, r2
    2d52:	d90c      	bls.n	2d6e <__fpclassifyd+0x2e>
    2d54:	f5b3 1f80 	cmp.w	r3, #1048576	; 0x100000
    2d58:	d30b      	bcc.n	2d72 <__fpclassifyd+0x32>
    2d5a:	4a09      	ldr	r2, [pc, #36]	; (2d80 <__fpclassifyd+0x40>)
    2d5c:	4293      	cmp	r3, r2
    2d5e:	d10a      	bne.n	2d76 <__fpclassifyd+0x36>
    2d60:	f1d0 0001 	rsbs	r0, r0, #1
    2d64:	bf38      	it	cc
    2d66:	2000      	movcc	r0, #0
    2d68:	bd10      	pop	{r4, pc}
    2d6a:	2002      	movs	r0, #2
    2d6c:	bd10      	pop	{r4, pc}
    2d6e:	2004      	movs	r0, #4
    2d70:	bd10      	pop	{r4, pc}
    2d72:	2003      	movs	r0, #3
    2d74:	bd10      	pop	{r4, pc}
    2d76:	2000      	movs	r0, #0
    2d78:	bd10      	pop	{r4, pc}
    2d7a:	bf00      	nop
    2d7c:	7fdfffff 	svcvc	0x00dfffff
    2d80:	7ff00000 	svcvc	0x00f00000	; IMB

00002d84 <nanf>:
    2d84:	4800      	ldr	r0, [pc, #0]	; (2d88 <nanf+0x4>)
    2d86:	4770      	bx	lr
    2d88:	7fc00000 	svcvc	0x00c00000

00002d8c <match>:
    2d8c:	b530      	push	{r4, r5, lr}
    2d8e:	6802      	ldr	r2, [r0, #0]
    2d90:	f811 5b01 	ldrb.w	r5, [r1], #1
    2d94:	1c54      	adds	r4, r2, #1
    2d96:	b155      	cbz	r5, 2dae <match+0x22>
    2d98:	7853      	ldrb	r3, [r2, #1]
    2d9a:	4622      	mov	r2, r4
    2d9c:	f1a3 0441 	sub.w	r4, r3, #65	; 0x41
    2da0:	2c19      	cmp	r4, #25
    2da2:	bf98      	it	ls
    2da4:	3320      	addls	r3, #32
    2da6:	42ab      	cmp	r3, r5
    2da8:	d0f2      	beq.n	2d90 <match+0x4>
    2daa:	2000      	movs	r0, #0
    2dac:	bd30      	pop	{r4, r5, pc}
    2dae:	6004      	str	r4, [r0, #0]
    2db0:	2001      	movs	r0, #1
    2db2:	bd30      	pop	{r4, r5, pc}

00002db4 <sulp>:
    2db4:	e92d 41f0 	stmdb	sp!, {r4, r5, r6, r7, r8, lr}
    2db8:	460d      	mov	r5, r1
    2dba:	4690      	mov	r8, r2
    2dbc:	f7ff fe62 	bl	2a84 <__ulp>
    2dc0:	4606      	mov	r6, r0
    2dc2:	460f      	mov	r7, r1
    2dc4:	f1b8 0f00 	cmp.w	r8, #0
    2dc8:	d00f      	beq.n	2dea <sulp+0x36>
    2dca:	f3c5 530a 	ubfx	r3, r5, #20, #11
    2dce:	f1c3 036b 	rsb	r3, r3, #107	; 0x6b
    2dd2:	2b00      	cmp	r3, #0
    2dd4:	dd09      	ble.n	2dea <sulp+0x36>
    2dd6:	051c      	lsls	r4, r3, #20
    2dd8:	f104 537f 	add.w	r3, r4, #1069547520	; 0x3fc00000
    2ddc:	f503 1340 	add.w	r3, r3, #3145728	; 0x300000
    2de0:	2200      	movs	r2, #0
    2de2:	f001 fb03 	bl	43ec <__aeabi_dmul>
    2de6:	e8bd 81f0 	ldmia.w	sp!, {r4, r5, r6, r7, r8, pc}
    2dea:	4630      	mov	r0, r6
    2dec:	4639      	mov	r1, r7
    2dee:	e8bd 81f0 	ldmia.w	sp!, {r4, r5, r6, r7, r8, pc}
    2df2:	0000      	movs	r0, r0
    2df4:	0000      	movs	r0, r0
	...

00002df8 <_strtod_r>:
    2df8:	e92d 4ff0 	stmdb	sp!, {r4, r5, r6, r7, r8, r9, sl, fp, lr}
    2dfc:	2300      	movs	r3, #0
    2dfe:	b09f      	sub	sp, #124	; 0x7c
    2e00:	4681      	mov	r9, r0
    2e02:	9104      	str	r1, [sp, #16]
    2e04:	9215      	str	r2, [sp, #84]	; 0x54
    2e06:	931a      	str	r3, [sp, #104]	; 0x68
    2e08:	f04f 0a00 	mov.w	sl, #0
    2e0c:	f04f 0b00 	mov.w	fp, #0
    2e10:	9119      	str	r1, [sp, #100]	; 0x64
    2e12:	9a19      	ldr	r2, [sp, #100]	; 0x64
    2e14:	7813      	ldrb	r3, [r2, #0]
    2e16:	2b0d      	cmp	r3, #13
    2e18:	d805      	bhi.n	2e26 <_strtod_r+0x2e>
    2e1a:	2b09      	cmp	r3, #9
    2e1c:	d214      	bcs.n	2e48 <_strtod_r+0x50>
    2e1e:	2b00      	cmp	r3, #0
    2e20:	f000 81b1 	beq.w	3186 <_strtod_r+0x38e>
    2e24:	e013      	b.n	2e4e <_strtod_r+0x56>
    2e26:	2b2b      	cmp	r3, #43	; 0x2b
    2e28:	d007      	beq.n	2e3a <_strtod_r+0x42>
    2e2a:	2b2d      	cmp	r3, #45	; 0x2d
    2e2c:	d002      	beq.n	2e34 <_strtod_r+0x3c>
    2e2e:	2b20      	cmp	r3, #32
    2e30:	d10d      	bne.n	2e4e <_strtod_r+0x56>
    2e32:	e009      	b.n	2e48 <_strtod_r+0x50>
    2e34:	2601      	movs	r6, #1
    2e36:	9609      	str	r6, [sp, #36]	; 0x24
    2e38:	e001      	b.n	2e3e <_strtod_r+0x46>
    2e3a:	2700      	movs	r7, #0
    2e3c:	9709      	str	r7, [sp, #36]	; 0x24
    2e3e:	1c53      	adds	r3, r2, #1
    2e40:	9319      	str	r3, [sp, #100]	; 0x64
    2e42:	7853      	ldrb	r3, [r2, #1]
    2e44:	b92b      	cbnz	r3, 2e52 <_strtod_r+0x5a>
    2e46:	e19e      	b.n	3186 <_strtod_r+0x38e>
    2e48:	3201      	adds	r2, #1
    2e4a:	9219      	str	r2, [sp, #100]	; 0x64
    2e4c:	e7e1      	b.n	2e12 <_strtod_r+0x1a>
    2e4e:	2600      	movs	r6, #0
    2e50:	9609      	str	r6, [sp, #36]	; 0x24
    2e52:	9c19      	ldr	r4, [sp, #100]	; 0x64
    2e54:	7823      	ldrb	r3, [r4, #0]
    2e56:	2b30      	cmp	r3, #48	; 0x30
    2e58:	d15a      	bne.n	2f10 <_strtod_r+0x118>
    2e5a:	7863      	ldrb	r3, [r4, #1]
    2e5c:	2b58      	cmp	r3, #88	; 0x58
    2e5e:	d001      	beq.n	2e64 <_strtod_r+0x6c>
    2e60:	2b78      	cmp	r3, #120	; 0x78
    2e62:	d149      	bne.n	2ef8 <_strtod_r+0x100>
    2e64:	9f09      	ldr	r7, [sp, #36]	; 0x24
    2e66:	ab1a      	add	r3, sp, #104	; 0x68
    2e68:	9300      	str	r3, [sp, #0]
    2e6a:	9701      	str	r7, [sp, #4]
    2e6c:	4648      	mov	r0, r9
    2e6e:	a919      	add	r1, sp, #100	; 0x64
    2e70:	4a9c      	ldr	r2, [pc, #624]	; (30e4 <_strtod_r+0x2ec>)
    2e72:	ab1b      	add	r3, sp, #108	; 0x6c
    2e74:	f000 fe26 	bl	3ac4 <__gethex>
    2e78:	f010 0607 	ands.w	r6, r0, #7
    2e7c:	4605      	mov	r5, r0
    2e7e:	f000 85ad 	beq.w	39dc <_strtod_r+0xbe4>
    2e82:	2e06      	cmp	r6, #6
    2e84:	d102      	bne.n	2e8c <_strtod_r+0x94>
    2e86:	3401      	adds	r4, #1
    2e88:	9419      	str	r4, [sp, #100]	; 0x64
    2e8a:	e17e      	b.n	318a <_strtod_r+0x392>
    2e8c:	9a1a      	ldr	r2, [sp, #104]	; 0x68
    2e8e:	b13a      	cbz	r2, 2ea0 <_strtod_r+0xa8>
    2e90:	a81c      	add	r0, sp, #112	; 0x70
    2e92:	2135      	movs	r1, #53	; 0x35
    2e94:	f7ff fee2 	bl	2c5c <__copybits>
    2e98:	4648      	mov	r0, r9
    2e9a:	991a      	ldr	r1, [sp, #104]	; 0x68
    2e9c:	f7ff fb52 	bl	2544 <_Bfree>
    2ea0:	9a1b      	ldr	r2, [sp, #108]	; 0x6c
    2ea2:	2e06      	cmp	r6, #6
    2ea4:	d821      	bhi.n	2eea <_strtod_r+0xf2>
    2ea6:	e8df f006 	tbb	[pc, r6]
    2eaa:	17080d04 	strne	r0, [r8, -r4, lsl #26]
    2eae:	00040d1c 	andeq	r0, r4, ip, lsl sp
    2eb2:	f04f 0b00 	mov.w	fp, #0
    2eb6:	46da      	mov	sl, fp
    2eb8:	e017      	b.n	2eea <_strtod_r+0xf2>
    2eba:	f8dd a070 	ldr.w	sl, [sp, #112]	; 0x70
    2ebe:	f8dd b074 	ldr.w	fp, [sp, #116]	; 0x74
    2ec2:	e012      	b.n	2eea <_strtod_r+0xf2>
    2ec4:	9b1d      	ldr	r3, [sp, #116]	; 0x74
    2ec6:	f202 4233 	addw	r2, r2, #1075	; 0x433
    2eca:	f423 1380 	bic.w	r3, r3, #1048576	; 0x100000
    2ece:	f8dd a070 	ldr.w	sl, [sp, #112]	; 0x70
    2ed2:	ea43 5b02 	orr.w	fp, r3, r2, lsl #20
    2ed6:	e008      	b.n	2eea <_strtod_r+0xf2>
    2ed8:	f8df b20c 	ldr.w	fp, [pc, #524]	; 30e8 <_strtod_r+0x2f0>
    2edc:	f04f 0a00 	mov.w	sl, #0
    2ee0:	e003      	b.n	2eea <_strtod_r+0xf2>
    2ee2:	f06f 4b00 	mvn.w	fp, #2147483648	; 0x80000000
    2ee6:	f04f 3aff 	mov.w	sl, #4294967295	; 0xffffffff
    2eea:	072b      	lsls	r3, r5, #28
    2eec:	f140 8576 	bpl.w	39dc <_strtod_r+0xbe4>
    2ef0:	f04b 4b00 	orr.w	fp, fp, #2147483648	; 0x80000000
    2ef4:	f000 bd72 	b.w	39dc <_strtod_r+0xbe4>
    2ef8:	9b19      	ldr	r3, [sp, #100]	; 0x64
    2efa:	1c5a      	adds	r2, r3, #1
    2efc:	9219      	str	r2, [sp, #100]	; 0x64
    2efe:	785b      	ldrb	r3, [r3, #1]
    2f00:	2b30      	cmp	r3, #48	; 0x30
    2f02:	d0f9      	beq.n	2ef8 <_strtod_r+0x100>
    2f04:	2b00      	cmp	r3, #0
    2f06:	f000 8569 	beq.w	39dc <_strtod_r+0xbe4>
    2f0a:	2301      	movs	r3, #1
    2f0c:	9305      	str	r3, [sp, #20]
    2f0e:	e001      	b.n	2f14 <_strtod_r+0x11c>
    2f10:	2600      	movs	r6, #0
    2f12:	9605      	str	r6, [sp, #20]
    2f14:	9f19      	ldr	r7, [sp, #100]	; 0x64
    2f16:	f04f 0800 	mov.w	r8, #0
    2f1a:	9707      	str	r7, [sp, #28]
    2f1c:	f8cd 800c 	str.w	r8, [sp, #12]
    2f20:	4644      	mov	r4, r8
    2f22:	9e19      	ldr	r6, [sp, #100]	; 0x64
    2f24:	7835      	ldrb	r5, [r6, #0]
    2f26:	f1a5 0330 	sub.w	r3, r5, #48	; 0x30
    2f2a:	b2da      	uxtb	r2, r3
    2f2c:	2a09      	cmp	r2, #9
    2f2e:	d810      	bhi.n	2f52 <_strtod_r+0x15a>
    2f30:	2c08      	cmp	r4, #8
    2f32:	bfd8      	it	le
    2f34:	9f03      	ldrle	r7, [sp, #12]
    2f36:	f04f 020a 	mov.w	r2, #10
    2f3a:	bfd8      	it	le
    2f3c:	fb02 3707 	mlale	r7, r2, r7, r3
    2f40:	f106 0601 	add.w	r6, r6, #1
    2f44:	bfd4      	ite	le
    2f46:	9703      	strle	r7, [sp, #12]
    2f48:	fb02 3808 	mlagt	r8, r2, r8, r3
    2f4c:	3401      	adds	r4, #1
    2f4e:	9619      	str	r6, [sp, #100]	; 0x64
    2f50:	e7e7      	b.n	2f22 <_strtod_r+0x12a>
    2f52:	4648      	mov	r0, r9
    2f54:	f7ff fa94 	bl	2480 <_localeconv_r>
    2f58:	6807      	ldr	r7, [r0, #0]
    2f5a:	4648      	mov	r0, r9
    2f5c:	f7ff fa90 	bl	2480 <_localeconv_r>
    2f60:	6800      	ldr	r0, [r0, #0]
    2f62:	f7fd fc3f 	bl	7e4 <strlen>
    2f66:	4639      	mov	r1, r7
    2f68:	4602      	mov	r2, r0
    2f6a:	4630      	mov	r0, r6
    2f6c:	f7fd fc42 	bl	7f4 <strncmp>
    2f70:	4606      	mov	r6, r0
    2f72:	b128      	cbz	r0, 2f80 <_strtod_r+0x188>
    2f74:	2300      	movs	r3, #0
    2f76:	462a      	mov	r2, r5
    2f78:	4619      	mov	r1, r3
    2f7a:	4625      	mov	r5, r4
    2f7c:	930a      	str	r3, [sp, #40]	; 0x28
    2f7e:	e05f      	b.n	3040 <_strtod_r+0x248>
    2f80:	4648      	mov	r0, r9
    2f82:	9d19      	ldr	r5, [sp, #100]	; 0x64
    2f84:	f7ff fa7c 	bl	2480 <_localeconv_r>
    2f88:	6800      	ldr	r0, [r0, #0]
    2f8a:	f7fd fc2b 	bl	7e4 <strlen>
    2f8e:	182b      	adds	r3, r5, r0
    2f90:	9319      	str	r3, [sp, #100]	; 0x64
    2f92:	5c2a      	ldrb	r2, [r5, r0]
    2f94:	2c00      	cmp	r4, #0
    2f96:	d145      	bne.n	3024 <_strtod_r+0x22c>
    2f98:	4623      	mov	r3, r4
    2f9a:	2a30      	cmp	r2, #48	; 0x30
    2f9c:	d105      	bne.n	2faa <_strtod_r+0x1b2>
    2f9e:	9a19      	ldr	r2, [sp, #100]	; 0x64
    2fa0:	3301      	adds	r3, #1
    2fa2:	1c51      	adds	r1, r2, #1
    2fa4:	9119      	str	r1, [sp, #100]	; 0x64
    2fa6:	7852      	ldrb	r2, [r2, #1]
    2fa8:	e7f7      	b.n	2f9a <_strtod_r+0x1a2>
    2faa:	f1a2 0131 	sub.w	r1, r2, #49	; 0x31
    2fae:	2908      	cmp	r1, #8
    2fb0:	d842      	bhi.n	3038 <_strtod_r+0x240>
    2fb2:	9e19      	ldr	r6, [sp, #100]	; 0x64
    2fb4:	4619      	mov	r1, r3
    2fb6:	2300      	movs	r3, #0
    2fb8:	9607      	str	r6, [sp, #28]
    2fba:	461d      	mov	r5, r3
    2fbc:	3a30      	subs	r2, #48	; 0x30
    2fbe:	f103 0001 	add.w	r0, r3, #1
    2fc2:	d029      	beq.n	3018 <_strtod_r+0x220>
    2fc4:	4401      	add	r1, r0
    2fc6:	1c6e      	adds	r6, r5, #1
    2fc8:	1b77      	subs	r7, r6, r5
    2fca:	4287      	cmp	r7, r0
    2fcc:	da10      	bge.n	2ff0 <_strtod_r+0x1f8>
    2fce:	1e77      	subs	r7, r6, #1
    2fd0:	2f08      	cmp	r7, #8
    2fd2:	dc06      	bgt.n	2fe2 <_strtod_r+0x1ea>
    2fd4:	9f03      	ldr	r7, [sp, #12]
    2fd6:	f04f 0c0a 	mov.w	ip, #10
    2fda:	fb0c f707 	mul.w	r7, ip, r7
    2fde:	9703      	str	r7, [sp, #12]
    2fe0:	e004      	b.n	2fec <_strtod_r+0x1f4>
    2fe2:	2e10      	cmp	r6, #16
    2fe4:	bfdc      	itt	le
    2fe6:	270a      	movle	r7, #10
    2fe8:	fb07 f808 	mulle.w	r8, r7, r8
    2fec:	3601      	adds	r6, #1
    2fee:	e7eb      	b.n	2fc8 <_strtod_r+0x1d0>
    2ff0:	2b00      	cmp	r3, #0
    2ff2:	bfac      	ite	ge
    2ff4:	18eb      	addge	r3, r5, r3
    2ff6:	1c2b      	addlt	r3, r5, #0
    2ff8:	2b08      	cmp	r3, #8
    2ffa:	f103 0501 	add.w	r5, r3, #1
    2ffe:	dc05      	bgt.n	300c <_strtod_r+0x214>
    3000:	9e03      	ldr	r6, [sp, #12]
    3002:	230a      	movs	r3, #10
    3004:	fb03 2606 	mla	r6, r3, r6, r2
    3008:	9603      	str	r6, [sp, #12]
    300a:	e004      	b.n	3016 <_strtod_r+0x21e>
    300c:	2d10      	cmp	r5, #16
    300e:	bfdc      	itt	le
    3010:	230a      	movle	r3, #10
    3012:	fb03 2808 	mlale	r8, r3, r8, r2
    3016:	2000      	movs	r0, #0
    3018:	9b19      	ldr	r3, [sp, #100]	; 0x64
    301a:	1c5a      	adds	r2, r3, #1
    301c:	9219      	str	r2, [sp, #100]	; 0x64
    301e:	785a      	ldrb	r2, [r3, #1]
    3020:	4603      	mov	r3, r0
    3022:	e002      	b.n	302a <_strtod_r+0x232>
    3024:	4625      	mov	r5, r4
    3026:	4633      	mov	r3, r6
    3028:	4631      	mov	r1, r6
    302a:	f1a2 0030 	sub.w	r0, r2, #48	; 0x30
    302e:	2809      	cmp	r0, #9
    3030:	d9c4      	bls.n	2fbc <_strtod_r+0x1c4>
    3032:	2701      	movs	r7, #1
    3034:	970a      	str	r7, [sp, #40]	; 0x28
    3036:	e003      	b.n	3040 <_strtod_r+0x248>
    3038:	2500      	movs	r5, #0
    303a:	2001      	movs	r0, #1
    303c:	4629      	mov	r1, r5
    303e:	900a      	str	r0, [sp, #40]	; 0x28
    3040:	f022 0620 	bic.w	r6, r2, #32
    3044:	2e45      	cmp	r6, #69	; 0x45
    3046:	d153      	bne.n	30f0 <_strtod_r+0x2f8>
    3048:	b925      	cbnz	r5, 3054 <_strtod_r+0x25c>
    304a:	b91b      	cbnz	r3, 3054 <_strtod_r+0x25c>
    304c:	9e05      	ldr	r6, [sp, #20]
    304e:	2e00      	cmp	r6, #0
    3050:	f000 8099 	beq.w	3186 <_strtod_r+0x38e>
    3054:	9f19      	ldr	r7, [sp, #100]	; 0x64
    3056:	1c7a      	adds	r2, r7, #1
    3058:	9219      	str	r2, [sp, #100]	; 0x64
    305a:	787a      	ldrb	r2, [r7, #1]
    305c:	9704      	str	r7, [sp, #16]
    305e:	2a2b      	cmp	r2, #43	; 0x2b
    3060:	d004      	beq.n	306c <_strtod_r+0x274>
    3062:	2a2d      	cmp	r2, #45	; 0x2d
    3064:	d005      	beq.n	3072 <_strtod_r+0x27a>
    3066:	2600      	movs	r6, #0
    3068:	960f      	str	r6, [sp, #60]	; 0x3c
    306a:	e008      	b.n	307e <_strtod_r+0x286>
    306c:	2000      	movs	r0, #0
    306e:	900f      	str	r0, [sp, #60]	; 0x3c
    3070:	e001      	b.n	3076 <_strtod_r+0x27e>
    3072:	2701      	movs	r7, #1
    3074:	970f      	str	r7, [sp, #60]	; 0x3c
    3076:	9e04      	ldr	r6, [sp, #16]
    3078:	1cb2      	adds	r2, r6, #2
    307a:	9219      	str	r2, [sp, #100]	; 0x64
    307c:	78b2      	ldrb	r2, [r6, #2]
    307e:	f1a2 0730 	sub.w	r7, r2, #48	; 0x30
    3082:	2f09      	cmp	r7, #9
    3084:	d832      	bhi.n	30ec <_strtod_r+0x2f4>
    3086:	2a30      	cmp	r2, #48	; 0x30
    3088:	d104      	bne.n	3094 <_strtod_r+0x29c>
    308a:	9a19      	ldr	r2, [sp, #100]	; 0x64
    308c:	1c57      	adds	r7, r2, #1
    308e:	9719      	str	r7, [sp, #100]	; 0x64
    3090:	7852      	ldrb	r2, [r2, #1]
    3092:	e7f8      	b.n	3086 <_strtod_r+0x28e>
    3094:	f1a2 0731 	sub.w	r7, r2, #49	; 0x31
    3098:	2f08      	cmp	r7, #8
    309a:	d829      	bhi.n	30f0 <_strtod_r+0x2f8>
    309c:	9819      	ldr	r0, [sp, #100]	; 0x64
    309e:	f1a2 0730 	sub.w	r7, r2, #48	; 0x30
    30a2:	9006      	str	r0, [sp, #24]
    30a4:	9a19      	ldr	r2, [sp, #100]	; 0x64
    30a6:	1c56      	adds	r6, r2, #1
    30a8:	9619      	str	r6, [sp, #100]	; 0x64
    30aa:	7852      	ldrb	r2, [r2, #1]
    30ac:	960e      	str	r6, [sp, #56]	; 0x38
    30ae:	f1a2 0630 	sub.w	r6, r2, #48	; 0x30
    30b2:	2e09      	cmp	r6, #9
    30b4:	d805      	bhi.n	30c2 <_strtod_r+0x2ca>
    30b6:	f04f 0c0a 	mov.w	ip, #10
    30ba:	fb0c 2707 	mla	r7, ip, r7, r2
    30be:	3f30      	subs	r7, #48	; 0x30
    30c0:	e7f0      	b.n	30a4 <_strtod_r+0x2ac>
    30c2:	980e      	ldr	r0, [sp, #56]	; 0x38
    30c4:	9e06      	ldr	r6, [sp, #24]
    30c6:	ebc6 0c00 	rsb	ip, r6, r0
    30ca:	f1bc 0f08 	cmp.w	ip, #8
    30ce:	f644 6c1f 	movw	ip, #19999	; 0x4e1f
    30d2:	dc02      	bgt.n	30da <_strtod_r+0x2e2>
    30d4:	4567      	cmp	r7, ip
    30d6:	bfb8      	it	lt
    30d8:	46bc      	movlt	ip, r7
    30da:	9f0f      	ldr	r7, [sp, #60]	; 0x3c
    30dc:	b157      	cbz	r7, 30f4 <_strtod_r+0x2fc>
    30de:	f1cc 0c00 	rsb	ip, ip, #0
    30e2:	e007      	b.n	30f4 <_strtod_r+0x2fc>
    30e4:	00004d88 	andeq	r4, r0, r8, lsl #27
    30e8:	7ff00000 	svcvc	0x00f00000	; IMB
    30ec:	9e04      	ldr	r6, [sp, #16]
    30ee:	9619      	str	r6, [sp, #100]	; 0x64
    30f0:	f04f 0c00 	mov.w	ip, #0
    30f4:	2d00      	cmp	r5, #0
    30f6:	d14c      	bne.n	3192 <_strtod_r+0x39a>
    30f8:	2b00      	cmp	r3, #0
    30fa:	f040 846f 	bne.w	39dc <_strtod_r+0xbe4>
    30fe:	9f05      	ldr	r7, [sp, #20]
    3100:	2f00      	cmp	r7, #0
    3102:	f040 846b 	bne.w	39dc <_strtod_r+0xbe4>
    3106:	980a      	ldr	r0, [sp, #40]	; 0x28
    3108:	2800      	cmp	r0, #0
    310a:	d13c      	bne.n	3186 <_strtod_r+0x38e>
    310c:	2a4e      	cmp	r2, #78	; 0x4e
    310e:	d01b      	beq.n	3148 <_strtod_r+0x350>
    3110:	dc02      	bgt.n	3118 <_strtod_r+0x320>
    3112:	2a49      	cmp	r2, #73	; 0x49
    3114:	d005      	beq.n	3122 <_strtod_r+0x32a>
    3116:	e036      	b.n	3186 <_strtod_r+0x38e>
    3118:	2a69      	cmp	r2, #105	; 0x69
    311a:	d002      	beq.n	3122 <_strtod_r+0x32a>
    311c:	2a6e      	cmp	r2, #110	; 0x6e
    311e:	d013      	beq.n	3148 <_strtod_r+0x350>
    3120:	e031      	b.n	3186 <_strtod_r+0x38e>
    3122:	a819      	add	r0, sp, #100	; 0x64
    3124:	49ac      	ldr	r1, [pc, #688]	; (33d8 <_strtod_r+0x5e0>)
    3126:	f7ff fe31 	bl	2d8c <match>
    312a:	b360      	cbz	r0, 3186 <_strtod_r+0x38e>
    312c:	9b19      	ldr	r3, [sp, #100]	; 0x64
    312e:	a819      	add	r0, sp, #100	; 0x64
    3130:	3b01      	subs	r3, #1
    3132:	49aa      	ldr	r1, [pc, #680]	; (33dc <_strtod_r+0x5e4>)
    3134:	9319      	str	r3, [sp, #100]	; 0x64
    3136:	f7ff fe29 	bl	2d8c <match>
    313a:	b910      	cbnz	r0, 3142 <_strtod_r+0x34a>
    313c:	9b19      	ldr	r3, [sp, #100]	; 0x64
    313e:	3301      	adds	r3, #1
    3140:	9319      	str	r3, [sp, #100]	; 0x64
    3142:	f8df b2b4 	ldr.w	fp, [pc, #692]	; 33f8 <_strtod_r+0x600>
    3146:	e01a      	b.n	317e <_strtod_r+0x386>
    3148:	a819      	add	r0, sp, #100	; 0x64
    314a:	49a5      	ldr	r1, [pc, #660]	; (33e0 <_strtod_r+0x5e8>)
    314c:	f7ff fe1e 	bl	2d8c <match>
    3150:	b1c8      	cbz	r0, 3186 <_strtod_r+0x38e>
    3152:	9b19      	ldr	r3, [sp, #100]	; 0x64
    3154:	781b      	ldrb	r3, [r3, #0]
    3156:	2b28      	cmp	r3, #40	; 0x28
    3158:	d10f      	bne.n	317a <_strtod_r+0x382>
    315a:	a819      	add	r0, sp, #100	; 0x64
    315c:	49a1      	ldr	r1, [pc, #644]	; (33e4 <_strtod_r+0x5ec>)
    315e:	aa1c      	add	r2, sp, #112	; 0x70
    3160:	f000 fef2 	bl	3f48 <__hexnan>
    3164:	2805      	cmp	r0, #5
    3166:	d108      	bne.n	317a <_strtod_r+0x382>
    3168:	9b1d      	ldr	r3, [sp, #116]	; 0x74
    316a:	f8dd a070 	ldr.w	sl, [sp, #112]	; 0x70
    316e:	f043 4bff 	orr.w	fp, r3, #2139095040	; 0x7f800000
    3172:	f44b 0be0 	orr.w	fp, fp, #7340032	; 0x700000
    3176:	f000 bc31 	b.w	39dc <_strtod_r+0xbe4>
    317a:	f8df b280 	ldr.w	fp, [pc, #640]	; 33fc <_strtod_r+0x604>
    317e:	f04f 0a00 	mov.w	sl, #0
    3182:	f000 bc2b 	b.w	39dc <_strtod_r+0xbe4>
    3186:	9b04      	ldr	r3, [sp, #16]
    3188:	9319      	str	r3, [sp, #100]	; 0x64
    318a:	2600      	movs	r6, #0
    318c:	9609      	str	r6, [sp, #36]	; 0x24
    318e:	f000 bc25 	b.w	39dc <_strtod_r+0xbe4>
    3192:	ebc1 010c 	rsb	r1, r1, ip
    3196:	9803      	ldr	r0, [sp, #12]
    3198:	2d10      	cmp	r5, #16
    319a:	bfb4      	ite	lt
    319c:	46ac      	movlt	ip, r5
    319e:	f04f 0c10 	movge.w	ip, #16
    31a2:	f8cd c008 	str.w	ip, [sp, #8]
    31a6:	9106      	str	r1, [sp, #24]
    31a8:	f001 f8aa 	bl	4300 <__aeabi_ui2d>
    31ac:	f8dd c008 	ldr.w	ip, [sp, #8]
    31b0:	2c00      	cmp	r4, #0
    31b2:	bf08      	it	eq
    31b4:	462c      	moveq	r4, r5
    31b6:	f1bc 0f09 	cmp.w	ip, #9
    31ba:	4682      	mov	sl, r0
    31bc:	468b      	mov	fp, r1
    31be:	dd15      	ble.n	31ec <_strtod_r+0x3f4>
    31c0:	4b89      	ldr	r3, [pc, #548]	; (33e8 <_strtod_r+0x5f0>)
    31c2:	eb03 03cc 	add.w	r3, r3, ip, lsl #3
    31c6:	e953 2312 	ldrd	r2, r3, [r3, #-72]	; 0x48
    31ca:	f001 f90f 	bl	43ec <__aeabi_dmul>
    31ce:	4606      	mov	r6, r0
    31d0:	4640      	mov	r0, r8
    31d2:	460f      	mov	r7, r1
    31d4:	f001 f894 	bl	4300 <__aeabi_ui2d>
    31d8:	4602      	mov	r2, r0
    31da:	460b      	mov	r3, r1
    31dc:	4630      	mov	r0, r6
    31de:	4639      	mov	r1, r7
    31e0:	f000 ff52 	bl	4088 <__adddf3>
    31e4:	f8dd c008 	ldr.w	ip, [sp, #8]
    31e8:	4682      	mov	sl, r0
    31ea:	468b      	mov	fp, r1
    31ec:	2d0f      	cmp	r5, #15
    31ee:	dc37      	bgt.n	3260 <_strtod_r+0x468>
    31f0:	9f06      	ldr	r7, [sp, #24]
    31f2:	2f00      	cmp	r7, #0
    31f4:	f000 83f2 	beq.w	39dc <_strtod_r+0xbe4>
    31f8:	dd23      	ble.n	3242 <_strtod_r+0x44a>
    31fa:	2f16      	cmp	r7, #22
    31fc:	dc07      	bgt.n	320e <_strtod_r+0x416>
    31fe:	497a      	ldr	r1, [pc, #488]	; (33e8 <_strtod_r+0x5f0>)
    3200:	4652      	mov	r2, sl
    3202:	eb01 01c7 	add.w	r1, r1, r7, lsl #3
    3206:	e9d1 0100 	ldrd	r0, r1, [r1]
    320a:	465b      	mov	r3, fp
    320c:	e014      	b.n	3238 <_strtod_r+0x440>
    320e:	9e06      	ldr	r6, [sp, #24]
    3210:	f1c5 0325 	rsb	r3, r5, #37	; 0x25
    3214:	429e      	cmp	r6, r3
    3216:	dc23      	bgt.n	3260 <_strtod_r+0x468>
    3218:	4c73      	ldr	r4, [pc, #460]	; (33e8 <_strtod_r+0x5f0>)
    321a:	f1c5 050f 	rsb	r5, r5, #15
    321e:	eb04 03c5 	add.w	r3, r4, r5, lsl #3
    3222:	1b75      	subs	r5, r6, r5
    3224:	e9d3 0100 	ldrd	r0, r1, [r3]
    3228:	4652      	mov	r2, sl
    322a:	465b      	mov	r3, fp
    322c:	eb04 04c5 	add.w	r4, r4, r5, lsl #3
    3230:	f001 f8dc 	bl	43ec <__aeabi_dmul>
    3234:	e9d4 2300 	ldrd	r2, r3, [r4]
    3238:	f001 f8d8 	bl	43ec <__aeabi_dmul>
    323c:	4682      	mov	sl, r0
    323e:	468b      	mov	fp, r1
    3240:	e3cc      	b.n	39dc <_strtod_r+0xbe4>
    3242:	9f06      	ldr	r7, [sp, #24]
    3244:	3716      	adds	r7, #22
    3246:	db0b      	blt.n	3260 <_strtod_r+0x468>
    3248:	f8dd c018 	ldr.w	ip, [sp, #24]
    324c:	4f66      	ldr	r7, [pc, #408]	; (33e8 <_strtod_r+0x5f0>)
    324e:	4650      	mov	r0, sl
    3250:	eba7 07cc 	sub.w	r7, r7, ip, lsl #3
    3254:	4659      	mov	r1, fp
    3256:	e9d7 2300 	ldrd	r2, r3, [r7]
    325a:	f001 f9f1 	bl	4640 <__aeabi_ddiv>
    325e:	e7ed      	b.n	323c <_strtod_r+0x444>
    3260:	9e06      	ldr	r6, [sp, #24]
    3262:	ebcc 0805 	rsb	r8, ip, r5
    3266:	44b0      	add	r8, r6
    3268:	f1b8 0f00 	cmp.w	r8, #0
    326c:	dd61      	ble.n	3332 <_strtod_r+0x53a>
    326e:	f018 030f 	ands.w	r3, r8, #15
    3272:	d00a      	beq.n	328a <_strtod_r+0x492>
    3274:	4a5c      	ldr	r2, [pc, #368]	; (33e8 <_strtod_r+0x5f0>)
    3276:	eb02 03c3 	add.w	r3, r2, r3, lsl #3
    327a:	e9d3 0100 	ldrd	r0, r1, [r3]
    327e:	4652      	mov	r2, sl
    3280:	465b      	mov	r3, fp
    3282:	f001 f8b3 	bl	43ec <__aeabi_dmul>
    3286:	4682      	mov	sl, r0
    3288:	468b      	mov	fp, r1
    328a:	f038 080f 	bics.w	r8, r8, #15
    328e:	f000 80c8 	beq.w	3422 <_strtod_r+0x62a>
    3292:	f5b8 7f9a 	cmp.w	r8, #308	; 0x134
    3296:	dd13      	ble.n	32c0 <_strtod_r+0x4c8>
    3298:	f04f 0800 	mov.w	r8, #0
    329c:	f8cd 800c 	str.w	r8, [sp, #12]
    32a0:	f8cd 801c 	str.w	r8, [sp, #28]
    32a4:	f8cd 8014 	str.w	r8, [sp, #20]
    32a8:	9f07      	ldr	r7, [sp, #28]
    32aa:	2322      	movs	r3, #34	; 0x22
    32ac:	f8c9 3000 	str.w	r3, [r9]
    32b0:	f8df b144 	ldr.w	fp, [pc, #324]	; 33f8 <_strtod_r+0x600>
    32b4:	f04f 0a00 	mov.w	sl, #0
    32b8:	2f00      	cmp	r7, #0
    32ba:	f040 837b 	bne.w	39b4 <_strtod_r+0xbbc>
    32be:	e38d      	b.n	39dc <_strtod_r+0xbe4>
    32c0:	ea4f 1828 	mov.w	r8, r8, asr #4
    32c4:	4650      	mov	r0, sl
    32c6:	4659      	mov	r1, fp
    32c8:	2600      	movs	r6, #0
    32ca:	f1b8 0f01 	cmp.w	r8, #1
    32ce:	dd0d      	ble.n	32ec <_strtod_r+0x4f4>
    32d0:	f018 0f01 	tst.w	r8, #1
    32d4:	d006      	beq.n	32e4 <_strtod_r+0x4ec>
    32d6:	4b45      	ldr	r3, [pc, #276]	; (33ec <_strtod_r+0x5f4>)
    32d8:	eb03 03c6 	add.w	r3, r3, r6, lsl #3
    32dc:	e9d3 2300 	ldrd	r2, r3, [r3]
    32e0:	f001 f884 	bl	43ec <__aeabi_dmul>
    32e4:	3601      	adds	r6, #1
    32e6:	ea4f 0868 	mov.w	r8, r8, asr #1
    32ea:	e7ee      	b.n	32ca <_strtod_r+0x4d2>
    32ec:	4b3f      	ldr	r3, [pc, #252]	; (33ec <_strtod_r+0x5f4>)
    32ee:	4682      	mov	sl, r0
    32f0:	f1a1 7b54 	sub.w	fp, r1, #55574528	; 0x3500000
    32f4:	eb03 06c6 	add.w	r6, r3, r6, lsl #3
    32f8:	4652      	mov	r2, sl
    32fa:	465b      	mov	r3, fp
    32fc:	e9d6 0100 	ldrd	r0, r1, [r6]
    3300:	f001 f874 	bl	43ec <__aeabi_dmul>
    3304:	f021 4300 	bic.w	r3, r1, #2147483648	; 0x80000000
    3308:	468b      	mov	fp, r1
    330a:	0d1b      	lsrs	r3, r3, #20
    330c:	4938      	ldr	r1, [pc, #224]	; (33f0 <_strtod_r+0x5f8>)
    330e:	051b      	lsls	r3, r3, #20
    3310:	428b      	cmp	r3, r1
    3312:	4682      	mov	sl, r0
    3314:	d8c0      	bhi.n	3298 <_strtod_r+0x4a0>
    3316:	f5a1 1180 	sub.w	r1, r1, #1048576	; 0x100000
    331a:	428b      	cmp	r3, r1
    331c:	d906      	bls.n	332c <_strtod_r+0x534>
    331e:	2600      	movs	r6, #0
    3320:	f8df b0dc 	ldr.w	fp, [pc, #220]	; 3400 <_strtod_r+0x608>
    3324:	f04f 3aff 	mov.w	sl, #4294967295	; 0xffffffff
    3328:	9604      	str	r6, [sp, #16]
    332a:	e07c      	b.n	3426 <_strtod_r+0x62e>
    332c:	f10b 7b54 	add.w	fp, fp, #55574528	; 0x3500000
    3330:	e077      	b.n	3422 <_strtod_r+0x62a>
    3332:	d076      	beq.n	3422 <_strtod_r+0x62a>
    3334:	f1c8 0800 	rsb	r8, r8, #0
    3338:	f018 030f 	ands.w	r3, r8, #15
    333c:	d00a      	beq.n	3354 <_strtod_r+0x55c>
    333e:	4a2a      	ldr	r2, [pc, #168]	; (33e8 <_strtod_r+0x5f0>)
    3340:	4650      	mov	r0, sl
    3342:	eb02 03c3 	add.w	r3, r2, r3, lsl #3
    3346:	4659      	mov	r1, fp
    3348:	e9d3 2300 	ldrd	r2, r3, [r3]
    334c:	f001 f978 	bl	4640 <__aeabi_ddiv>
    3350:	4682      	mov	sl, r0
    3352:	468b      	mov	fp, r1
    3354:	ea5f 1828 	movs.w	r8, r8, asr #4
    3358:	d063      	beq.n	3422 <_strtod_r+0x62a>
    335a:	f1b8 0f1f 	cmp.w	r8, #31
    335e:	dd08      	ble.n	3372 <_strtod_r+0x57a>
    3360:	f04f 0800 	mov.w	r8, #0
    3364:	f8cd 800c 	str.w	r8, [sp, #12]
    3368:	f8cd 801c 	str.w	r8, [sp, #28]
    336c:	f8cd 8014 	str.w	r8, [sp, #20]
    3370:	e11e      	b.n	35b0 <_strtod_r+0x7b8>
    3372:	f018 0f10 	tst.w	r8, #16
    3376:	bf14      	ite	ne
    3378:	266a      	movne	r6, #106	; 0x6a
    337a:	2600      	moveq	r6, #0
    337c:	9604      	str	r6, [sp, #16]
    337e:	4e1d      	ldr	r6, [pc, #116]	; (33f4 <_strtod_r+0x5fc>)
    3380:	4650      	mov	r0, sl
    3382:	4659      	mov	r1, fp
    3384:	f1b8 0f00 	cmp.w	r8, #0
    3388:	dd0a      	ble.n	33a0 <_strtod_r+0x5a8>
    338a:	f018 0f01 	tst.w	r8, #1
    338e:	d003      	beq.n	3398 <_strtod_r+0x5a0>
    3390:	e9d6 2300 	ldrd	r2, r3, [r6]
    3394:	f001 f82a 	bl	43ec <__aeabi_dmul>
    3398:	ea4f 0868 	mov.w	r8, r8, asr #1
    339c:	3608      	adds	r6, #8
    339e:	e7f1      	b.n	3384 <_strtod_r+0x58c>
    33a0:	9f04      	ldr	r7, [sp, #16]
    33a2:	4682      	mov	sl, r0
    33a4:	468b      	mov	fp, r1
    33a6:	b39f      	cbz	r7, 3410 <_strtod_r+0x618>
    33a8:	f3c1 530a 	ubfx	r3, r1, #20, #11
    33ac:	f1c3 036b 	rsb	r3, r3, #107	; 0x6b
    33b0:	2b00      	cmp	r3, #0
    33b2:	dd2d      	ble.n	3410 <_strtod_r+0x618>
    33b4:	2b1f      	cmp	r3, #31
    33b6:	dd25      	ble.n	3404 <_strtod_r+0x60c>
    33b8:	2b34      	cmp	r3, #52	; 0x34
    33ba:	f04f 0a00 	mov.w	sl, #0
    33be:	dd02      	ble.n	33c6 <_strtod_r+0x5ce>
    33c0:	f04f 7b5c 	mov.w	fp, #57671680	; 0x3700000
    33c4:	e024      	b.n	3410 <_strtod_r+0x618>
    33c6:	3b20      	subs	r3, #32
    33c8:	f04f 31ff 	mov.w	r1, #4294967295	; 0xffffffff
    33cc:	fa01 f303 	lsl.w	r3, r1, r3
    33d0:	ea03 0b0b 	and.w	fp, r3, fp
    33d4:	e01c      	b.n	3410 <_strtod_r+0x618>
    33d6:	bf00      	nop
    33d8:	00004ab4 			; <UNDEFINED> instruction: 0x00004ab4
    33dc:	00004bec 	andeq	r4, r0, ip, ror #23
    33e0:	00004abc 			; <UNDEFINED> instruction: 0x00004abc
    33e4:	00004d9c 	muleq	r0, ip, sp
    33e8:	00004c60 	andeq	r4, r0, r0, ror #24
    33ec:	00004d28 	andeq	r4, r0, r8, lsr #26
    33f0:	7ca00000 	stcvc	0, cr0, [r0]
    33f4:	00004d60 	andeq	r4, r0, r0, ror #26
    33f8:	7ff00000 	svcvc	0x00f00000	; IMB
    33fc:	fff80000 			; <UNDEFINED> instruction: 0xfff80000
    3400:	7fefffff 	svcvc	0x00efffff
    3404:	f04f 32ff 	mov.w	r2, #4294967295	; 0xffffffff
    3408:	fa02 f303 	lsl.w	r3, r2, r3
    340c:	ea03 0a00 	and.w	sl, r3, r0
    3410:	4650      	mov	r0, sl
    3412:	4659      	mov	r1, fp
    3414:	2200      	movs	r2, #0
    3416:	2300      	movs	r3, #0
    3418:	f001 fa50 	bl	48bc <__aeabi_dcmpeq>
    341c:	2800      	cmp	r0, #0
    341e:	d19f      	bne.n	3360 <_strtod_r+0x568>
    3420:	e001      	b.n	3426 <_strtod_r+0x62e>
    3422:	2700      	movs	r7, #0
    3424:	9704      	str	r7, [sp, #16]
    3426:	9e03      	ldr	r6, [sp, #12]
    3428:	4648      	mov	r0, r9
    342a:	9600      	str	r6, [sp, #0]
    342c:	9907      	ldr	r1, [sp, #28]
    342e:	4622      	mov	r2, r4
    3430:	462b      	mov	r3, r5
    3432:	f7ff f8d8 	bl	25e6 <__s2b>
    3436:	9007      	str	r0, [sp, #28]
    3438:	2800      	cmp	r0, #0
    343a:	f43f af2d 	beq.w	3298 <_strtod_r+0x4a0>
    343e:	9f06      	ldr	r7, [sp, #24]
    3440:	f04f 0800 	mov.w	r8, #0
    3444:	427b      	negs	r3, r7
    3446:	2f00      	cmp	r7, #0
    3448:	bfa8      	it	ge
    344a:	2300      	movge	r3, #0
    344c:	930e      	str	r3, [sp, #56]	; 0x38
    344e:	f8cd 800c 	str.w	r8, [sp, #12]
    3452:	9e07      	ldr	r6, [sp, #28]
    3454:	4648      	mov	r0, r9
    3456:	6871      	ldr	r1, [r6, #4]
    3458:	f7ff f83f 	bl	24da <_Balloc>
    345c:	9005      	str	r0, [sp, #20]
    345e:	2800      	cmp	r0, #0
    3460:	f43f af22 	beq.w	32a8 <_strtod_r+0x4b0>
    3464:	6932      	ldr	r2, [r6, #16]
    3466:	f106 010c 	add.w	r1, r6, #12
    346a:	3202      	adds	r2, #2
    346c:	0092      	lsls	r2, r2, #2
    346e:	300c      	adds	r0, #12
    3470:	f7fd f8da 	bl	628 <memcpy>
    3474:	ab1b      	add	r3, sp, #108	; 0x6c
    3476:	9300      	str	r3, [sp, #0]
    3478:	ab1c      	add	r3, sp, #112	; 0x70
    347a:	9301      	str	r3, [sp, #4]
    347c:	4648      	mov	r0, r9
    347e:	4652      	mov	r2, sl
    3480:	465b      	mov	r3, fp
    3482:	e9cd ab0a 	strd	sl, fp, [sp, #40]	; 0x28
    3486:	f7ff fb72 	bl	2b6e <__d2b>
    348a:	901a      	str	r0, [sp, #104]	; 0x68
    348c:	2800      	cmp	r0, #0
    348e:	f43f af0b 	beq.w	32a8 <_strtod_r+0x4b0>
    3492:	4648      	mov	r0, r9
    3494:	2101      	movs	r1, #1
    3496:	f7ff f935 	bl	2704 <__i2b>
    349a:	9003      	str	r0, [sp, #12]
    349c:	2800      	cmp	r0, #0
    349e:	f43f af03 	beq.w	32a8 <_strtod_r+0x4b0>
    34a2:	9b1b      	ldr	r3, [sp, #108]	; 0x6c
    34a4:	f8dd c018 	ldr.w	ip, [sp, #24]
    34a8:	2b00      	cmp	r3, #0
    34aa:	ea2c 77ec 	bic.w	r7, ip, ip, asr #31
    34ae:	f2c0 808b 	blt.w	35c8 <_strtod_r+0x7d0>
    34b2:	9c0e      	ldr	r4, [sp, #56]	; 0x38
    34b4:	463a      	mov	r2, r7
    34b6:	441c      	add	r4, r3
    34b8:	9e04      	ldr	r6, [sp, #16]
    34ba:	9d1c      	ldr	r5, [sp, #112]	; 0x70
    34bc:	1b9b      	subs	r3, r3, r6
    34be:	1959      	adds	r1, r3, r5
    34c0:	f46f 737f 	mvn.w	r3, #1020	; 0x3fc
    34c4:	4299      	cmp	r1, r3
    34c6:	f1c5 0536 	rsb	r5, r5, #54	; 0x36
    34ca:	f280 8087 	bge.w	35dc <_strtod_r+0x7e4>
    34ce:	1a5b      	subs	r3, r3, r1
    34d0:	2b1f      	cmp	r3, #31
    34d2:	ebc3 0505 	rsb	r5, r3, r5
    34d6:	f04f 0001 	mov.w	r0, #1
    34da:	dc78      	bgt.n	35ce <_strtod_r+0x7d6>
    34dc:	4098      	lsls	r0, r3
    34de:	2300      	movs	r3, #0
    34e0:	9014      	str	r0, [sp, #80]	; 0x50
    34e2:	930f      	str	r3, [sp, #60]	; 0x3c
    34e4:	9804      	ldr	r0, [sp, #16]
    34e6:	1966      	adds	r6, r4, r5
    34e8:	4415      	add	r5, r2
    34ea:	42a6      	cmp	r6, r4
    34ec:	bfb4      	ite	lt
    34ee:	4633      	movlt	r3, r6
    34f0:	4623      	movge	r3, r4
    34f2:	4405      	add	r5, r0
    34f4:	42ab      	cmp	r3, r5
    34f6:	bfa8      	it	ge
    34f8:	462b      	movge	r3, r5
    34fa:	2b00      	cmp	r3, #0
    34fc:	dd02      	ble.n	3504 <_strtod_r+0x70c>
    34fe:	1af6      	subs	r6, r6, r3
    3500:	1aed      	subs	r5, r5, r3
    3502:	1ae4      	subs	r4, r4, r3
    3504:	990e      	ldr	r1, [sp, #56]	; 0x38
    3506:	2900      	cmp	r1, #0
    3508:	d16f      	bne.n	35ea <_strtod_r+0x7f2>
    350a:	2e00      	cmp	r6, #0
    350c:	f300 8087 	bgt.w	361e <_strtod_r+0x826>
    3510:	2f00      	cmp	r7, #0
    3512:	f040 808e 	bne.w	3632 <_strtod_r+0x83a>
    3516:	2d00      	cmp	r5, #0
    3518:	f300 8095 	bgt.w	3646 <_strtod_r+0x84e>
    351c:	2c00      	cmp	r4, #0
    351e:	f300 809c 	bgt.w	365a <_strtod_r+0x862>
    3522:	4648      	mov	r0, r9
    3524:	991a      	ldr	r1, [sp, #104]	; 0x68
    3526:	9a05      	ldr	r2, [sp, #20]
    3528:	f7ff fa4c 	bl	29c4 <__mdiff>
    352c:	4680      	mov	r8, r0
    352e:	2800      	cmp	r0, #0
    3530:	f43f aeba 	beq.w	32a8 <_strtod_r+0x4b0>
    3534:	68c6      	ldr	r6, [r0, #12]
    3536:	2300      	movs	r3, #0
    3538:	60c3      	str	r3, [r0, #12]
    353a:	9903      	ldr	r1, [sp, #12]
    353c:	9608      	str	r6, [sp, #32]
    353e:	f7ff fa24 	bl	298a <__mcmp>
    3542:	2800      	cmp	r0, #0
    3544:	f280 8098 	bge.w	3678 <_strtod_r+0x880>
    3548:	2e00      	cmp	r6, #0
    354a:	f040 8220 	bne.w	398e <_strtod_r+0xb96>
    354e:	f1ba 0f00 	cmp.w	sl, #0
    3552:	f040 821c 	bne.w	398e <_strtod_r+0xb96>
    3556:	f3cb 0313 	ubfx	r3, fp, #0, #20
    355a:	2b00      	cmp	r3, #0
    355c:	f040 8217 	bne.w	398e <_strtod_r+0xb96>
    3560:	f02b 4300 	bic.w	r3, fp, #2147483648	; 0x80000000
    3564:	0d1b      	lsrs	r3, r3, #20
    3566:	051b      	lsls	r3, r3, #20
    3568:	f1b3 6fd6 	cmp.w	r3, #112197632	; 0x6b00000
    356c:	f240 820f 	bls.w	398e <_strtod_r+0xb96>
    3570:	f8d8 3014 	ldr.w	r3, [r8, #20]
    3574:	2b00      	cmp	r3, #0
    3576:	d07a      	beq.n	366e <_strtod_r+0x876>
    3578:	4641      	mov	r1, r8
    357a:	2201      	movs	r2, #1
    357c:	4648      	mov	r0, r9
    357e:	f7ff f9b1 	bl	28e4 <__lshift>
    3582:	9903      	ldr	r1, [sp, #12]
    3584:	4680      	mov	r8, r0
    3586:	f7ff fa00 	bl	298a <__mcmp>
    358a:	2800      	cmp	r0, #0
    358c:	f340 81ff 	ble.w	398e <_strtod_r+0xb96>
    3590:	f02b 4300 	bic.w	r3, fp, #2147483648	; 0x80000000
    3594:	9f04      	ldr	r7, [sp, #16]
    3596:	0d1b      	lsrs	r3, r3, #20
    3598:	051b      	lsls	r3, r3, #20
    359a:	2f00      	cmp	r7, #0
    359c:	f000 809c 	beq.w	36d8 <_strtod_r+0x8e0>
    35a0:	f1b3 6fd6 	cmp.w	r3, #112197632	; 0x6b00000
    35a4:	f200 8098 	bhi.w	36d8 <_strtod_r+0x8e0>
    35a8:	f1b3 7f5c 	cmp.w	r3, #57671680	; 0x3700000
    35ac:	f200 81f1 	bhi.w	3992 <_strtod_r+0xb9a>
    35b0:	9e07      	ldr	r6, [sp, #28]
    35b2:	2322      	movs	r3, #34	; 0x22
    35b4:	f04f 0a00 	mov.w	sl, #0
    35b8:	f04f 0b00 	mov.w	fp, #0
    35bc:	f8c9 3000 	str.w	r3, [r9]
    35c0:	2e00      	cmp	r6, #0
    35c2:	f040 81f7 	bne.w	39b4 <_strtod_r+0xbbc>
    35c6:	e209      	b.n	39dc <_strtod_r+0xbe4>
    35c8:	1afa      	subs	r2, r7, r3
    35ca:	9c0e      	ldr	r4, [sp, #56]	; 0x38
    35cc:	e774      	b.n	34b8 <_strtod_r+0x6c0>
    35ce:	4e84      	ldr	r6, [pc, #528]	; (37e0 <_strtod_r+0x9e8>)
    35d0:	9014      	str	r0, [sp, #80]	; 0x50
    35d2:	1a76      	subs	r6, r6, r1
    35d4:	fa00 f606 	lsl.w	r6, r0, r6
    35d8:	960f      	str	r6, [sp, #60]	; 0x3c
    35da:	e783      	b.n	34e4 <_strtod_r+0x6ec>
    35dc:	2600      	movs	r6, #0
    35de:	f04f 0c01 	mov.w	ip, #1
    35e2:	960f      	str	r6, [sp, #60]	; 0x3c
    35e4:	f8cd c050 	str.w	ip, [sp, #80]	; 0x50
    35e8:	e77c      	b.n	34e4 <_strtod_r+0x6ec>
    35ea:	4648      	mov	r0, r9
    35ec:	9903      	ldr	r1, [sp, #12]
    35ee:	9a0e      	ldr	r2, [sp, #56]	; 0x38
    35f0:	f7ff f92a 	bl	2848 <__pow5mult>
    35f4:	9003      	str	r0, [sp, #12]
    35f6:	2800      	cmp	r0, #0
    35f8:	f43f ae56 	beq.w	32a8 <_strtod_r+0x4b0>
    35fc:	4648      	mov	r0, r9
    35fe:	9903      	ldr	r1, [sp, #12]
    3600:	9a1a      	ldr	r2, [sp, #104]	; 0x68
    3602:	f7ff f888 	bl	2716 <__multiply>
    3606:	4603      	mov	r3, r0
    3608:	2800      	cmp	r0, #0
    360a:	f43f ae4d 	beq.w	32a8 <_strtod_r+0x4b0>
    360e:	4648      	mov	r0, r9
    3610:	991a      	ldr	r1, [sp, #104]	; 0x68
    3612:	9302      	str	r3, [sp, #8]
    3614:	f7fe ff96 	bl	2544 <_Bfree>
    3618:	9b02      	ldr	r3, [sp, #8]
    361a:	931a      	str	r3, [sp, #104]	; 0x68
    361c:	e775      	b.n	350a <_strtod_r+0x712>
    361e:	4648      	mov	r0, r9
    3620:	991a      	ldr	r1, [sp, #104]	; 0x68
    3622:	4632      	mov	r2, r6
    3624:	f7ff f95e 	bl	28e4 <__lshift>
    3628:	901a      	str	r0, [sp, #104]	; 0x68
    362a:	2800      	cmp	r0, #0
    362c:	f47f af70 	bne.w	3510 <_strtod_r+0x718>
    3630:	e63a      	b.n	32a8 <_strtod_r+0x4b0>
    3632:	4648      	mov	r0, r9
    3634:	9905      	ldr	r1, [sp, #20]
    3636:	463a      	mov	r2, r7
    3638:	f7ff f906 	bl	2848 <__pow5mult>
    363c:	9005      	str	r0, [sp, #20]
    363e:	2800      	cmp	r0, #0
    3640:	f47f af69 	bne.w	3516 <_strtod_r+0x71e>
    3644:	e630      	b.n	32a8 <_strtod_r+0x4b0>
    3646:	4648      	mov	r0, r9
    3648:	9905      	ldr	r1, [sp, #20]
    364a:	462a      	mov	r2, r5
    364c:	f7ff f94a 	bl	28e4 <__lshift>
    3650:	9005      	str	r0, [sp, #20]
    3652:	2800      	cmp	r0, #0
    3654:	f47f af62 	bne.w	351c <_strtod_r+0x724>
    3658:	e626      	b.n	32a8 <_strtod_r+0x4b0>
    365a:	4648      	mov	r0, r9
    365c:	9903      	ldr	r1, [sp, #12]
    365e:	4622      	mov	r2, r4
    3660:	f7ff f940 	bl	28e4 <__lshift>
    3664:	9003      	str	r0, [sp, #12]
    3666:	2800      	cmp	r0, #0
    3668:	f47f af5b 	bne.w	3522 <_strtod_r+0x72a>
    366c:	e61c      	b.n	32a8 <_strtod_r+0x4b0>
    366e:	f8d8 3010 	ldr.w	r3, [r8, #16]
    3672:	2b01      	cmp	r3, #1
    3674:	dc80      	bgt.n	3578 <_strtod_r+0x780>
    3676:	e18a      	b.n	398e <_strtod_r+0xb96>
    3678:	d163      	bne.n	3742 <_strtod_r+0x94a>
    367a:	9f08      	ldr	r7, [sp, #32]
    367c:	f3cb 0313 	ubfx	r3, fp, #0, #20
    3680:	b32f      	cbz	r7, 36ce <_strtod_r+0x8d6>
    3682:	4958      	ldr	r1, [pc, #352]	; (37e4 <_strtod_r+0x9ec>)
    3684:	465a      	mov	r2, fp
    3686:	428b      	cmp	r3, r1
    3688:	d12f      	bne.n	36ea <_strtod_r+0x8f2>
    368a:	9e04      	ldr	r6, [sp, #16]
    368c:	4651      	mov	r1, sl
    368e:	b16e      	cbz	r6, 36ac <_strtod_r+0x8b4>
    3690:	4b55      	ldr	r3, [pc, #340]	; (37e8 <_strtod_r+0x9f0>)
    3692:	ea0b 0303 	and.w	r3, fp, r3
    3696:	f1b3 6fd4 	cmp.w	r3, #111149056	; 0x6a00000
    369a:	d807      	bhi.n	36ac <_strtod_r+0x8b4>
    369c:	0d1b      	lsrs	r3, r3, #20
    369e:	f1c3 036b 	rsb	r3, r3, #107	; 0x6b
    36a2:	f04f 30ff 	mov.w	r0, #4294967295	; 0xffffffff
    36a6:	fa00 f303 	lsl.w	r3, r0, r3
    36aa:	e001      	b.n	36b0 <_strtod_r+0x8b8>
    36ac:	f04f 33ff 	mov.w	r3, #4294967295	; 0xffffffff
    36b0:	4299      	cmp	r1, r3
    36b2:	d11a      	bne.n	36ea <_strtod_r+0x8f2>
    36b4:	4b4d      	ldr	r3, [pc, #308]	; (37ec <_strtod_r+0x9f4>)
    36b6:	429a      	cmp	r2, r3
    36b8:	d102      	bne.n	36c0 <_strtod_r+0x8c8>
    36ba:	3101      	adds	r1, #1
    36bc:	f43f adf4 	beq.w	32a8 <_strtod_r+0x4b0>
    36c0:	4b49      	ldr	r3, [pc, #292]	; (37e8 <_strtod_r+0x9f0>)
    36c2:	f04f 0a00 	mov.w	sl, #0
    36c6:	4013      	ands	r3, r2
    36c8:	f503 1b80 	add.w	fp, r3, #1048576	; 0x100000
    36cc:	e15f      	b.n	398e <_strtod_r+0xb96>
    36ce:	b963      	cbnz	r3, 36ea <_strtod_r+0x8f2>
    36d0:	f1ba 0f00 	cmp.w	sl, #0
    36d4:	d109      	bne.n	36ea <_strtod_r+0x8f2>
    36d6:	e75b      	b.n	3590 <_strtod_r+0x798>
    36d8:	f5a3 1380 	sub.w	r3, r3, #1048576	; 0x100000
    36dc:	ea6f 5b13 	mvn.w	fp, r3, lsr #20
    36e0:	ea6f 5b0b 	mvn.w	fp, fp, lsl #20
    36e4:	f04f 3aff 	mov.w	sl, #4294967295	; 0xffffffff
    36e8:	e151      	b.n	398e <_strtod_r+0xb96>
    36ea:	9b0f      	ldr	r3, [sp, #60]	; 0x3c
    36ec:	b113      	cbz	r3, 36f4 <_strtod_r+0x8fc>
    36ee:	ea13 0f0b 	tst.w	r3, fp
    36f2:	e002      	b.n	36fa <_strtod_r+0x902>
    36f4:	9e14      	ldr	r6, [sp, #80]	; 0x50
    36f6:	ea16 0f0a 	tst.w	r6, sl
    36fa:	f000 8148 	beq.w	398e <_strtod_r+0xb96>
    36fe:	9f08      	ldr	r7, [sp, #32]
    3700:	4650      	mov	r0, sl
    3702:	4659      	mov	r1, fp
    3704:	9a04      	ldr	r2, [sp, #16]
    3706:	b157      	cbz	r7, 371e <_strtod_r+0x926>
    3708:	f7ff fb54 	bl	2db4 <sulp>
    370c:	4602      	mov	r2, r0
    370e:	460b      	mov	r3, r1
    3710:	e9dd 010a 	ldrd	r0, r1, [sp, #40]	; 0x28
    3714:	f000 fcb8 	bl	4088 <__adddf3>
    3718:	4682      	mov	sl, r0
    371a:	468b      	mov	fp, r1
    371c:	e137      	b.n	398e <_strtod_r+0xb96>
    371e:	f7ff fb49 	bl	2db4 <sulp>
    3722:	4602      	mov	r2, r0
    3724:	460b      	mov	r3, r1
    3726:	e9dd 010a 	ldrd	r0, r1, [sp, #40]	; 0x28
    372a:	f000 fcab 	bl	4084 <__aeabi_dsub>
    372e:	2200      	movs	r2, #0
    3730:	2300      	movs	r3, #0
    3732:	4682      	mov	sl, r0
    3734:	468b      	mov	fp, r1
    3736:	f001 f8c1 	bl	48bc <__aeabi_dcmpeq>
    373a:	2800      	cmp	r0, #0
    373c:	f47f af38 	bne.w	35b0 <_strtod_r+0x7b8>
    3740:	e125      	b.n	398e <_strtod_r+0xb96>
    3742:	4640      	mov	r0, r8
    3744:	9903      	ldr	r1, [sp, #12]
    3746:	f7ff fa64 	bl	2c12 <__ratio>
    374a:	2200      	movs	r2, #0
    374c:	f04f 4380 	mov.w	r3, #1073741824	; 0x40000000
    3750:	4604      	mov	r4, r0
    3752:	460d      	mov	r5, r1
    3754:	f001 f8c6 	bl	48e4 <__aeabi_dcmple>
    3758:	2800      	cmp	r0, #0
    375a:	d032      	beq.n	37c2 <_strtod_r+0x9ca>
    375c:	9e08      	ldr	r6, [sp, #32]
    375e:	b126      	cbz	r6, 376a <_strtod_r+0x972>
    3760:	4f23      	ldr	r7, [pc, #140]	; (37f0 <_strtod_r+0x9f8>)
    3762:	2600      	movs	r6, #0
    3764:	4634      	mov	r4, r6
    3766:	463d      	mov	r5, r7
    3768:	e04c      	b.n	3804 <_strtod_r+0xa0c>
    376a:	f1ba 0f00 	cmp.w	sl, #0
    376e:	d103      	bne.n	3778 <_strtod_r+0x980>
    3770:	f3cb 0313 	ubfx	r3, fp, #0, #20
    3774:	b93b      	cbnz	r3, 3786 <_strtod_r+0x98e>
    3776:	e00b      	b.n	3790 <_strtod_r+0x998>
    3778:	f1ba 0f01 	cmp.w	sl, #1
    377c:	d103      	bne.n	3786 <_strtod_r+0x98e>
    377e:	f1bb 0f00 	cmp.w	fp, #0
    3782:	f43f af15 	beq.w	35b0 <_strtod_r+0x7b8>
    3786:	2600      	movs	r6, #0
    3788:	4f1a      	ldr	r7, [pc, #104]	; (37f4 <_strtod_r+0x9fc>)
    378a:	2400      	movs	r4, #0
    378c:	4d18      	ldr	r5, [pc, #96]	; (37f0 <_strtod_r+0x9f8>)
    378e:	e039      	b.n	3804 <_strtod_r+0xa0c>
    3790:	4620      	mov	r0, r4
    3792:	4629      	mov	r1, r5
    3794:	2200      	movs	r2, #0
    3796:	4b16      	ldr	r3, [pc, #88]	; (37f0 <_strtod_r+0x9f8>)
    3798:	f001 f89a 	bl	48d0 <__aeabi_dcmplt>
    379c:	b940      	cbnz	r0, 37b0 <_strtod_r+0x9b8>
    379e:	4620      	mov	r0, r4
    37a0:	4629      	mov	r1, r5
    37a2:	2200      	movs	r2, #0
    37a4:	4b14      	ldr	r3, [pc, #80]	; (37f8 <_strtod_r+0xa00>)
    37a6:	f000 fe21 	bl	43ec <__aeabi_dmul>
    37aa:	4604      	mov	r4, r0
    37ac:	460d      	mov	r5, r1
    37ae:	e001      	b.n	37b4 <_strtod_r+0x9bc>
    37b0:	4d11      	ldr	r5, [pc, #68]	; (37f8 <_strtod_r+0xa00>)
    37b2:	2400      	movs	r4, #0
    37b4:	f105 4700 	add.w	r7, r5, #2147483648	; 0x80000000
    37b8:	9416      	str	r4, [sp, #88]	; 0x58
    37ba:	9717      	str	r7, [sp, #92]	; 0x5c
    37bc:	e9dd 6716 	ldrd	r6, r7, [sp, #88]	; 0x58
    37c0:	e020      	b.n	3804 <_strtod_r+0xa0c>
    37c2:	4620      	mov	r0, r4
    37c4:	4629      	mov	r1, r5
    37c6:	2200      	movs	r2, #0
    37c8:	4b0b      	ldr	r3, [pc, #44]	; (37f8 <_strtod_r+0xa00>)
    37ca:	f000 fe0f 	bl	43ec <__aeabi_dmul>
    37ce:	9e08      	ldr	r6, [sp, #32]
    37d0:	4604      	mov	r4, r0
    37d2:	460d      	mov	r5, r1
    37d4:	b996      	cbnz	r6, 37fc <_strtod_r+0xa04>
    37d6:	f101 4700 	add.w	r7, r1, #2147483648	; 0x80000000
    37da:	9010      	str	r0, [sp, #64]	; 0x40
    37dc:	9711      	str	r7, [sp, #68]	; 0x44
    37de:	e00f      	b.n	3800 <_strtod_r+0xa08>
    37e0:	fffffbe3 			; <UNDEFINED> instruction: 0xfffffbe3
    37e4:	000fffff 	strdeq	pc, [pc], -pc	; <UNPREDICTABLE>
    37e8:	7ff00000 	svcvc	0x00f00000	; IMB
    37ec:	7fefffff 	svcvc	0x00efffff
    37f0:	3ff00000 	svccc	0x00f00000	; IMB
    37f4:	bff00000 	svclt	0x00f00000	; IMB
    37f8:	3fe00000 	svccc	0x00e00000
    37fc:	e9cd 4510 	strd	r4, r5, [sp, #64]	; 0x40
    3800:	e9dd 6710 	ldrd	r6, r7, [sp, #64]	; 0x40
    3804:	f02b 4c00 	bic.w	ip, fp, #2147483648	; 0x80000000
    3808:	ea4f 5c1c 	mov.w	ip, ip, lsr #20
    380c:	4b84      	ldr	r3, [pc, #528]	; (3a20 <_strtod_r+0xc28>)
    380e:	ea4f 5c0c 	mov.w	ip, ip, lsl #20
    3812:	459c      	cmp	ip, r3
    3814:	d131      	bne.n	387a <_strtod_r+0xa82>
    3816:	e9dd 010a 	ldrd	r0, r1, [sp, #40]	; 0x28
    381a:	f1ab 7b54 	sub.w	fp, fp, #55574528	; 0x3500000
    381e:	e9cd 010c 	strd	r0, r1, [sp, #48]	; 0x30
    3822:	4650      	mov	r0, sl
    3824:	4659      	mov	r1, fp
    3826:	f8cd c008 	str.w	ip, [sp, #8]
    382a:	f7ff f92b 	bl	2a84 <__ulp>
    382e:	4602      	mov	r2, r0
    3830:	460b      	mov	r3, r1
    3832:	4630      	mov	r0, r6
    3834:	4639      	mov	r1, r7
    3836:	f000 fdd9 	bl	43ec <__aeabi_dmul>
    383a:	4602      	mov	r2, r0
    383c:	460b      	mov	r3, r1
    383e:	4650      	mov	r0, sl
    3840:	4659      	mov	r1, fp
    3842:	f000 fc21 	bl	4088 <__adddf3>
    3846:	f021 4300 	bic.w	r3, r1, #2147483648	; 0x80000000
    384a:	0d1b      	lsrs	r3, r3, #20
    384c:	4a75      	ldr	r2, [pc, #468]	; (3a24 <_strtod_r+0xc2c>)
    384e:	051b      	lsls	r3, r3, #20
    3850:	4293      	cmp	r3, r2
    3852:	4682      	mov	sl, r0
    3854:	f8dd c008 	ldr.w	ip, [sp, #8]
    3858:	d90c      	bls.n	3874 <_strtod_r+0xa7c>
    385a:	4b73      	ldr	r3, [pc, #460]	; (3a28 <_strtod_r+0xc30>)
    385c:	990d      	ldr	r1, [sp, #52]	; 0x34
    385e:	4299      	cmp	r1, r3
    3860:	d103      	bne.n	386a <_strtod_r+0xa72>
    3862:	9a0c      	ldr	r2, [sp, #48]	; 0x30
    3864:	3201      	adds	r2, #1
    3866:	f43f ad1f 	beq.w	32a8 <_strtod_r+0x4b0>
    386a:	f8df b1bc 	ldr.w	fp, [pc, #444]	; 3a28 <_strtod_r+0xc30>
    386e:	f04f 3aff 	mov.w	sl, #4294967295	; 0xffffffff
    3872:	e07b      	b.n	396c <_strtod_r+0xb74>
    3874:	f101 7b54 	add.w	fp, r1, #55574528	; 0x3500000
    3878:	e042      	b.n	3900 <_strtod_r+0xb08>
    387a:	9b04      	ldr	r3, [sp, #16]
    387c:	b353      	cbz	r3, 38d4 <_strtod_r+0xadc>
    387e:	f1bc 6fd4 	cmp.w	ip, #111149056	; 0x6a00000
    3882:	d827      	bhi.n	38d4 <_strtod_r+0xadc>
    3884:	a35e      	add	r3, pc, #376	; (adr r3, 3a00 <_strtod_r+0xc08>)
    3886:	e9d3 2300 	ldrd	r2, r3, [r3]
    388a:	4620      	mov	r0, r4
    388c:	4629      	mov	r1, r5
    388e:	f8cd c008 	str.w	ip, [sp, #8]
    3892:	f001 f827 	bl	48e4 <__aeabi_dcmple>
    3896:	f8dd c008 	ldr.w	ip, [sp, #8]
    389a:	b1b8      	cbz	r0, 38cc <_strtod_r+0xad4>
    389c:	4629      	mov	r1, r5
    389e:	4620      	mov	r0, r4
    38a0:	f001 f866 	bl	4970 <__aeabi_d2uiz>
    38a4:	2800      	cmp	r0, #0
    38a6:	bf08      	it	eq
    38a8:	2001      	moveq	r0, #1
    38aa:	f000 fd29 	bl	4300 <__aeabi_ui2d>
    38ae:	9e08      	ldr	r6, [sp, #32]
    38b0:	4604      	mov	r4, r0
    38b2:	460d      	mov	r5, r1
    38b4:	f8dd c008 	ldr.w	ip, [sp, #8]
    38b8:	b926      	cbnz	r6, 38c4 <_strtod_r+0xacc>
    38ba:	f101 4700 	add.w	r7, r1, #2147483648	; 0x80000000
    38be:	9012      	str	r0, [sp, #72]	; 0x48
    38c0:	9713      	str	r7, [sp, #76]	; 0x4c
    38c2:	e001      	b.n	38c8 <_strtod_r+0xad0>
    38c4:	e9cd 4512 	strd	r4, r5, [sp, #72]	; 0x48
    38c8:	e9dd 6712 	ldrd	r6, r7, [sp, #72]	; 0x48
    38cc:	f107 63d6 	add.w	r3, r7, #112197632	; 0x6b00000
    38d0:	ebcc 0703 	rsb	r7, ip, r3
    38d4:	e9dd 010a 	ldrd	r0, r1, [sp, #40]	; 0x28
    38d8:	f8cd c008 	str.w	ip, [sp, #8]
    38dc:	f7ff f8d2 	bl	2a84 <__ulp>
    38e0:	4602      	mov	r2, r0
    38e2:	460b      	mov	r3, r1
    38e4:	4630      	mov	r0, r6
    38e6:	4639      	mov	r1, r7
    38e8:	f000 fd80 	bl	43ec <__aeabi_dmul>
    38ec:	4602      	mov	r2, r0
    38ee:	460b      	mov	r3, r1
    38f0:	e9dd 010a 	ldrd	r0, r1, [sp, #40]	; 0x28
    38f4:	f000 fbc8 	bl	4088 <__adddf3>
    38f8:	f8dd c008 	ldr.w	ip, [sp, #8]
    38fc:	4682      	mov	sl, r0
    38fe:	468b      	mov	fp, r1
    3900:	9f04      	ldr	r7, [sp, #16]
    3902:	2f00      	cmp	r7, #0
    3904:	d132      	bne.n	396c <_strtod_r+0xb74>
    3906:	f02b 4300 	bic.w	r3, fp, #2147483648	; 0x80000000
    390a:	0d1b      	lsrs	r3, r3, #20
    390c:	051b      	lsls	r3, r3, #20
    390e:	459c      	cmp	ip, r3
    3910:	d12c      	bne.n	396c <_strtod_r+0xb74>
    3912:	4629      	mov	r1, r5
    3914:	4620      	mov	r0, r4
    3916:	f001 f803 	bl	4920 <__aeabi_d2iz>
    391a:	f000 fd01 	bl	4320 <__aeabi_i2d>
    391e:	4602      	mov	r2, r0
    3920:	460b      	mov	r3, r1
    3922:	4620      	mov	r0, r4
    3924:	4629      	mov	r1, r5
    3926:	f000 fbad 	bl	4084 <__aeabi_dsub>
    392a:	9f08      	ldr	r7, [sp, #32]
    392c:	4604      	mov	r4, r0
    392e:	460d      	mov	r5, r1
    3930:	b92f      	cbnz	r7, 393e <_strtod_r+0xb46>
    3932:	f1ba 0f00 	cmp.w	sl, #0
    3936:	d102      	bne.n	393e <_strtod_r+0xb46>
    3938:	f3cb 0613 	ubfx	r6, fp, #0, #20
    393c:	b186      	cbz	r6, 3960 <_strtod_r+0xb68>
    393e:	4620      	mov	r0, r4
    3940:	4629      	mov	r1, r5
    3942:	a331      	add	r3, pc, #196	; (adr r3, 3a08 <_strtod_r+0xc10>)
    3944:	e9d3 2300 	ldrd	r2, r3, [r3]
    3948:	f000 ffc2 	bl	48d0 <__aeabi_dcmplt>
    394c:	2800      	cmp	r0, #0
    394e:	d131      	bne.n	39b4 <_strtod_r+0xbbc>
    3950:	4620      	mov	r0, r4
    3952:	4629      	mov	r1, r5
    3954:	a32e      	add	r3, pc, #184	; (adr r3, 3a10 <_strtod_r+0xc18>)
    3956:	e9d3 2300 	ldrd	r2, r3, [r3]
    395a:	f000 ffd7 	bl	490c <__aeabi_dcmpgt>
    395e:	e004      	b.n	396a <_strtod_r+0xb72>
    3960:	a32d      	add	r3, pc, #180	; (adr r3, 3a18 <_strtod_r+0xc20>)
    3962:	e9d3 2300 	ldrd	r2, r3, [r3]
    3966:	f000 ffb3 	bl	48d0 <__aeabi_dcmplt>
    396a:	bb18      	cbnz	r0, 39b4 <_strtod_r+0xbbc>
    396c:	4648      	mov	r0, r9
    396e:	991a      	ldr	r1, [sp, #104]	; 0x68
    3970:	f7fe fde8 	bl	2544 <_Bfree>
    3974:	4648      	mov	r0, r9
    3976:	9905      	ldr	r1, [sp, #20]
    3978:	f7fe fde4 	bl	2544 <_Bfree>
    397c:	4648      	mov	r0, r9
    397e:	9903      	ldr	r1, [sp, #12]
    3980:	f7fe fde0 	bl	2544 <_Bfree>
    3984:	4648      	mov	r0, r9
    3986:	4641      	mov	r1, r8
    3988:	f7fe fddc 	bl	2544 <_Bfree>
    398c:	e561      	b.n	3452 <_strtod_r+0x65a>
    398e:	9e04      	ldr	r6, [sp, #16]
    3990:	b186      	cbz	r6, 39b4 <_strtod_r+0xbbc>
    3992:	4f26      	ldr	r7, [pc, #152]	; (3a2c <_strtod_r+0xc34>)
    3994:	2000      	movs	r0, #0
    3996:	900c      	str	r0, [sp, #48]	; 0x30
    3998:	970d      	str	r7, [sp, #52]	; 0x34
    399a:	4650      	mov	r0, sl
    399c:	4659      	mov	r1, fp
    399e:	e9dd 230c 	ldrd	r2, r3, [sp, #48]	; 0x30
    39a2:	f000 fd23 	bl	43ec <__aeabi_dmul>
    39a6:	4682      	mov	sl, r0
    39a8:	468b      	mov	fp, r1
    39aa:	b919      	cbnz	r1, 39b4 <_strtod_r+0xbbc>
    39ac:	b910      	cbnz	r0, 39b4 <_strtod_r+0xbbc>
    39ae:	2322      	movs	r3, #34	; 0x22
    39b0:	f8c9 3000 	str.w	r3, [r9]
    39b4:	4648      	mov	r0, r9
    39b6:	991a      	ldr	r1, [sp, #104]	; 0x68
    39b8:	f7fe fdc4 	bl	2544 <_Bfree>
    39bc:	4648      	mov	r0, r9
    39be:	9905      	ldr	r1, [sp, #20]
    39c0:	f7fe fdc0 	bl	2544 <_Bfree>
    39c4:	4648      	mov	r0, r9
    39c6:	9903      	ldr	r1, [sp, #12]
    39c8:	f7fe fdbc 	bl	2544 <_Bfree>
    39cc:	4648      	mov	r0, r9
    39ce:	9907      	ldr	r1, [sp, #28]
    39d0:	f7fe fdb8 	bl	2544 <_Bfree>
    39d4:	4648      	mov	r0, r9
    39d6:	4641      	mov	r1, r8
    39d8:	f7fe fdb4 	bl	2544 <_Bfree>
    39dc:	9e15      	ldr	r6, [sp, #84]	; 0x54
    39de:	b10e      	cbz	r6, 39e4 <_strtod_r+0xbec>
    39e0:	9b19      	ldr	r3, [sp, #100]	; 0x64
    39e2:	6033      	str	r3, [r6, #0]
    39e4:	9f09      	ldr	r7, [sp, #36]	; 0x24
    39e6:	b11f      	cbz	r7, 39f0 <_strtod_r+0xbf8>
    39e8:	4650      	mov	r0, sl
    39ea:	f10b 4100 	add.w	r1, fp, #2147483648	; 0x80000000
    39ee:	e001      	b.n	39f4 <_strtod_r+0xbfc>
    39f0:	4650      	mov	r0, sl
    39f2:	4659      	mov	r1, fp
    39f4:	b01f      	add	sp, #124	; 0x7c
    39f6:	e8bd 8ff0 	ldmia.w	sp!, {r4, r5, r6, r7, r8, r9, sl, fp, pc}
    39fa:	bf00      	nop
    39fc:	f3af 8000 	nop.w
    3a00:	ffc00000 			; <UNDEFINED> instruction: 0xffc00000
    3a04:	41dfffff 	ldrshmi	pc, [pc, #255]	; 3b0b <__gethex+0x47>	; <UNPREDICTABLE>
    3a08:	94a03595 	strtls	r3, [r0], #1429	; 0x595
    3a0c:	3fdfffff 	svccc	0x00dfffff
    3a10:	35afe535 	strcc	lr, [pc, #1333]!	; 3f4d <__hexnan+0x5>
    3a14:	3fe00000 	svccc	0x00e00000
    3a18:	94a03595 	strtls	r3, [r0], #1429	; 0x595
    3a1c:	3fcfffff 	svccc	0x00cfffff
    3a20:	7fe00000 	svcvc	0x00e00000
    3a24:	7c9fffff 	ldcvc	15, cr15, [pc], {255}	; 0xff
    3a28:	7fefffff 	svcvc	0x00efffff
    3a2c:	39500000 	ldmdbcc	r0, {}^	; <UNPREDICTABLE>

00003a30 <rshift>:
    3a30:	b5f0      	push	{r4, r5, r6, r7, lr}
    3a32:	6906      	ldr	r6, [r0, #16]
    3a34:	114b      	asrs	r3, r1, #5
    3a36:	42b3      	cmp	r3, r6
    3a38:	f100 0214 	add.w	r2, r0, #20
    3a3c:	da26      	bge.n	3a8c <rshift+0x5c>
    3a3e:	f011 011f 	ands.w	r1, r1, #31
    3a42:	eb02 0686 	add.w	r6, r2, r6, lsl #2
    3a46:	eb02 0483 	add.w	r4, r2, r3, lsl #2
    3a4a:	d101      	bne.n	3a50 <rshift+0x20>
    3a4c:	4613      	mov	r3, r2
    3a4e:	e016      	b.n	3a7e <rshift+0x4e>
    3a50:	f852 5023 	ldr.w	r5, [r2, r3, lsl #2]
    3a54:	f1c1 0c20 	rsb	ip, r1, #32
    3a58:	40cd      	lsrs	r5, r1
    3a5a:	3404      	adds	r4, #4
    3a5c:	4613      	mov	r3, r2
    3a5e:	42b4      	cmp	r4, r6
    3a60:	d209      	bcs.n	3a76 <rshift+0x46>
    3a62:	6827      	ldr	r7, [r4, #0]
    3a64:	fa07 f70c 	lsl.w	r7, r7, ip
    3a68:	433d      	orrs	r5, r7
    3a6a:	f843 5b04 	str.w	r5, [r3], #4
    3a6e:	f854 5b04 	ldr.w	r5, [r4], #4
    3a72:	40cd      	lsrs	r5, r1
    3a74:	e7f3      	b.n	3a5e <rshift+0x2e>
    3a76:	601d      	str	r5, [r3, #0]
    3a78:	b14d      	cbz	r5, 3a8e <rshift+0x5e>
    3a7a:	3304      	adds	r3, #4
    3a7c:	e007      	b.n	3a8e <rshift+0x5e>
    3a7e:	42b4      	cmp	r4, r6
    3a80:	d205      	bcs.n	3a8e <rshift+0x5e>
    3a82:	f854 1b04 	ldr.w	r1, [r4], #4
    3a86:	f843 1b04 	str.w	r1, [r3], #4
    3a8a:	e7f8      	b.n	3a7e <rshift+0x4e>
    3a8c:	4613      	mov	r3, r2
    3a8e:	1a9b      	subs	r3, r3, r2
    3a90:	109b      	asrs	r3, r3, #2
    3a92:	6103      	str	r3, [r0, #16]
    3a94:	b903      	cbnz	r3, 3a98 <rshift+0x68>
    3a96:	6143      	str	r3, [r0, #20]
    3a98:	bdf0      	pop	{r4, r5, r6, r7, pc}

00003a9a <__hexdig_fun>:
    3a9a:	f1a0 0330 	sub.w	r3, r0, #48	; 0x30
    3a9e:	2b09      	cmp	r3, #9
    3aa0:	d801      	bhi.n	3aa6 <__hexdig_fun+0xc>
    3aa2:	3820      	subs	r0, #32
    3aa4:	e00a      	b.n	3abc <__hexdig_fun+0x22>
    3aa6:	f1a0 0361 	sub.w	r3, r0, #97	; 0x61
    3aaa:	2b05      	cmp	r3, #5
    3aac:	d801      	bhi.n	3ab2 <__hexdig_fun+0x18>
    3aae:	3847      	subs	r0, #71	; 0x47
    3ab0:	e004      	b.n	3abc <__hexdig_fun+0x22>
    3ab2:	f1a0 0341 	sub.w	r3, r0, #65	; 0x41
    3ab6:	2b05      	cmp	r3, #5
    3ab8:	d802      	bhi.n	3ac0 <__hexdig_fun+0x26>
    3aba:	3827      	subs	r0, #39	; 0x27
    3abc:	b2c0      	uxtb	r0, r0
    3abe:	4770      	bx	lr
    3ac0:	2000      	movs	r0, #0
    3ac2:	4770      	bx	lr

00003ac4 <__gethex>:
    3ac4:	e92d 4ff0 	stmdb	sp!, {r4, r5, r6, r7, r8, r9, sl, fp, lr}
    3ac8:	b089      	sub	sp, #36	; 0x24
    3aca:	9105      	str	r1, [sp, #20]
    3acc:	9306      	str	r3, [sp, #24]
    3ace:	4690      	mov	r8, r2
    3ad0:	9003      	str	r0, [sp, #12]
    3ad2:	f7fe fcd5 	bl	2480 <_localeconv_r>
    3ad6:	6800      	ldr	r0, [r0, #0]
    3ad8:	f04f 0b00 	mov.w	fp, #0
    3adc:	9004      	str	r0, [sp, #16]
    3ade:	f7fc fe81 	bl	7e4 <strlen>
    3ae2:	9b04      	ldr	r3, [sp, #16]
    3ae4:	9905      	ldr	r1, [sp, #20]
    3ae6:	4403      	add	r3, r0
    3ae8:	f813 3c01 	ldrb.w	r3, [r3, #-1]
    3aec:	9002      	str	r0, [sp, #8]
    3aee:	9307      	str	r3, [sp, #28]
    3af0:	680b      	ldr	r3, [r1, #0]
    3af2:	3302      	adds	r3, #2
    3af4:	461f      	mov	r7, r3
    3af6:	f813 0b01 	ldrb.w	r0, [r3], #1
    3afa:	2830      	cmp	r0, #48	; 0x30
    3afc:	d102      	bne.n	3b04 <__gethex+0x40>
    3afe:	f10b 0b01 	add.w	fp, fp, #1
    3b02:	e7f7      	b.n	3af4 <__gethex+0x30>
    3b04:	f7ff ffc9 	bl	3a9a <__hexdig_fun>
    3b08:	4606      	mov	r6, r0
    3b0a:	b9f8      	cbnz	r0, 3b4c <__gethex+0x88>
    3b0c:	4638      	mov	r0, r7
    3b0e:	9904      	ldr	r1, [sp, #16]
    3b10:	9a02      	ldr	r2, [sp, #8]
    3b12:	f7fc fe6f 	bl	7f4 <strncmp>
    3b16:	2800      	cmp	r0, #0
    3b18:	d139      	bne.n	3b8e <__gethex+0xca>
    3b1a:	9b02      	ldr	r3, [sp, #8]
    3b1c:	9d02      	ldr	r5, [sp, #8]
    3b1e:	5cf8      	ldrb	r0, [r7, r3]
    3b20:	443d      	add	r5, r7
    3b22:	f7ff ffba 	bl	3a9a <__hexdig_fun>
    3b26:	2800      	cmp	r0, #0
    3b28:	d033      	beq.n	3b92 <__gethex+0xce>
    3b2a:	462b      	mov	r3, r5
    3b2c:	7818      	ldrb	r0, [r3, #0]
    3b2e:	461f      	mov	r7, r3
    3b30:	2830      	cmp	r0, #48	; 0x30
    3b32:	f103 0301 	add.w	r3, r3, #1
    3b36:	d0f9      	beq.n	3b2c <__gethex+0x68>
    3b38:	f7ff ffaf 	bl	3a9a <__hexdig_fun>
    3b3c:	f1d0 0401 	rsbs	r4, r0, #1
    3b40:	bf38      	it	cc
    3b42:	2400      	movcc	r4, #0
    3b44:	462e      	mov	r6, r5
    3b46:	f04f 0b01 	mov.w	fp, #1
    3b4a:	e001      	b.n	3b50 <__gethex+0x8c>
    3b4c:	2400      	movs	r4, #0
    3b4e:	4626      	mov	r6, r4
    3b50:	46b9      	mov	r9, r7
    3b52:	464d      	mov	r5, r9
    3b54:	7828      	ldrb	r0, [r5, #0]
    3b56:	f109 0901 	add.w	r9, r9, #1
    3b5a:	f7ff ff9e 	bl	3a9a <__hexdig_fun>
    3b5e:	2800      	cmp	r0, #0
    3b60:	d1f7      	bne.n	3b52 <__gethex+0x8e>
    3b62:	4628      	mov	r0, r5
    3b64:	9904      	ldr	r1, [sp, #16]
    3b66:	9a02      	ldr	r2, [sp, #8]
    3b68:	f7fc fe44 	bl	7f4 <strncmp>
    3b6c:	b958      	cbnz	r0, 3b86 <__gethex+0xc2>
    3b6e:	b95e      	cbnz	r6, 3b88 <__gethex+0xc4>
    3b70:	9e02      	ldr	r6, [sp, #8]
    3b72:	442e      	add	r6, r5
    3b74:	46b1      	mov	r9, r6
    3b76:	464d      	mov	r5, r9
    3b78:	7828      	ldrb	r0, [r5, #0]
    3b7a:	f109 0901 	add.w	r9, r9, #1
    3b7e:	f7ff ff8c 	bl	3a9a <__hexdig_fun>
    3b82:	2800      	cmp	r0, #0
    3b84:	d1f7      	bne.n	3b76 <__gethex+0xb2>
    3b86:	b136      	cbz	r6, 3b96 <__gethex+0xd2>
    3b88:	1b76      	subs	r6, r6, r5
    3b8a:	00b6      	lsls	r6, r6, #2
    3b8c:	e003      	b.n	3b96 <__gethex+0xd2>
    3b8e:	463d      	mov	r5, r7
    3b90:	e000      	b.n	3b94 <__gethex+0xd0>
    3b92:	4606      	mov	r6, r0
    3b94:	2401      	movs	r4, #1
    3b96:	782b      	ldrb	r3, [r5, #0]
    3b98:	2b50      	cmp	r3, #80	; 0x50
    3b9a:	d001      	beq.n	3ba0 <__gethex+0xdc>
    3b9c:	2b70      	cmp	r3, #112	; 0x70
    3b9e:	d134      	bne.n	3c0a <__gethex+0x146>
    3ba0:	786b      	ldrb	r3, [r5, #1]
    3ba2:	2b2b      	cmp	r3, #43	; 0x2b
    3ba4:	d005      	beq.n	3bb2 <__gethex+0xee>
    3ba6:	2b2d      	cmp	r3, #45	; 0x2d
    3ba8:	d005      	beq.n	3bb6 <__gethex+0xf2>
    3baa:	f105 0901 	add.w	r9, r5, #1
    3bae:	2100      	movs	r1, #0
    3bb0:	e004      	b.n	3bbc <__gethex+0xf8>
    3bb2:	2100      	movs	r1, #0
    3bb4:	e000      	b.n	3bb8 <__gethex+0xf4>
    3bb6:	2101      	movs	r1, #1
    3bb8:	f105 0902 	add.w	r9, r5, #2
    3bbc:	f899 0000 	ldrb.w	r0, [r9]
    3bc0:	9101      	str	r1, [sp, #4]
    3bc2:	f7ff ff6a 	bl	3a9a <__hexdig_fun>
    3bc6:	1e43      	subs	r3, r0, #1
    3bc8:	b2db      	uxtb	r3, r3
    3bca:	2b18      	cmp	r3, #24
    3bcc:	9901      	ldr	r1, [sp, #4]
    3bce:	d81c      	bhi.n	3c0a <__gethex+0x146>
    3bd0:	f1a0 0a10 	sub.w	sl, r0, #16
    3bd4:	f109 0301 	add.w	r3, r9, #1
    3bd8:	4699      	mov	r9, r3
    3bda:	f899 0000 	ldrb.w	r0, [r9]
    3bde:	3301      	adds	r3, #1
    3be0:	9101      	str	r1, [sp, #4]
    3be2:	9300      	str	r3, [sp, #0]
    3be4:	f7ff ff59 	bl	3a9a <__hexdig_fun>
    3be8:	1e42      	subs	r2, r0, #1
    3bea:	b2d2      	uxtb	r2, r2
    3bec:	2a18      	cmp	r2, #24
    3bee:	9901      	ldr	r1, [sp, #4]
    3bf0:	9b00      	ldr	r3, [sp, #0]
    3bf2:	d805      	bhi.n	3c00 <__gethex+0x13c>
    3bf4:	220a      	movs	r2, #10
    3bf6:	fb02 0a0a 	mla	sl, r2, sl, r0
    3bfa:	f1aa 0a10 	sub.w	sl, sl, #16
    3bfe:	e7eb      	b.n	3bd8 <__gethex+0x114>
    3c00:	b109      	cbz	r1, 3c06 <__gethex+0x142>
    3c02:	f1ca 0a00 	rsb	sl, sl, #0
    3c06:	4456      	add	r6, sl
    3c08:	e000      	b.n	3c0c <__gethex+0x148>
    3c0a:	46a9      	mov	r9, r5
    3c0c:	9905      	ldr	r1, [sp, #20]
    3c0e:	f8c1 9000 	str.w	r9, [r1]
    3c12:	b12c      	cbz	r4, 3c20 <__gethex+0x15c>
    3c14:	f1bb 0f00 	cmp.w	fp, #0
    3c18:	bf0c      	ite	eq
    3c1a:	2006      	moveq	r0, #6
    3c1c:	2000      	movne	r0, #0
    3c1e:	e17d      	b.n	3f1c <__gethex+0x458>
    3c20:	1beb      	subs	r3, r5, r7
    3c22:	3b01      	subs	r3, #1
    3c24:	4621      	mov	r1, r4
    3c26:	2b07      	cmp	r3, #7
    3c28:	dd02      	ble.n	3c30 <__gethex+0x16c>
    3c2a:	3101      	adds	r1, #1
    3c2c:	105b      	asrs	r3, r3, #1
    3c2e:	e7fa      	b.n	3c26 <__gethex+0x162>
    3c30:	9803      	ldr	r0, [sp, #12]
    3c32:	f7fe fc52 	bl	24da <_Balloc>
    3c36:	f04f 0900 	mov.w	r9, #0
    3c3a:	f100 0a14 	add.w	sl, r0, #20
    3c3e:	4604      	mov	r4, r0
    3c40:	4653      	mov	r3, sl
    3c42:	46cb      	mov	fp, r9
    3c44:	42bd      	cmp	r5, r7
    3c46:	d933      	bls.n	3cb0 <__gethex+0x1ec>
    3c48:	1e6a      	subs	r2, r5, #1
    3c4a:	9205      	str	r2, [sp, #20]
    3c4c:	9907      	ldr	r1, [sp, #28]
    3c4e:	f815 2c01 	ldrb.w	r2, [r5, #-1]
    3c52:	428a      	cmp	r2, r1
    3c54:	d009      	beq.n	3c6a <__gethex+0x1a6>
    3c56:	f1bb 0f20 	cmp.w	fp, #32
    3c5a:	d117      	bne.n	3c8c <__gethex+0x1c8>
    3c5c:	f8c3 9000 	str.w	r9, [r3]
    3c60:	f04f 0900 	mov.w	r9, #0
    3c64:	3304      	adds	r3, #4
    3c66:	46cb      	mov	fp, r9
    3c68:	e010      	b.n	3c8c <__gethex+0x1c8>
    3c6a:	9a02      	ldr	r2, [sp, #8]
    3c6c:	9905      	ldr	r1, [sp, #20]
    3c6e:	f1c2 0c01 	rsb	ip, r2, #1
    3c72:	448c      	add	ip, r1
    3c74:	45bc      	cmp	ip, r7
    3c76:	d3ee      	bcc.n	3c56 <__gethex+0x192>
    3c78:	4660      	mov	r0, ip
    3c7a:	9904      	ldr	r1, [sp, #16]
    3c7c:	e88d 1008 	stmia.w	sp, {r3, ip}
    3c80:	f7fc fdb8 	bl	7f4 <strncmp>
    3c84:	e89d 1008 	ldmia.w	sp, {r3, ip}
    3c88:	b180      	cbz	r0, 3cac <__gethex+0x1e8>
    3c8a:	e7e4      	b.n	3c56 <__gethex+0x192>
    3c8c:	f815 0c01 	ldrb.w	r0, [r5, #-1]
    3c90:	9300      	str	r3, [sp, #0]
    3c92:	f7ff ff02 	bl	3a9a <__hexdig_fun>
    3c96:	f000 000f 	and.w	r0, r0, #15
    3c9a:	fa00 f00b 	lsl.w	r0, r0, fp
    3c9e:	f8dd c014 	ldr.w	ip, [sp, #20]
    3ca2:	9b00      	ldr	r3, [sp, #0]
    3ca4:	ea49 0900 	orr.w	r9, r9, r0
    3ca8:	f10b 0b04 	add.w	fp, fp, #4
    3cac:	4665      	mov	r5, ip
    3cae:	e7c9      	b.n	3c44 <__gethex+0x180>
    3cb0:	f843 9b04 	str.w	r9, [r3], #4
    3cb4:	ebca 0303 	rsb	r3, sl, r3
    3cb8:	109b      	asrs	r3, r3, #2
    3cba:	6123      	str	r3, [r4, #16]
    3cbc:	4648      	mov	r0, r9
    3cbe:	015f      	lsls	r7, r3, #5
    3cc0:	f7fe fcd3 	bl	266a <__hi0bits>
    3cc4:	f8d8 5000 	ldr.w	r5, [r8]
    3cc8:	1a38      	subs	r0, r7, r0
    3cca:	42a8      	cmp	r0, r5
    3ccc:	dd26      	ble.n	3d1c <__gethex+0x258>
    3cce:	1b47      	subs	r7, r0, r5
    3cd0:	4639      	mov	r1, r7
    3cd2:	4620      	mov	r0, r4
    3cd4:	f7fe ffdb 	bl	2c8e <__any_on>
    3cd8:	b1c8      	cbz	r0, 3d0e <__gethex+0x24a>
    3cda:	1e7b      	subs	r3, r7, #1
    3cdc:	f003 011f 	and.w	r1, r3, #31
    3ce0:	f04f 0901 	mov.w	r9, #1
    3ce4:	fa09 f101 	lsl.w	r1, r9, r1
    3ce8:	115a      	asrs	r2, r3, #5
    3cea:	f85a 2022 	ldr.w	r2, [sl, r2, lsl #2]
    3cee:	4211      	tst	r1, r2
    3cf0:	d00e      	beq.n	3d10 <__gethex+0x24c>
    3cf2:	454b      	cmp	r3, r9
    3cf4:	dc02      	bgt.n	3cfc <__gethex+0x238>
    3cf6:	f04f 0902 	mov.w	r9, #2
    3cfa:	e009      	b.n	3d10 <__gethex+0x24c>
    3cfc:	4620      	mov	r0, r4
    3cfe:	1eb9      	subs	r1, r7, #2
    3d00:	f7fe ffc5 	bl	2c8e <__any_on>
    3d04:	2800      	cmp	r0, #0
    3d06:	d0f6      	beq.n	3cf6 <__gethex+0x232>
    3d08:	f04f 0903 	mov.w	r9, #3
    3d0c:	e000      	b.n	3d10 <__gethex+0x24c>
    3d0e:	4681      	mov	r9, r0
    3d10:	4620      	mov	r0, r4
    3d12:	4639      	mov	r1, r7
    3d14:	f7ff fe8c 	bl	3a30 <rshift>
    3d18:	443e      	add	r6, r7
    3d1a:	e00c      	b.n	3d36 <__gethex+0x272>
    3d1c:	da09      	bge.n	3d32 <__gethex+0x26e>
    3d1e:	1a2f      	subs	r7, r5, r0
    3d20:	4621      	mov	r1, r4
    3d22:	9803      	ldr	r0, [sp, #12]
    3d24:	463a      	mov	r2, r7
    3d26:	f7fe fddd 	bl	28e4 <__lshift>
    3d2a:	1bf6      	subs	r6, r6, r7
    3d2c:	4604      	mov	r4, r0
    3d2e:	f100 0a14 	add.w	sl, r0, #20
    3d32:	f04f 0900 	mov.w	r9, #0
    3d36:	f8d8 3008 	ldr.w	r3, [r8, #8]
    3d3a:	429e      	cmp	r6, r3
    3d3c:	dd08      	ble.n	3d50 <__gethex+0x28c>
    3d3e:	9803      	ldr	r0, [sp, #12]
    3d40:	4621      	mov	r1, r4
    3d42:	f7fe fbff 	bl	2544 <_Bfree>
    3d46:	9a12      	ldr	r2, [sp, #72]	; 0x48
    3d48:	2300      	movs	r3, #0
    3d4a:	6013      	str	r3, [r2, #0]
    3d4c:	20a3      	movs	r0, #163	; 0xa3
    3d4e:	e0e5      	b.n	3f1c <__gethex+0x458>
    3d50:	f8d8 3004 	ldr.w	r3, [r8, #4]
    3d54:	429e      	cmp	r6, r3
    3d56:	da54      	bge.n	3e02 <__gethex+0x33e>
    3d58:	1b9e      	subs	r6, r3, r6
    3d5a:	42ae      	cmp	r6, r5
    3d5c:	db2e      	blt.n	3dbc <__gethex+0x2f8>
    3d5e:	f8d8 300c 	ldr.w	r3, [r8, #12]
    3d62:	2b02      	cmp	r3, #2
    3d64:	d01a      	beq.n	3d9c <__gethex+0x2d8>
    3d66:	2b03      	cmp	r3, #3
    3d68:	d01c      	beq.n	3da4 <__gethex+0x2e0>
    3d6a:	2b01      	cmp	r3, #1
    3d6c:	d11d      	bne.n	3daa <__gethex+0x2e6>
    3d6e:	42ae      	cmp	r6, r5
    3d70:	d11b      	bne.n	3daa <__gethex+0x2e6>
    3d72:	2d01      	cmp	r5, #1
    3d74:	dc0b      	bgt.n	3d8e <__gethex+0x2ca>
    3d76:	f8d8 3004 	ldr.w	r3, [r8, #4]
    3d7a:	9906      	ldr	r1, [sp, #24]
    3d7c:	2062      	movs	r0, #98	; 0x62
    3d7e:	600b      	str	r3, [r1, #0]
    3d80:	2301      	movs	r3, #1
    3d82:	6123      	str	r3, [r4, #16]
    3d84:	f8ca 3000 	str.w	r3, [sl]
    3d88:	9b12      	ldr	r3, [sp, #72]	; 0x48
    3d8a:	601c      	str	r4, [r3, #0]
    3d8c:	e0c6      	b.n	3f1c <__gethex+0x458>
    3d8e:	4620      	mov	r0, r4
    3d90:	1e69      	subs	r1, r5, #1
    3d92:	f7fe ff7c 	bl	2c8e <__any_on>
    3d96:	2800      	cmp	r0, #0
    3d98:	d1ed      	bne.n	3d76 <__gethex+0x2b2>
    3d9a:	e006      	b.n	3daa <__gethex+0x2e6>
    3d9c:	9b13      	ldr	r3, [sp, #76]	; 0x4c
    3d9e:	2b00      	cmp	r3, #0
    3da0:	d0e9      	beq.n	3d76 <__gethex+0x2b2>
    3da2:	e002      	b.n	3daa <__gethex+0x2e6>
    3da4:	9b13      	ldr	r3, [sp, #76]	; 0x4c
    3da6:	2b00      	cmp	r3, #0
    3da8:	d1e5      	bne.n	3d76 <__gethex+0x2b2>
    3daa:	9803      	ldr	r0, [sp, #12]
    3dac:	4621      	mov	r1, r4
    3dae:	f7fe fbc9 	bl	2544 <_Bfree>
    3db2:	9912      	ldr	r1, [sp, #72]	; 0x48
    3db4:	2300      	movs	r3, #0
    3db6:	600b      	str	r3, [r1, #0]
    3db8:	2050      	movs	r0, #80	; 0x50
    3dba:	e0af      	b.n	3f1c <__gethex+0x458>
    3dbc:	1e77      	subs	r7, r6, #1
    3dbe:	f1b9 0f00 	cmp.w	r9, #0
    3dc2:	d107      	bne.n	3dd4 <__gethex+0x310>
    3dc4:	2f00      	cmp	r7, #0
    3dc6:	dd07      	ble.n	3dd8 <__gethex+0x314>
    3dc8:	4620      	mov	r0, r4
    3dca:	4639      	mov	r1, r7
    3dcc:	f7fe ff5f 	bl	2c8e <__any_on>
    3dd0:	4681      	mov	r9, r0
    3dd2:	e001      	b.n	3dd8 <__gethex+0x314>
    3dd4:	f04f 0901 	mov.w	r9, #1
    3dd8:	117b      	asrs	r3, r7, #5
    3dda:	2201      	movs	r2, #1
    3ddc:	f007 071f 	and.w	r7, r7, #31
    3de0:	fa02 f707 	lsl.w	r7, r2, r7
    3de4:	f85a 3023 	ldr.w	r3, [sl, r3, lsl #2]
    3de8:	4631      	mov	r1, r6
    3dea:	421f      	tst	r7, r3
    3dec:	4620      	mov	r0, r4
    3dee:	bf18      	it	ne
    3df0:	f049 0902 	orrne.w	r9, r9, #2
    3df4:	1bad      	subs	r5, r5, r6
    3df6:	f7ff fe1b 	bl	3a30 <rshift>
    3dfa:	2702      	movs	r7, #2
    3dfc:	f8d8 6004 	ldr.w	r6, [r8, #4]
    3e00:	e000      	b.n	3e04 <__gethex+0x340>
    3e02:	2701      	movs	r7, #1
    3e04:	f1b9 0f00 	cmp.w	r9, #0
    3e08:	f000 8083 	beq.w	3f12 <__gethex+0x44e>
    3e0c:	f8d8 300c 	ldr.w	r3, [r8, #12]
    3e10:	2b02      	cmp	r3, #2
    3e12:	d00e      	beq.n	3e32 <__gethex+0x36e>
    3e14:	2b03      	cmp	r3, #3
    3e16:	d010      	beq.n	3e3a <__gethex+0x376>
    3e18:	2b01      	cmp	r3, #1
    3e1a:	d178      	bne.n	3f0e <__gethex+0x44a>
    3e1c:	f019 0f02 	tst.w	r9, #2
    3e20:	d075      	beq.n	3f0e <__gethex+0x44a>
    3e22:	f8da 3000 	ldr.w	r3, [sl]
    3e26:	ea49 0903 	orr.w	r9, r9, r3
    3e2a:	f019 0f01 	tst.w	r9, #1
    3e2e:	d107      	bne.n	3e40 <__gethex+0x37c>
    3e30:	e06d      	b.n	3f0e <__gethex+0x44a>
    3e32:	9b13      	ldr	r3, [sp, #76]	; 0x4c
    3e34:	f1c3 0301 	rsb	r3, r3, #1
    3e38:	9313      	str	r3, [sp, #76]	; 0x4c
    3e3a:	9b13      	ldr	r3, [sp, #76]	; 0x4c
    3e3c:	2b00      	cmp	r3, #0
    3e3e:	d066      	beq.n	3f0e <__gethex+0x44a>
    3e40:	f8d4 9010 	ldr.w	r9, [r4, #16]
    3e44:	f104 0314 	add.w	r3, r4, #20
    3e48:	ea4f 0a89 	mov.w	sl, r9, lsl #2
    3e4c:	eb03 010a 	add.w	r1, r3, sl
    3e50:	4618      	mov	r0, r3
    3e52:	f853 2b04 	ldr.w	r2, [r3], #4
    3e56:	f1b2 3fff 	cmp.w	r2, #4294967295	; 0xffffffff
    3e5a:	d002      	beq.n	3e62 <__gethex+0x39e>
    3e5c:	3201      	adds	r2, #1
    3e5e:	6002      	str	r2, [r0, #0]
    3e60:	e021      	b.n	3ea6 <__gethex+0x3e2>
    3e62:	2200      	movs	r2, #0
    3e64:	428b      	cmp	r3, r1
    3e66:	f843 2c04 	str.w	r2, [r3, #-4]
    3e6a:	d3f1      	bcc.n	3e50 <__gethex+0x38c>
    3e6c:	68a3      	ldr	r3, [r4, #8]
    3e6e:	4599      	cmp	r9, r3
    3e70:	db12      	blt.n	3e98 <__gethex+0x3d4>
    3e72:	6861      	ldr	r1, [r4, #4]
    3e74:	9803      	ldr	r0, [sp, #12]
    3e76:	3101      	adds	r1, #1
    3e78:	f7fe fb2f 	bl	24da <_Balloc>
    3e7c:	6922      	ldr	r2, [r4, #16]
    3e7e:	f104 010c 	add.w	r1, r4, #12
    3e82:	3202      	adds	r2, #2
    3e84:	4683      	mov	fp, r0
    3e86:	0092      	lsls	r2, r2, #2
    3e88:	300c      	adds	r0, #12
    3e8a:	f7fc fbcd 	bl	628 <memcpy>
    3e8e:	4621      	mov	r1, r4
    3e90:	9803      	ldr	r0, [sp, #12]
    3e92:	f7fe fb57 	bl	2544 <_Bfree>
    3e96:	465c      	mov	r4, fp
    3e98:	6923      	ldr	r3, [r4, #16]
    3e9a:	1c5a      	adds	r2, r3, #1
    3e9c:	6122      	str	r2, [r4, #16]
    3e9e:	eb04 0383 	add.w	r3, r4, r3, lsl #2
    3ea2:	2201      	movs	r2, #1
    3ea4:	615a      	str	r2, [r3, #20]
    3ea6:	2f02      	cmp	r7, #2
    3ea8:	f104 0314 	add.w	r3, r4, #20
    3eac:	d111      	bne.n	3ed2 <__gethex+0x40e>
    3eae:	f8d8 2000 	ldr.w	r2, [r8]
    3eb2:	3a01      	subs	r2, #1
    3eb4:	4295      	cmp	r5, r2
    3eb6:	d127      	bne.n	3f08 <__gethex+0x444>
    3eb8:	116a      	asrs	r2, r5, #5
    3eba:	2101      	movs	r1, #1
    3ebc:	f005 051f 	and.w	r5, r5, #31
    3ec0:	fa01 f505 	lsl.w	r5, r1, r5
    3ec4:	f853 3022 	ldr.w	r3, [r3, r2, lsl #2]
    3ec8:	421d      	tst	r5, r3
    3eca:	bf0c      	ite	eq
    3ecc:	2702      	moveq	r7, #2
    3ece:	460f      	movne	r7, r1
    3ed0:	e01a      	b.n	3f08 <__gethex+0x444>
    3ed2:	6922      	ldr	r2, [r4, #16]
    3ed4:	454a      	cmp	r2, r9
    3ed6:	dd0a      	ble.n	3eee <__gethex+0x42a>
    3ed8:	4620      	mov	r0, r4
    3eda:	2101      	movs	r1, #1
    3edc:	f7ff fda8 	bl	3a30 <rshift>
    3ee0:	f8d8 3008 	ldr.w	r3, [r8, #8]
    3ee4:	3601      	adds	r6, #1
    3ee6:	429e      	cmp	r6, r3
    3ee8:	f73f af29 	bgt.w	3d3e <__gethex+0x27a>
    3eec:	e00b      	b.n	3f06 <__gethex+0x442>
    3eee:	f015 051f 	ands.w	r5, r5, #31
    3ef2:	d008      	beq.n	3f06 <__gethex+0x442>
    3ef4:	4453      	add	r3, sl
    3ef6:	f853 0c04 	ldr.w	r0, [r3, #-4]
    3efa:	f7fe fbb6 	bl	266a <__hi0bits>
    3efe:	f1c5 0520 	rsb	r5, r5, #32
    3f02:	42a8      	cmp	r0, r5
    3f04:	dbe8      	blt.n	3ed8 <__gethex+0x414>
    3f06:	2701      	movs	r7, #1
    3f08:	f047 0720 	orr.w	r7, r7, #32
    3f0c:	e001      	b.n	3f12 <__gethex+0x44e>
    3f0e:	f047 0710 	orr.w	r7, r7, #16
    3f12:	9b12      	ldr	r3, [sp, #72]	; 0x48
    3f14:	4638      	mov	r0, r7
    3f16:	601c      	str	r4, [r3, #0]
    3f18:	9b06      	ldr	r3, [sp, #24]
    3f1a:	601e      	str	r6, [r3, #0]
    3f1c:	b009      	add	sp, #36	; 0x24
    3f1e:	e8bd 8ff0 	ldmia.w	sp!, {r4, r5, r6, r7, r8, r9, sl, fp, pc}

00003f22 <L_shift>:
    3f22:	f1c2 0208 	rsb	r2, r2, #8
    3f26:	0092      	lsls	r2, r2, #2
    3f28:	b570      	push	{r4, r5, r6, lr}
    3f2a:	f1c2 0420 	rsb	r4, r2, #32
    3f2e:	6805      	ldr	r5, [r0, #0]
    3f30:	f850 3f04 	ldr.w	r3, [r0, #4]!
    3f34:	fa03 f604 	lsl.w	r6, r3, r4
    3f38:	40d3      	lsrs	r3, r2
    3f3a:	4335      	orrs	r5, r6
    3f3c:	4288      	cmp	r0, r1
    3f3e:	f840 5c04 	str.w	r5, [r0, #-4]
    3f42:	6003      	str	r3, [r0, #0]
    3f44:	d3f3      	bcc.n	3f2e <L_shift+0xc>
    3f46:	bd70      	pop	{r4, r5, r6, pc}

00003f48 <__hexnan>:
    3f48:	e92d 4ff0 	stmdb	sp!, {r4, r5, r6, r7, r8, r9, sl, fp, lr}
    3f4c:	680b      	ldr	r3, [r1, #0]
    3f4e:	b085      	sub	sp, #20
    3f50:	115e      	asrs	r6, r3, #5
    3f52:	9003      	str	r0, [sp, #12]
    3f54:	f013 031f 	ands.w	r3, r3, #31
    3f58:	eb02 0686 	add.w	r6, r2, r6, lsl #2
    3f5c:	9302      	str	r3, [sp, #8]
    3f5e:	9b03      	ldr	r3, [sp, #12]
    3f60:	bf18      	it	ne
    3f62:	3604      	addne	r6, #4
    3f64:	f1a6 0804 	sub.w	r8, r6, #4
    3f68:	4615      	mov	r5, r2
    3f6a:	f8d3 9000 	ldr.w	r9, [r3]
    3f6e:	2200      	movs	r2, #0
    3f70:	f846 2c04 	str.w	r2, [r6, #-4]
    3f74:	4647      	mov	r7, r8
    3f76:	4644      	mov	r4, r8
    3f78:	4692      	mov	sl, r2
    3f7a:	4693      	mov	fp, r2
    3f7c:	f899 1001 	ldrb.w	r1, [r9, #1]
    3f80:	2900      	cmp	r1, #0
    3f82:	d03a      	beq.n	3ffa <__hexnan+0xb2>
    3f84:	4608      	mov	r0, r1
    3f86:	e88d 0006 	stmia.w	sp, {r1, r2}
    3f8a:	f7ff fd86 	bl	3a9a <__hexdig_fun>
    3f8e:	e89d 0006 	ldmia.w	sp, {r1, r2}
    3f92:	b9d8      	cbnz	r0, 3fcc <__hexnan+0x84>
    3f94:	2920      	cmp	r1, #32
    3f96:	d812      	bhi.n	3fbe <__hexnan+0x76>
    3f98:	45da      	cmp	sl, fp
    3f9a:	da2b      	bge.n	3ff4 <__hexnan+0xac>
    3f9c:	42bc      	cmp	r4, r7
    3f9e:	d205      	bcs.n	3fac <__hexnan+0x64>
    3fa0:	2a07      	cmp	r2, #7
    3fa2:	dc03      	bgt.n	3fac <__hexnan+0x64>
    3fa4:	4620      	mov	r0, r4
    3fa6:	4639      	mov	r1, r7
    3fa8:	f7ff ffbb 	bl	3f22 <L_shift>
    3fac:	42ac      	cmp	r4, r5
    3fae:	d920      	bls.n	3ff2 <__hexnan+0xaa>
    3fb0:	1f27      	subs	r7, r4, #4
    3fb2:	2200      	movs	r2, #0
    3fb4:	f844 2c04 	str.w	r2, [r4, #-4]
    3fb8:	46da      	mov	sl, fp
    3fba:	463c      	mov	r4, r7
    3fbc:	e01a      	b.n	3ff4 <__hexnan+0xac>
    3fbe:	2929      	cmp	r1, #41	; 0x29
    3fc0:	d14c      	bne.n	405c <__hexnan+0x114>
    3fc2:	9b03      	ldr	r3, [sp, #12]
    3fc4:	f109 0102 	add.w	r1, r9, #2
    3fc8:	6019      	str	r1, [r3, #0]
    3fca:	e016      	b.n	3ffa <__hexnan+0xb2>
    3fcc:	3201      	adds	r2, #1
    3fce:	2a08      	cmp	r2, #8
    3fd0:	f10b 0b01 	add.w	fp, fp, #1
    3fd4:	dd06      	ble.n	3fe4 <__hexnan+0x9c>
    3fd6:	42ac      	cmp	r4, r5
    3fd8:	d90c      	bls.n	3ff4 <__hexnan+0xac>
    3fda:	2200      	movs	r2, #0
    3fdc:	f844 2c04 	str.w	r2, [r4, #-4]
    3fe0:	3c04      	subs	r4, #4
    3fe2:	2201      	movs	r2, #1
    3fe4:	6821      	ldr	r1, [r4, #0]
    3fe6:	f000 000f 	and.w	r0, r0, #15
    3fea:	ea40 1101 	orr.w	r1, r0, r1, lsl #4
    3fee:	6021      	str	r1, [r4, #0]
    3ff0:	e000      	b.n	3ff4 <__hexnan+0xac>
    3ff2:	2208      	movs	r2, #8
    3ff4:	f109 0901 	add.w	r9, r9, #1
    3ff8:	e7c0      	b.n	3f7c <__hexnan+0x34>
    3ffa:	f1bb 0f00 	cmp.w	fp, #0
    3ffe:	d02d      	beq.n	405c <__hexnan+0x114>
    4000:	42bc      	cmp	r4, r7
    4002:	d205      	bcs.n	4010 <__hexnan+0xc8>
    4004:	2a07      	cmp	r2, #7
    4006:	dc03      	bgt.n	4010 <__hexnan+0xc8>
    4008:	4620      	mov	r0, r4
    400a:	4639      	mov	r1, r7
    400c:	f7ff ff89 	bl	3f22 <L_shift>
    4010:	42ac      	cmp	r4, r5
    4012:	d90c      	bls.n	402e <__hexnan+0xe6>
    4014:	462b      	mov	r3, r5
    4016:	f854 2b04 	ldr.w	r2, [r4], #4
    401a:	4544      	cmp	r4, r8
    401c:	f843 2b04 	str.w	r2, [r3], #4
    4020:	d9f9      	bls.n	4016 <__hexnan+0xce>
    4022:	2200      	movs	r2, #0
    4024:	f843 2b04 	str.w	r2, [r3], #4
    4028:	4543      	cmp	r3, r8
    402a:	d9fa      	bls.n	4022 <__hexnan+0xda>
    402c:	e00d      	b.n	404a <__hexnan+0x102>
    402e:	9b02      	ldr	r3, [sp, #8]
    4030:	b15b      	cbz	r3, 404a <__hexnan+0x102>
    4032:	f1c3 0920 	rsb	r9, r3, #32
    4036:	f04f 33ff 	mov.w	r3, #4294967295	; 0xffffffff
    403a:	fa23 f909 	lsr.w	r9, r3, r9
    403e:	f856 3c04 	ldr.w	r3, [r6, #-4]
    4042:	ea03 0309 	and.w	r3, r3, r9
    4046:	f846 3c04 	str.w	r3, [r6, #-4]
    404a:	f856 3c04 	ldr.w	r3, [r6, #-4]
    404e:	3e04      	subs	r6, #4
    4050:	b933      	cbnz	r3, 4060 <__hexnan+0x118>
    4052:	42b5      	cmp	r5, r6
    4054:	d1f9      	bne.n	404a <__hexnan+0x102>
    4056:	2301      	movs	r3, #1
    4058:	602b      	str	r3, [r5, #0]
    405a:	e001      	b.n	4060 <__hexnan+0x118>
    405c:	2004      	movs	r0, #4
    405e:	e000      	b.n	4062 <__hexnan+0x11a>
    4060:	2005      	movs	r0, #5
    4062:	b005      	add	sp, #20
    4064:	e8bd 8ff0 	ldmia.w	sp!, {r4, r5, r6, r7, r8, r9, sl, fp, pc}

00004068 <_malloc_usable_size_r>:
    4068:	f851 0c04 	ldr.w	r0, [r1, #-4]
    406c:	2800      	cmp	r0, #0
    406e:	da02      	bge.n	4076 <_malloc_usable_size_r+0xe>
    4070:	3904      	subs	r1, #4
    4072:	580b      	ldr	r3, [r1, r0]
    4074:	4418      	add	r0, r3
    4076:	3804      	subs	r0, #4
    4078:	4770      	bx	lr
	...

0000407c <__aeabi_drsub>:
    407c:	f081 4100 	eor.w	r1, r1, #2147483648	; 0x80000000
    4080:	e002      	b.n	4088 <__adddf3>
    4082:	bf00      	nop

00004084 <__aeabi_dsub>:
    4084:	f083 4300 	eor.w	r3, r3, #2147483648	; 0x80000000

00004088 <__adddf3>:
    4088:	b530      	push	{r4, r5, lr}
    408a:	ea4f 0441 	mov.w	r4, r1, lsl #1
    408e:	ea4f 0543 	mov.w	r5, r3, lsl #1
    4092:	ea94 0f05 	teq	r4, r5
    4096:	bf08      	it	eq
    4098:	ea90 0f02 	teqeq	r0, r2
    409c:	bf1f      	itttt	ne
    409e:	ea54 0c00 	orrsne.w	ip, r4, r0
    40a2:	ea55 0c02 	orrsne.w	ip, r5, r2
    40a6:	ea7f 5c64 	mvnsne.w	ip, r4, asr #21
    40aa:	ea7f 5c65 	mvnsne.w	ip, r5, asr #21
    40ae:	f000 80e2 	beq.w	4276 <__adddf3+0x1ee>
    40b2:	ea4f 5454 	mov.w	r4, r4, lsr #21
    40b6:	ebd4 5555 	rsbs	r5, r4, r5, lsr #21
    40ba:	bfb8      	it	lt
    40bc:	426d      	neglt	r5, r5
    40be:	dd0c      	ble.n	40da <__adddf3+0x52>
    40c0:	442c      	add	r4, r5
    40c2:	ea80 0202 	eor.w	r2, r0, r2
    40c6:	ea81 0303 	eor.w	r3, r1, r3
    40ca:	ea82 0000 	eor.w	r0, r2, r0
    40ce:	ea83 0101 	eor.w	r1, r3, r1
    40d2:	ea80 0202 	eor.w	r2, r0, r2
    40d6:	ea81 0303 	eor.w	r3, r1, r3
    40da:	2d36      	cmp	r5, #54	; 0x36
    40dc:	bf88      	it	hi
    40de:	bd30      	pophi	{r4, r5, pc}
    40e0:	f011 4f00 	tst.w	r1, #2147483648	; 0x80000000
    40e4:	ea4f 3101 	mov.w	r1, r1, lsl #12
    40e8:	f44f 1c80 	mov.w	ip, #1048576	; 0x100000
    40ec:	ea4c 3111 	orr.w	r1, ip, r1, lsr #12
    40f0:	d002      	beq.n	40f8 <__adddf3+0x70>
    40f2:	4240      	negs	r0, r0
    40f4:	eb61 0141 	sbc.w	r1, r1, r1, lsl #1
    40f8:	f013 4f00 	tst.w	r3, #2147483648	; 0x80000000
    40fc:	ea4f 3303 	mov.w	r3, r3, lsl #12
    4100:	ea4c 3313 	orr.w	r3, ip, r3, lsr #12
    4104:	d002      	beq.n	410c <__adddf3+0x84>
    4106:	4252      	negs	r2, r2
    4108:	eb63 0343 	sbc.w	r3, r3, r3, lsl #1
    410c:	ea94 0f05 	teq	r4, r5
    4110:	f000 80a7 	beq.w	4262 <__adddf3+0x1da>
    4114:	f1a4 0401 	sub.w	r4, r4, #1
    4118:	f1d5 0e20 	rsbs	lr, r5, #32
    411c:	db0d      	blt.n	413a <__adddf3+0xb2>
    411e:	fa02 fc0e 	lsl.w	ip, r2, lr
    4122:	fa22 f205 	lsr.w	r2, r2, r5
    4126:	1880      	adds	r0, r0, r2
    4128:	f141 0100 	adc.w	r1, r1, #0
    412c:	fa03 f20e 	lsl.w	r2, r3, lr
    4130:	1880      	adds	r0, r0, r2
    4132:	fa43 f305 	asr.w	r3, r3, r5
    4136:	4159      	adcs	r1, r3
    4138:	e00e      	b.n	4158 <__adddf3+0xd0>
    413a:	f1a5 0520 	sub.w	r5, r5, #32
    413e:	f10e 0e20 	add.w	lr, lr, #32
    4142:	2a01      	cmp	r2, #1
    4144:	fa03 fc0e 	lsl.w	ip, r3, lr
    4148:	bf28      	it	cs
    414a:	f04c 0c02 	orrcs.w	ip, ip, #2
    414e:	fa43 f305 	asr.w	r3, r3, r5
    4152:	18c0      	adds	r0, r0, r3
    4154:	eb51 71e3 	adcs.w	r1, r1, r3, asr #31
    4158:	f001 4500 	and.w	r5, r1, #2147483648	; 0x80000000
    415c:	d507      	bpl.n	416e <__adddf3+0xe6>
    415e:	f04f 0e00 	mov.w	lr, #0
    4162:	f1dc 0c00 	rsbs	ip, ip, #0
    4166:	eb7e 0000 	sbcs.w	r0, lr, r0
    416a:	eb6e 0101 	sbc.w	r1, lr, r1
    416e:	f5b1 1f80 	cmp.w	r1, #1048576	; 0x100000
    4172:	d31b      	bcc.n	41ac <__adddf3+0x124>
    4174:	f5b1 1f00 	cmp.w	r1, #2097152	; 0x200000
    4178:	d30c      	bcc.n	4194 <__adddf3+0x10c>
    417a:	0849      	lsrs	r1, r1, #1
    417c:	ea5f 0030 	movs.w	r0, r0, rrx
    4180:	ea4f 0c3c 	mov.w	ip, ip, rrx
    4184:	f104 0401 	add.w	r4, r4, #1
    4188:	ea4f 5244 	mov.w	r2, r4, lsl #21
    418c:	f512 0f80 	cmn.w	r2, #4194304	; 0x400000
    4190:	f080 809a 	bcs.w	42c8 <__adddf3+0x240>
    4194:	f1bc 4f00 	cmp.w	ip, #2147483648	; 0x80000000
    4198:	bf08      	it	eq
    419a:	ea5f 0c50 	movseq.w	ip, r0, lsr #1
    419e:	f150 0000 	adcs.w	r0, r0, #0
    41a2:	eb41 5104 	adc.w	r1, r1, r4, lsl #20
    41a6:	ea41 0105 	orr.w	r1, r1, r5
    41aa:	bd30      	pop	{r4, r5, pc}
    41ac:	ea5f 0c4c 	movs.w	ip, ip, lsl #1
    41b0:	4140      	adcs	r0, r0
    41b2:	eb41 0101 	adc.w	r1, r1, r1
    41b6:	f411 1f80 	tst.w	r1, #1048576	; 0x100000
    41ba:	f1a4 0401 	sub.w	r4, r4, #1
    41be:	d1e9      	bne.n	4194 <__adddf3+0x10c>
    41c0:	f091 0f00 	teq	r1, #0
    41c4:	bf04      	itt	eq
    41c6:	4601      	moveq	r1, r0
    41c8:	2000      	moveq	r0, #0
    41ca:	fab1 f381 	clz	r3, r1
    41ce:	bf08      	it	eq
    41d0:	3320      	addeq	r3, #32
    41d2:	f1a3 030b 	sub.w	r3, r3, #11
    41d6:	f1b3 0220 	subs.w	r2, r3, #32
    41da:	da0c      	bge.n	41f6 <__adddf3+0x16e>
    41dc:	320c      	adds	r2, #12
    41de:	dd08      	ble.n	41f2 <__adddf3+0x16a>
    41e0:	f102 0c14 	add.w	ip, r2, #20
    41e4:	f1c2 020c 	rsb	r2, r2, #12
    41e8:	fa01 f00c 	lsl.w	r0, r1, ip
    41ec:	fa21 f102 	lsr.w	r1, r1, r2
    41f0:	e00c      	b.n	420c <__adddf3+0x184>
    41f2:	f102 0214 	add.w	r2, r2, #20
    41f6:	bfd8      	it	le
    41f8:	f1c2 0c20 	rsble	ip, r2, #32
    41fc:	fa01 f102 	lsl.w	r1, r1, r2
    4200:	fa20 fc0c 	lsr.w	ip, r0, ip
    4204:	bfdc      	itt	le
    4206:	ea41 010c 	orrle.w	r1, r1, ip
    420a:	4090      	lslle	r0, r2
    420c:	1ae4      	subs	r4, r4, r3
    420e:	bfa2      	ittt	ge
    4210:	eb01 5104 	addge.w	r1, r1, r4, lsl #20
    4214:	4329      	orrge	r1, r5
    4216:	bd30      	popge	{r4, r5, pc}
    4218:	ea6f 0404 	mvn.w	r4, r4
    421c:	3c1f      	subs	r4, #31
    421e:	da1c      	bge.n	425a <__adddf3+0x1d2>
    4220:	340c      	adds	r4, #12
    4222:	dc0e      	bgt.n	4242 <__adddf3+0x1ba>
    4224:	f104 0414 	add.w	r4, r4, #20
    4228:	f1c4 0220 	rsb	r2, r4, #32
    422c:	fa20 f004 	lsr.w	r0, r0, r4
    4230:	fa01 f302 	lsl.w	r3, r1, r2
    4234:	ea40 0003 	orr.w	r0, r0, r3
    4238:	fa21 f304 	lsr.w	r3, r1, r4
    423c:	ea45 0103 	orr.w	r1, r5, r3
    4240:	bd30      	pop	{r4, r5, pc}
    4242:	f1c4 040c 	rsb	r4, r4, #12
    4246:	f1c4 0220 	rsb	r2, r4, #32
    424a:	fa20 f002 	lsr.w	r0, r0, r2
    424e:	fa01 f304 	lsl.w	r3, r1, r4
    4252:	ea40 0003 	orr.w	r0, r0, r3
    4256:	4629      	mov	r1, r5
    4258:	bd30      	pop	{r4, r5, pc}
    425a:	fa21 f004 	lsr.w	r0, r1, r4
    425e:	4629      	mov	r1, r5
    4260:	bd30      	pop	{r4, r5, pc}
    4262:	f094 0f00 	teq	r4, #0
    4266:	f483 1380 	eor.w	r3, r3, #1048576	; 0x100000
    426a:	bf06      	itte	eq
    426c:	f481 1180 	eoreq.w	r1, r1, #1048576	; 0x100000
    4270:	3401      	addeq	r4, #1
    4272:	3d01      	subne	r5, #1
    4274:	e74e      	b.n	4114 <__adddf3+0x8c>
    4276:	ea7f 5c64 	mvns.w	ip, r4, asr #21
    427a:	bf18      	it	ne
    427c:	ea7f 5c65 	mvnsne.w	ip, r5, asr #21
    4280:	d029      	beq.n	42d6 <__adddf3+0x24e>
    4282:	ea94 0f05 	teq	r4, r5
    4286:	bf08      	it	eq
    4288:	ea90 0f02 	teqeq	r0, r2
    428c:	d005      	beq.n	429a <__adddf3+0x212>
    428e:	ea54 0c00 	orrs.w	ip, r4, r0
    4292:	bf04      	itt	eq
    4294:	4619      	moveq	r1, r3
    4296:	4610      	moveq	r0, r2
    4298:	bd30      	pop	{r4, r5, pc}
    429a:	ea91 0f03 	teq	r1, r3
    429e:	bf1e      	ittt	ne
    42a0:	2100      	movne	r1, #0
    42a2:	2000      	movne	r0, #0
    42a4:	bd30      	popne	{r4, r5, pc}
    42a6:	ea5f 5c54 	movs.w	ip, r4, lsr #21
    42aa:	d105      	bne.n	42b8 <__adddf3+0x230>
    42ac:	0040      	lsls	r0, r0, #1
    42ae:	4149      	adcs	r1, r1
    42b0:	bf28      	it	cs
    42b2:	f041 4100 	orrcs.w	r1, r1, #2147483648	; 0x80000000
    42b6:	bd30      	pop	{r4, r5, pc}
    42b8:	f514 0480 	adds.w	r4, r4, #4194304	; 0x400000
    42bc:	bf3c      	itt	cc
    42be:	f501 1180 	addcc.w	r1, r1, #1048576	; 0x100000
    42c2:	bd30      	popcc	{r4, r5, pc}
    42c4:	f001 4500 	and.w	r5, r1, #2147483648	; 0x80000000
    42c8:	f045 41fe 	orr.w	r1, r5, #2130706432	; 0x7f000000
    42cc:	f441 0170 	orr.w	r1, r1, #15728640	; 0xf00000
    42d0:	f04f 0000 	mov.w	r0, #0
    42d4:	bd30      	pop	{r4, r5, pc}
    42d6:	ea7f 5c64 	mvns.w	ip, r4, asr #21
    42da:	bf1a      	itte	ne
    42dc:	4619      	movne	r1, r3
    42de:	4610      	movne	r0, r2
    42e0:	ea7f 5c65 	mvnseq.w	ip, r5, asr #21
    42e4:	bf1c      	itt	ne
    42e6:	460b      	movne	r3, r1
    42e8:	4602      	movne	r2, r0
    42ea:	ea50 3401 	orrs.w	r4, r0, r1, lsl #12
    42ee:	bf06      	itte	eq
    42f0:	ea52 3503 	orrseq.w	r5, r2, r3, lsl #12
    42f4:	ea91 0f03 	teqeq	r1, r3
    42f8:	f441 2100 	orrne.w	r1, r1, #524288	; 0x80000
    42fc:	bd30      	pop	{r4, r5, pc}
    42fe:	bf00      	nop

00004300 <__aeabi_ui2d>:
    4300:	f090 0f00 	teq	r0, #0
    4304:	bf04      	itt	eq
    4306:	2100      	moveq	r1, #0
    4308:	4770      	bxeq	lr
    430a:	b530      	push	{r4, r5, lr}
    430c:	f44f 6480 	mov.w	r4, #1024	; 0x400
    4310:	f104 0432 	add.w	r4, r4, #50	; 0x32
    4314:	f04f 0500 	mov.w	r5, #0
    4318:	f04f 0100 	mov.w	r1, #0
    431c:	e750      	b.n	41c0 <__adddf3+0x138>
    431e:	bf00      	nop

00004320 <__aeabi_i2d>:
    4320:	f090 0f00 	teq	r0, #0
    4324:	bf04      	itt	eq
    4326:	2100      	moveq	r1, #0
    4328:	4770      	bxeq	lr
    432a:	b530      	push	{r4, r5, lr}
    432c:	f44f 6480 	mov.w	r4, #1024	; 0x400
    4330:	f104 0432 	add.w	r4, r4, #50	; 0x32
    4334:	f010 4500 	ands.w	r5, r0, #2147483648	; 0x80000000
    4338:	bf48      	it	mi
    433a:	4240      	negmi	r0, r0
    433c:	f04f 0100 	mov.w	r1, #0
    4340:	e73e      	b.n	41c0 <__adddf3+0x138>
    4342:	bf00      	nop

00004344 <__aeabi_f2d>:
    4344:	0042      	lsls	r2, r0, #1
    4346:	ea4f 01e2 	mov.w	r1, r2, asr #3
    434a:	ea4f 0131 	mov.w	r1, r1, rrx
    434e:	ea4f 7002 	mov.w	r0, r2, lsl #28
    4352:	bf1f      	itttt	ne
    4354:	f012 437f 	andsne.w	r3, r2, #4278190080	; 0xff000000
    4358:	f093 4f7f 	teqne	r3, #4278190080	; 0xff000000
    435c:	f081 5160 	eorne.w	r1, r1, #939524096	; 0x38000000
    4360:	4770      	bxne	lr
    4362:	f092 0f00 	teq	r2, #0
    4366:	bf14      	ite	ne
    4368:	f093 4f7f 	teqne	r3, #4278190080	; 0xff000000
    436c:	4770      	bxeq	lr
    436e:	b530      	push	{r4, r5, lr}
    4370:	f44f 7460 	mov.w	r4, #896	; 0x380
    4374:	f001 4500 	and.w	r5, r1, #2147483648	; 0x80000000
    4378:	f021 4100 	bic.w	r1, r1, #2147483648	; 0x80000000
    437c:	e720      	b.n	41c0 <__adddf3+0x138>
    437e:	bf00      	nop

00004380 <__aeabi_ul2d>:
    4380:	ea50 0201 	orrs.w	r2, r0, r1
    4384:	bf08      	it	eq
    4386:	4770      	bxeq	lr
    4388:	b530      	push	{r4, r5, lr}
    438a:	f04f 0500 	mov.w	r5, #0
    438e:	e00a      	b.n	43a6 <__aeabi_l2d+0x16>

00004390 <__aeabi_l2d>:
    4390:	ea50 0201 	orrs.w	r2, r0, r1
    4394:	bf08      	it	eq
    4396:	4770      	bxeq	lr
    4398:	b530      	push	{r4, r5, lr}
    439a:	f011 4500 	ands.w	r5, r1, #2147483648	; 0x80000000
    439e:	d502      	bpl.n	43a6 <__aeabi_l2d+0x16>
    43a0:	4240      	negs	r0, r0
    43a2:	eb61 0141 	sbc.w	r1, r1, r1, lsl #1
    43a6:	f44f 6480 	mov.w	r4, #1024	; 0x400
    43aa:	f104 0432 	add.w	r4, r4, #50	; 0x32
    43ae:	ea5f 5c91 	movs.w	ip, r1, lsr #22
    43b2:	f43f aedc 	beq.w	416e <__adddf3+0xe6>
    43b6:	f04f 0203 	mov.w	r2, #3
    43ba:	ea5f 0cdc 	movs.w	ip, ip, lsr #3
    43be:	bf18      	it	ne
    43c0:	3203      	addne	r2, #3
    43c2:	ea5f 0cdc 	movs.w	ip, ip, lsr #3
    43c6:	bf18      	it	ne
    43c8:	3203      	addne	r2, #3
    43ca:	eb02 02dc 	add.w	r2, r2, ip, lsr #3
    43ce:	f1c2 0320 	rsb	r3, r2, #32
    43d2:	fa00 fc03 	lsl.w	ip, r0, r3
    43d6:	fa20 f002 	lsr.w	r0, r0, r2
    43da:	fa01 fe03 	lsl.w	lr, r1, r3
    43de:	ea40 000e 	orr.w	r0, r0, lr
    43e2:	fa21 f102 	lsr.w	r1, r1, r2
    43e6:	4414      	add	r4, r2
    43e8:	e6c1      	b.n	416e <__adddf3+0xe6>
    43ea:	bf00      	nop

000043ec <__aeabi_dmul>:
    43ec:	b570      	push	{r4, r5, r6, lr}
    43ee:	f04f 0cff 	mov.w	ip, #255	; 0xff
    43f2:	f44c 6ce0 	orr.w	ip, ip, #1792	; 0x700
    43f6:	ea1c 5411 	ands.w	r4, ip, r1, lsr #20
    43fa:	bf1d      	ittte	ne
    43fc:	ea1c 5513 	andsne.w	r5, ip, r3, lsr #20
    4400:	ea94 0f0c 	teqne	r4, ip
    4404:	ea95 0f0c 	teqne	r5, ip
    4408:	f000 f8de 	bleq	45c8 <__aeabi_dmul+0x1dc>
    440c:	442c      	add	r4, r5
    440e:	ea81 0603 	eor.w	r6, r1, r3
    4412:	ea21 514c 	bic.w	r1, r1, ip, lsl #21
    4416:	ea23 534c 	bic.w	r3, r3, ip, lsl #21
    441a:	ea50 3501 	orrs.w	r5, r0, r1, lsl #12
    441e:	bf18      	it	ne
    4420:	ea52 3503 	orrsne.w	r5, r2, r3, lsl #12
    4424:	f441 1180 	orr.w	r1, r1, #1048576	; 0x100000
    4428:	f443 1380 	orr.w	r3, r3, #1048576	; 0x100000
    442c:	d038      	beq.n	44a0 <__aeabi_dmul+0xb4>
    442e:	fba0 ce02 	umull	ip, lr, r0, r2
    4432:	f04f 0500 	mov.w	r5, #0
    4436:	fbe1 e502 	umlal	lr, r5, r1, r2
    443a:	f006 4200 	and.w	r2, r6, #2147483648	; 0x80000000
    443e:	fbe0 e503 	umlal	lr, r5, r0, r3
    4442:	f04f 0600 	mov.w	r6, #0
    4446:	fbe1 5603 	umlal	r5, r6, r1, r3
    444a:	f09c 0f00 	teq	ip, #0
    444e:	bf18      	it	ne
    4450:	f04e 0e01 	orrne.w	lr, lr, #1
    4454:	f1a4 04ff 	sub.w	r4, r4, #255	; 0xff
    4458:	f5b6 7f00 	cmp.w	r6, #512	; 0x200
    445c:	f564 7440 	sbc.w	r4, r4, #768	; 0x300
    4460:	d204      	bcs.n	446c <__aeabi_dmul+0x80>
    4462:	ea5f 0e4e 	movs.w	lr, lr, lsl #1
    4466:	416d      	adcs	r5, r5
    4468:	eb46 0606 	adc.w	r6, r6, r6
    446c:	ea42 21c6 	orr.w	r1, r2, r6, lsl #11
    4470:	ea41 5155 	orr.w	r1, r1, r5, lsr #21
    4474:	ea4f 20c5 	mov.w	r0, r5, lsl #11
    4478:	ea40 505e 	orr.w	r0, r0, lr, lsr #21
    447c:	ea4f 2ece 	mov.w	lr, lr, lsl #11
    4480:	f1b4 0cfd 	subs.w	ip, r4, #253	; 0xfd
    4484:	bf88      	it	hi
    4486:	f5bc 6fe0 	cmphi.w	ip, #1792	; 0x700
    448a:	d81e      	bhi.n	44ca <__aeabi_dmul+0xde>
    448c:	f1be 4f00 	cmp.w	lr, #2147483648	; 0x80000000
    4490:	bf08      	it	eq
    4492:	ea5f 0e50 	movseq.w	lr, r0, lsr #1
    4496:	f150 0000 	adcs.w	r0, r0, #0
    449a:	eb41 5104 	adc.w	r1, r1, r4, lsl #20
    449e:	bd70      	pop	{r4, r5, r6, pc}
    44a0:	f006 4600 	and.w	r6, r6, #2147483648	; 0x80000000
    44a4:	ea46 0101 	orr.w	r1, r6, r1
    44a8:	ea40 0002 	orr.w	r0, r0, r2
    44ac:	ea81 0103 	eor.w	r1, r1, r3
    44b0:	ebb4 045c 	subs.w	r4, r4, ip, lsr #1
    44b4:	bfc2      	ittt	gt
    44b6:	ebd4 050c 	rsbsgt	r5, r4, ip
    44ba:	ea41 5104 	orrgt.w	r1, r1, r4, lsl #20
    44be:	bd70      	popgt	{r4, r5, r6, pc}
    44c0:	f441 1180 	orr.w	r1, r1, #1048576	; 0x100000
    44c4:	f04f 0e00 	mov.w	lr, #0
    44c8:	3c01      	subs	r4, #1
    44ca:	f300 80ab 	bgt.w	4624 <__aeabi_dmul+0x238>
    44ce:	f114 0f36 	cmn.w	r4, #54	; 0x36
    44d2:	bfde      	ittt	le
    44d4:	2000      	movle	r0, #0
    44d6:	f001 4100 	andle.w	r1, r1, #2147483648	; 0x80000000
    44da:	bd70      	pople	{r4, r5, r6, pc}
    44dc:	f1c4 0400 	rsb	r4, r4, #0
    44e0:	3c20      	subs	r4, #32
    44e2:	da35      	bge.n	4550 <__aeabi_dmul+0x164>
    44e4:	340c      	adds	r4, #12
    44e6:	dc1b      	bgt.n	4520 <__aeabi_dmul+0x134>
    44e8:	f104 0414 	add.w	r4, r4, #20
    44ec:	f1c4 0520 	rsb	r5, r4, #32
    44f0:	fa00 f305 	lsl.w	r3, r0, r5
    44f4:	fa20 f004 	lsr.w	r0, r0, r4
    44f8:	fa01 f205 	lsl.w	r2, r1, r5
    44fc:	ea40 0002 	orr.w	r0, r0, r2
    4500:	f001 4200 	and.w	r2, r1, #2147483648	; 0x80000000
    4504:	f021 4100 	bic.w	r1, r1, #2147483648	; 0x80000000
    4508:	eb10 70d3 	adds.w	r0, r0, r3, lsr #31
    450c:	fa21 f604 	lsr.w	r6, r1, r4
    4510:	eb42 0106 	adc.w	r1, r2, r6
    4514:	ea5e 0e43 	orrs.w	lr, lr, r3, lsl #1
    4518:	bf08      	it	eq
    451a:	ea20 70d3 	biceq.w	r0, r0, r3, lsr #31
    451e:	bd70      	pop	{r4, r5, r6, pc}
    4520:	f1c4 040c 	rsb	r4, r4, #12
    4524:	f1c4 0520 	rsb	r5, r4, #32
    4528:	fa00 f304 	lsl.w	r3, r0, r4
    452c:	fa20 f005 	lsr.w	r0, r0, r5
    4530:	fa01 f204 	lsl.w	r2, r1, r4
    4534:	ea40 0002 	orr.w	r0, r0, r2
    4538:	f001 4100 	and.w	r1, r1, #2147483648	; 0x80000000
    453c:	eb10 70d3 	adds.w	r0, r0, r3, lsr #31
    4540:	f141 0100 	adc.w	r1, r1, #0
    4544:	ea5e 0e43 	orrs.w	lr, lr, r3, lsl #1
    4548:	bf08      	it	eq
    454a:	ea20 70d3 	biceq.w	r0, r0, r3, lsr #31
    454e:	bd70      	pop	{r4, r5, r6, pc}
    4550:	f1c4 0520 	rsb	r5, r4, #32
    4554:	fa00 f205 	lsl.w	r2, r0, r5
    4558:	ea4e 0e02 	orr.w	lr, lr, r2
    455c:	fa20 f304 	lsr.w	r3, r0, r4
    4560:	fa01 f205 	lsl.w	r2, r1, r5
    4564:	ea43 0302 	orr.w	r3, r3, r2
    4568:	fa21 f004 	lsr.w	r0, r1, r4
    456c:	f001 4100 	and.w	r1, r1, #2147483648	; 0x80000000
    4570:	fa21 f204 	lsr.w	r2, r1, r4
    4574:	ea20 0002 	bic.w	r0, r0, r2
    4578:	eb00 70d3 	add.w	r0, r0, r3, lsr #31
    457c:	ea5e 0e43 	orrs.w	lr, lr, r3, lsl #1
    4580:	bf08      	it	eq
    4582:	ea20 70d3 	biceq.w	r0, r0, r3, lsr #31
    4586:	bd70      	pop	{r4, r5, r6, pc}
    4588:	f094 0f00 	teq	r4, #0
    458c:	d10f      	bne.n	45ae <__aeabi_dmul+0x1c2>
    458e:	f001 4600 	and.w	r6, r1, #2147483648	; 0x80000000
    4592:	0040      	lsls	r0, r0, #1
    4594:	eb41 0101 	adc.w	r1, r1, r1
    4598:	f411 1f80 	tst.w	r1, #1048576	; 0x100000
    459c:	bf08      	it	eq
    459e:	3c01      	subeq	r4, #1
    45a0:	d0f7      	beq.n	4592 <__aeabi_dmul+0x1a6>
    45a2:	ea41 0106 	orr.w	r1, r1, r6
    45a6:	f095 0f00 	teq	r5, #0
    45aa:	bf18      	it	ne
    45ac:	4770      	bxne	lr
    45ae:	f003 4600 	and.w	r6, r3, #2147483648	; 0x80000000
    45b2:	0052      	lsls	r2, r2, #1
    45b4:	eb43 0303 	adc.w	r3, r3, r3
    45b8:	f413 1f80 	tst.w	r3, #1048576	; 0x100000
    45bc:	bf08      	it	eq
    45be:	3d01      	subeq	r5, #1
    45c0:	d0f7      	beq.n	45b2 <__aeabi_dmul+0x1c6>
    45c2:	ea43 0306 	orr.w	r3, r3, r6
    45c6:	4770      	bx	lr
    45c8:	ea94 0f0c 	teq	r4, ip
    45cc:	ea0c 5513 	and.w	r5, ip, r3, lsr #20
    45d0:	bf18      	it	ne
    45d2:	ea95 0f0c 	teqne	r5, ip
    45d6:	d00c      	beq.n	45f2 <__aeabi_dmul+0x206>
    45d8:	ea50 0641 	orrs.w	r6, r0, r1, lsl #1
    45dc:	bf18      	it	ne
    45de:	ea52 0643 	orrsne.w	r6, r2, r3, lsl #1
    45e2:	d1d1      	bne.n	4588 <__aeabi_dmul+0x19c>
    45e4:	ea81 0103 	eor.w	r1, r1, r3
    45e8:	f001 4100 	and.w	r1, r1, #2147483648	; 0x80000000
    45ec:	f04f 0000 	mov.w	r0, #0
    45f0:	bd70      	pop	{r4, r5, r6, pc}
    45f2:	ea50 0641 	orrs.w	r6, r0, r1, lsl #1
    45f6:	bf06      	itte	eq
    45f8:	4610      	moveq	r0, r2
    45fa:	4619      	moveq	r1, r3
    45fc:	ea52 0643 	orrsne.w	r6, r2, r3, lsl #1
    4600:	d019      	beq.n	4636 <__aeabi_dmul+0x24a>
    4602:	ea94 0f0c 	teq	r4, ip
    4606:	d102      	bne.n	460e <__aeabi_dmul+0x222>
    4608:	ea50 3601 	orrs.w	r6, r0, r1, lsl #12
    460c:	d113      	bne.n	4636 <__aeabi_dmul+0x24a>
    460e:	ea95 0f0c 	teq	r5, ip
    4612:	d105      	bne.n	4620 <__aeabi_dmul+0x234>
    4614:	ea52 3603 	orrs.w	r6, r2, r3, lsl #12
    4618:	bf1c      	itt	ne
    461a:	4610      	movne	r0, r2
    461c:	4619      	movne	r1, r3
    461e:	d10a      	bne.n	4636 <__aeabi_dmul+0x24a>
    4620:	ea81 0103 	eor.w	r1, r1, r3
    4624:	f001 4100 	and.w	r1, r1, #2147483648	; 0x80000000
    4628:	f041 41fe 	orr.w	r1, r1, #2130706432	; 0x7f000000
    462c:	f441 0170 	orr.w	r1, r1, #15728640	; 0xf00000
    4630:	f04f 0000 	mov.w	r0, #0
    4634:	bd70      	pop	{r4, r5, r6, pc}
    4636:	f041 41fe 	orr.w	r1, r1, #2130706432	; 0x7f000000
    463a:	f441 0178 	orr.w	r1, r1, #16252928	; 0xf80000
    463e:	bd70      	pop	{r4, r5, r6, pc}

00004640 <__aeabi_ddiv>:
    4640:	b570      	push	{r4, r5, r6, lr}
    4642:	f04f 0cff 	mov.w	ip, #255	; 0xff
    4646:	f44c 6ce0 	orr.w	ip, ip, #1792	; 0x700
    464a:	ea1c 5411 	ands.w	r4, ip, r1, lsr #20
    464e:	bf1d      	ittte	ne
    4650:	ea1c 5513 	andsne.w	r5, ip, r3, lsr #20
    4654:	ea94 0f0c 	teqne	r4, ip
    4658:	ea95 0f0c 	teqne	r5, ip
    465c:	f000 f8a7 	bleq	47ae <__aeabi_ddiv+0x16e>
    4660:	eba4 0405 	sub.w	r4, r4, r5
    4664:	ea81 0e03 	eor.w	lr, r1, r3
    4668:	ea52 3503 	orrs.w	r5, r2, r3, lsl #12
    466c:	ea4f 3101 	mov.w	r1, r1, lsl #12
    4670:	f000 8088 	beq.w	4784 <__aeabi_ddiv+0x144>
    4674:	ea4f 3303 	mov.w	r3, r3, lsl #12
    4678:	f04f 5580 	mov.w	r5, #268435456	; 0x10000000
    467c:	ea45 1313 	orr.w	r3, r5, r3, lsr #4
    4680:	ea43 6312 	orr.w	r3, r3, r2, lsr #24
    4684:	ea4f 2202 	mov.w	r2, r2, lsl #8
    4688:	ea45 1511 	orr.w	r5, r5, r1, lsr #4
    468c:	ea45 6510 	orr.w	r5, r5, r0, lsr #24
    4690:	ea4f 2600 	mov.w	r6, r0, lsl #8
    4694:	f00e 4100 	and.w	r1, lr, #2147483648	; 0x80000000
    4698:	429d      	cmp	r5, r3
    469a:	bf08      	it	eq
    469c:	4296      	cmpeq	r6, r2
    469e:	f144 04fd 	adc.w	r4, r4, #253	; 0xfd
    46a2:	f504 7440 	add.w	r4, r4, #768	; 0x300
    46a6:	d202      	bcs.n	46ae <__aeabi_ddiv+0x6e>
    46a8:	085b      	lsrs	r3, r3, #1
    46aa:	ea4f 0232 	mov.w	r2, r2, rrx
    46ae:	1ab6      	subs	r6, r6, r2
    46b0:	eb65 0503 	sbc.w	r5, r5, r3
    46b4:	085b      	lsrs	r3, r3, #1
    46b6:	ea4f 0232 	mov.w	r2, r2, rrx
    46ba:	f44f 1080 	mov.w	r0, #1048576	; 0x100000
    46be:	f44f 2c00 	mov.w	ip, #524288	; 0x80000
    46c2:	ebb6 0e02 	subs.w	lr, r6, r2
    46c6:	eb75 0e03 	sbcs.w	lr, r5, r3
    46ca:	bf22      	ittt	cs
    46cc:	1ab6      	subcs	r6, r6, r2
    46ce:	4675      	movcs	r5, lr
    46d0:	ea40 000c 	orrcs.w	r0, r0, ip
    46d4:	085b      	lsrs	r3, r3, #1
    46d6:	ea4f 0232 	mov.w	r2, r2, rrx
    46da:	ebb6 0e02 	subs.w	lr, r6, r2
    46de:	eb75 0e03 	sbcs.w	lr, r5, r3
    46e2:	bf22      	ittt	cs
    46e4:	1ab6      	subcs	r6, r6, r2
    46e6:	4675      	movcs	r5, lr
    46e8:	ea40 005c 	orrcs.w	r0, r0, ip, lsr #1
    46ec:	085b      	lsrs	r3, r3, #1
    46ee:	ea4f 0232 	mov.w	r2, r2, rrx
    46f2:	ebb6 0e02 	subs.w	lr, r6, r2
    46f6:	eb75 0e03 	sbcs.w	lr, r5, r3
    46fa:	bf22      	ittt	cs
    46fc:	1ab6      	subcs	r6, r6, r2
    46fe:	4675      	movcs	r5, lr
    4700:	ea40 009c 	orrcs.w	r0, r0, ip, lsr #2
    4704:	085b      	lsrs	r3, r3, #1
    4706:	ea4f 0232 	mov.w	r2, r2, rrx
    470a:	ebb6 0e02 	subs.w	lr, r6, r2
    470e:	eb75 0e03 	sbcs.w	lr, r5, r3
    4712:	bf22      	ittt	cs
    4714:	1ab6      	subcs	r6, r6, r2
    4716:	4675      	movcs	r5, lr
    4718:	ea40 00dc 	orrcs.w	r0, r0, ip, lsr #3
    471c:	ea55 0e06 	orrs.w	lr, r5, r6
    4720:	d018      	beq.n	4754 <__aeabi_ddiv+0x114>
    4722:	ea4f 1505 	mov.w	r5, r5, lsl #4
    4726:	ea45 7516 	orr.w	r5, r5, r6, lsr #28
    472a:	ea4f 1606 	mov.w	r6, r6, lsl #4
    472e:	ea4f 03c3 	mov.w	r3, r3, lsl #3
    4732:	ea43 7352 	orr.w	r3, r3, r2, lsr #29
    4736:	ea4f 02c2 	mov.w	r2, r2, lsl #3
    473a:	ea5f 1c1c 	movs.w	ip, ip, lsr #4
    473e:	d1c0      	bne.n	46c2 <__aeabi_ddiv+0x82>
    4740:	f411 1f80 	tst.w	r1, #1048576	; 0x100000
    4744:	d10b      	bne.n	475e <__aeabi_ddiv+0x11e>
    4746:	ea41 0100 	orr.w	r1, r1, r0
    474a:	f04f 0000 	mov.w	r0, #0
    474e:	f04f 4c00 	mov.w	ip, #2147483648	; 0x80000000
    4752:	e7b6      	b.n	46c2 <__aeabi_ddiv+0x82>
    4754:	f411 1f80 	tst.w	r1, #1048576	; 0x100000
    4758:	bf04      	itt	eq
    475a:	4301      	orreq	r1, r0
    475c:	2000      	moveq	r0, #0
    475e:	f1b4 0cfd 	subs.w	ip, r4, #253	; 0xfd
    4762:	bf88      	it	hi
    4764:	f5bc 6fe0 	cmphi.w	ip, #1792	; 0x700
    4768:	f63f aeaf 	bhi.w	44ca <__aeabi_dmul+0xde>
    476c:	ebb5 0c03 	subs.w	ip, r5, r3
    4770:	bf04      	itt	eq
    4772:	ebb6 0c02 	subseq.w	ip, r6, r2
    4776:	ea5f 0c50 	movseq.w	ip, r0, lsr #1
    477a:	f150 0000 	adcs.w	r0, r0, #0
    477e:	eb41 5104 	adc.w	r1, r1, r4, lsl #20
    4782:	bd70      	pop	{r4, r5, r6, pc}
    4784:	f00e 4e00 	and.w	lr, lr, #2147483648	; 0x80000000
    4788:	ea4e 3111 	orr.w	r1, lr, r1, lsr #12
    478c:	eb14 045c 	adds.w	r4, r4, ip, lsr #1
    4790:	bfc2      	ittt	gt
    4792:	ebd4 050c 	rsbsgt	r5, r4, ip
    4796:	ea41 5104 	orrgt.w	r1, r1, r4, lsl #20
    479a:	bd70      	popgt	{r4, r5, r6, pc}
    479c:	f441 1180 	orr.w	r1, r1, #1048576	; 0x100000
    47a0:	f04f 0e00 	mov.w	lr, #0
    47a4:	3c01      	subs	r4, #1
    47a6:	e690      	b.n	44ca <__aeabi_dmul+0xde>
    47a8:	ea45 0e06 	orr.w	lr, r5, r6
    47ac:	e68d      	b.n	44ca <__aeabi_dmul+0xde>
    47ae:	ea0c 5513 	and.w	r5, ip, r3, lsr #20
    47b2:	ea94 0f0c 	teq	r4, ip
    47b6:	bf08      	it	eq
    47b8:	ea95 0f0c 	teqeq	r5, ip
    47bc:	f43f af3b 	beq.w	4636 <__aeabi_dmul+0x24a>
    47c0:	ea94 0f0c 	teq	r4, ip
    47c4:	d10a      	bne.n	47dc <__aeabi_ddiv+0x19c>
    47c6:	ea50 3401 	orrs.w	r4, r0, r1, lsl #12
    47ca:	f47f af34 	bne.w	4636 <__aeabi_dmul+0x24a>
    47ce:	ea95 0f0c 	teq	r5, ip
    47d2:	f47f af25 	bne.w	4620 <__aeabi_dmul+0x234>
    47d6:	4610      	mov	r0, r2
    47d8:	4619      	mov	r1, r3
    47da:	e72c      	b.n	4636 <__aeabi_dmul+0x24a>
    47dc:	ea95 0f0c 	teq	r5, ip
    47e0:	d106      	bne.n	47f0 <__aeabi_ddiv+0x1b0>
    47e2:	ea52 3503 	orrs.w	r5, r2, r3, lsl #12
    47e6:	f43f aefd 	beq.w	45e4 <__aeabi_dmul+0x1f8>
    47ea:	4610      	mov	r0, r2
    47ec:	4619      	mov	r1, r3
    47ee:	e722      	b.n	4636 <__aeabi_dmul+0x24a>
    47f0:	ea50 0641 	orrs.w	r6, r0, r1, lsl #1
    47f4:	bf18      	it	ne
    47f6:	ea52 0643 	orrsne.w	r6, r2, r3, lsl #1
    47fa:	f47f aec5 	bne.w	4588 <__aeabi_dmul+0x19c>
    47fe:	ea50 0441 	orrs.w	r4, r0, r1, lsl #1
    4802:	f47f af0d 	bne.w	4620 <__aeabi_dmul+0x234>
    4806:	ea52 0543 	orrs.w	r5, r2, r3, lsl #1
    480a:	f47f aeeb 	bne.w	45e4 <__aeabi_dmul+0x1f8>
    480e:	e712      	b.n	4636 <__aeabi_dmul+0x24a>

00004810 <__gedf2>:
    4810:	f04f 3cff 	mov.w	ip, #4294967295	; 0xffffffff
    4814:	e006      	b.n	4824 <__cmpdf2+0x4>
    4816:	bf00      	nop

00004818 <__ledf2>:
    4818:	f04f 0c01 	mov.w	ip, #1
    481c:	e002      	b.n	4824 <__cmpdf2+0x4>
    481e:	bf00      	nop

00004820 <__cmpdf2>:
    4820:	f04f 0c01 	mov.w	ip, #1
    4824:	f84d cd04 	str.w	ip, [sp, #-4]!
    4828:	ea4f 0c41 	mov.w	ip, r1, lsl #1
    482c:	ea7f 5c6c 	mvns.w	ip, ip, asr #21
    4830:	ea4f 0c43 	mov.w	ip, r3, lsl #1
    4834:	bf18      	it	ne
    4836:	ea7f 5c6c 	mvnsne.w	ip, ip, asr #21
    483a:	d01b      	beq.n	4874 <__cmpdf2+0x54>
    483c:	b001      	add	sp, #4
    483e:	ea50 0c41 	orrs.w	ip, r0, r1, lsl #1
    4842:	bf0c      	ite	eq
    4844:	ea52 0c43 	orrseq.w	ip, r2, r3, lsl #1
    4848:	ea91 0f03 	teqne	r1, r3
    484c:	bf02      	ittt	eq
    484e:	ea90 0f02 	teqeq	r0, r2
    4852:	2000      	moveq	r0, #0
    4854:	4770      	bxeq	lr
    4856:	f110 0f00 	cmn.w	r0, #0
    485a:	ea91 0f03 	teq	r1, r3
    485e:	bf58      	it	pl
    4860:	4299      	cmppl	r1, r3
    4862:	bf08      	it	eq
    4864:	4290      	cmpeq	r0, r2
    4866:	bf2c      	ite	cs
    4868:	17d8      	asrcs	r0, r3, #31
    486a:	ea6f 70e3 	mvncc.w	r0, r3, asr #31
    486e:	f040 0001 	orr.w	r0, r0, #1
    4872:	4770      	bx	lr
    4874:	ea4f 0c41 	mov.w	ip, r1, lsl #1
    4878:	ea7f 5c6c 	mvns.w	ip, ip, asr #21
    487c:	d102      	bne.n	4884 <__cmpdf2+0x64>
    487e:	ea50 3c01 	orrs.w	ip, r0, r1, lsl #12
    4882:	d107      	bne.n	4894 <__cmpdf2+0x74>
    4884:	ea4f 0c43 	mov.w	ip, r3, lsl #1
    4888:	ea7f 5c6c 	mvns.w	ip, ip, asr #21
    488c:	d1d6      	bne.n	483c <__cmpdf2+0x1c>
    488e:	ea52 3c03 	orrs.w	ip, r2, r3, lsl #12
    4892:	d0d3      	beq.n	483c <__cmpdf2+0x1c>
    4894:	f85d 0b04 	ldr.w	r0, [sp], #4
    4898:	4770      	bx	lr
    489a:	bf00      	nop

0000489c <__aeabi_cdrcmple>:
    489c:	4684      	mov	ip, r0
    489e:	4610      	mov	r0, r2
    48a0:	4662      	mov	r2, ip
    48a2:	468c      	mov	ip, r1
    48a4:	4619      	mov	r1, r3
    48a6:	4663      	mov	r3, ip
    48a8:	e000      	b.n	48ac <__aeabi_cdcmpeq>
    48aa:	bf00      	nop

000048ac <__aeabi_cdcmpeq>:
    48ac:	b501      	push	{r0, lr}
    48ae:	f7ff ffb7 	bl	4820 <__cmpdf2>
    48b2:	2800      	cmp	r0, #0
    48b4:	bf48      	it	mi
    48b6:	f110 0f00 	cmnmi.w	r0, #0
    48ba:	bd01      	pop	{r0, pc}

000048bc <__aeabi_dcmpeq>:
    48bc:	f84d ed08 	str.w	lr, [sp, #-8]!
    48c0:	f7ff fff4 	bl	48ac <__aeabi_cdcmpeq>
    48c4:	bf0c      	ite	eq
    48c6:	2001      	moveq	r0, #1
    48c8:	2000      	movne	r0, #0
    48ca:	f85d fb08 	ldr.w	pc, [sp], #8
    48ce:	bf00      	nop

000048d0 <__aeabi_dcmplt>:
    48d0:	f84d ed08 	str.w	lr, [sp, #-8]!
    48d4:	f7ff ffea 	bl	48ac <__aeabi_cdcmpeq>
    48d8:	bf34      	ite	cc
    48da:	2001      	movcc	r0, #1
    48dc:	2000      	movcs	r0, #0
    48de:	f85d fb08 	ldr.w	pc, [sp], #8
    48e2:	bf00      	nop

000048e4 <__aeabi_dcmple>:
    48e4:	f84d ed08 	str.w	lr, [sp, #-8]!
    48e8:	f7ff ffe0 	bl	48ac <__aeabi_cdcmpeq>
    48ec:	bf94      	ite	ls
    48ee:	2001      	movls	r0, #1
    48f0:	2000      	movhi	r0, #0
    48f2:	f85d fb08 	ldr.w	pc, [sp], #8
    48f6:	bf00      	nop

000048f8 <__aeabi_dcmpge>:
    48f8:	f84d ed08 	str.w	lr, [sp, #-8]!
    48fc:	f7ff ffce 	bl	489c <__aeabi_cdrcmple>
    4900:	bf94      	ite	ls
    4902:	2001      	movls	r0, #1
    4904:	2000      	movhi	r0, #0
    4906:	f85d fb08 	ldr.w	pc, [sp], #8
    490a:	bf00      	nop

0000490c <__aeabi_dcmpgt>:
    490c:	f84d ed08 	str.w	lr, [sp, #-8]!
    4910:	f7ff ffc4 	bl	489c <__aeabi_cdrcmple>
    4914:	bf34      	ite	cc
    4916:	2001      	movcc	r0, #1
    4918:	2000      	movcs	r0, #0
    491a:	f85d fb08 	ldr.w	pc, [sp], #8
    491e:	bf00      	nop

00004920 <__aeabi_d2iz>:
    4920:	ea4f 0241 	mov.w	r2, r1, lsl #1
    4924:	f512 1200 	adds.w	r2, r2, #2097152	; 0x200000
    4928:	d215      	bcs.n	4956 <__aeabi_d2iz+0x36>
    492a:	d511      	bpl.n	4950 <__aeabi_d2iz+0x30>
    492c:	f46f 7378 	mvn.w	r3, #992	; 0x3e0
    4930:	ebb3 5262 	subs.w	r2, r3, r2, asr #21
    4934:	d912      	bls.n	495c <__aeabi_d2iz+0x3c>
    4936:	ea4f 23c1 	mov.w	r3, r1, lsl #11
    493a:	f043 4300 	orr.w	r3, r3, #2147483648	; 0x80000000
    493e:	ea43 5350 	orr.w	r3, r3, r0, lsr #21
    4942:	f011 4f00 	tst.w	r1, #2147483648	; 0x80000000
    4946:	fa23 f002 	lsr.w	r0, r3, r2
    494a:	bf18      	it	ne
    494c:	4240      	negne	r0, r0
    494e:	4770      	bx	lr
    4950:	f04f 0000 	mov.w	r0, #0
    4954:	4770      	bx	lr
    4956:	ea50 3001 	orrs.w	r0, r0, r1, lsl #12
    495a:	d105      	bne.n	4968 <__aeabi_d2iz+0x48>
    495c:	f011 4000 	ands.w	r0, r1, #2147483648	; 0x80000000
    4960:	bf08      	it	eq
    4962:	f06f 4000 	mvneq.w	r0, #2147483648	; 0x80000000
    4966:	4770      	bx	lr
    4968:	f04f 0000 	mov.w	r0, #0
    496c:	4770      	bx	lr
    496e:	bf00      	nop

00004970 <__aeabi_d2uiz>:
    4970:	004a      	lsls	r2, r1, #1
    4972:	d211      	bcs.n	4998 <__aeabi_d2uiz+0x28>
    4974:	f512 1200 	adds.w	r2, r2, #2097152	; 0x200000
    4978:	d211      	bcs.n	499e <__aeabi_d2uiz+0x2e>
    497a:	d50d      	bpl.n	4998 <__aeabi_d2uiz+0x28>
    497c:	f46f 7378 	mvn.w	r3, #992	; 0x3e0
    4980:	ebb3 5262 	subs.w	r2, r3, r2, asr #21
    4984:	d40e      	bmi.n	49a4 <__aeabi_d2uiz+0x34>
    4986:	ea4f 23c1 	mov.w	r3, r1, lsl #11
    498a:	f043 4300 	orr.w	r3, r3, #2147483648	; 0x80000000
    498e:	ea43 5350 	orr.w	r3, r3, r0, lsr #21
    4992:	fa23 f002 	lsr.w	r0, r3, r2
    4996:	4770      	bx	lr
    4998:	f04f 0000 	mov.w	r0, #0
    499c:	4770      	bx	lr
    499e:	ea50 3001 	orrs.w	r0, r0, r1, lsl #12
    49a2:	d102      	bne.n	49aa <__aeabi_d2uiz+0x3a>
    49a4:	f04f 30ff 	mov.w	r0, #4294967295	; 0xffffffff
    49a8:	4770      	bx	lr
    49aa:	f04f 0000 	mov.w	r0, #0
    49ae:	4770      	bx	lr

000049b0 <__aeabi_d2f>:
    49b0:	ea4f 0241 	mov.w	r2, r1, lsl #1
    49b4:	f1b2 43e0 	subs.w	r3, r2, #1879048192	; 0x70000000
    49b8:	bf24      	itt	cs
    49ba:	f5b3 1c00 	subscs.w	ip, r3, #2097152	; 0x200000
    49be:	f1dc 5cfe 	rsbscs	ip, ip, #532676608	; 0x1fc00000
    49c2:	d90d      	bls.n	49e0 <__aeabi_d2f+0x30>
    49c4:	f001 4c00 	and.w	ip, r1, #2147483648	; 0x80000000
    49c8:	ea4f 02c0 	mov.w	r2, r0, lsl #3
    49cc:	ea4c 7050 	orr.w	r0, ip, r0, lsr #29
    49d0:	f1b2 4f00 	cmp.w	r2, #2147483648	; 0x80000000
    49d4:	eb40 0083 	adc.w	r0, r0, r3, lsl #2
    49d8:	bf08      	it	eq
    49da:	f020 0001 	biceq.w	r0, r0, #1
    49de:	4770      	bx	lr
    49e0:	f011 4f80 	tst.w	r1, #1073741824	; 0x40000000
    49e4:	d121      	bne.n	4a2a <__aeabi_d2f+0x7a>
    49e6:	f113 7238 	adds.w	r2, r3, #48234496	; 0x2e00000
    49ea:	bfbc      	itt	lt
    49ec:	f001 4000 	andlt.w	r0, r1, #2147483648	; 0x80000000
    49f0:	4770      	bxlt	lr
    49f2:	f441 1180 	orr.w	r1, r1, #1048576	; 0x100000
    49f6:	ea4f 5252 	mov.w	r2, r2, lsr #21
    49fa:	f1c2 0218 	rsb	r2, r2, #24
    49fe:	f1c2 0c20 	rsb	ip, r2, #32
    4a02:	fa10 f30c 	lsls.w	r3, r0, ip
    4a06:	fa20 f002 	lsr.w	r0, r0, r2
    4a0a:	bf18      	it	ne
    4a0c:	f040 0001 	orrne.w	r0, r0, #1
    4a10:	ea4f 23c1 	mov.w	r3, r1, lsl #11
    4a14:	ea4f 23d3 	mov.w	r3, r3, lsr #11
    4a18:	fa03 fc0c 	lsl.w	ip, r3, ip
    4a1c:	ea40 000c 	orr.w	r0, r0, ip
    4a20:	fa23 f302 	lsr.w	r3, r3, r2
    4a24:	ea4f 0343 	mov.w	r3, r3, lsl #1
    4a28:	e7cc      	b.n	49c4 <__aeabi_d2f+0x14>
    4a2a:	ea7f 5362 	mvns.w	r3, r2, asr #21
    4a2e:	d107      	bne.n	4a40 <__aeabi_d2f+0x90>
    4a30:	ea50 3301 	orrs.w	r3, r0, r1, lsl #12
    4a34:	bf1e      	ittt	ne
    4a36:	f04f 40fe 	movne.w	r0, #2130706432	; 0x7f000000
    4a3a:	f440 0040 	orrne.w	r0, r0, #12582912	; 0xc00000
    4a3e:	4770      	bxne	lr
    4a40:	f001 4000 	and.w	r0, r1, #2147483648	; 0x80000000
    4a44:	f040 40fe 	orr.w	r0, r0, #2130706432	; 0x7f000000
    4a48:	f440 0000 	orr.w	r0, r0, #8388608	; 0x800000
    4a4c:	4770      	bx	lr
    4a4e:	bf00      	nop

00004a50 <_sbrk>:
    4a50:	4a09      	ldr	r2, [pc, #36]	; (4a78 <_sbrk+0x28>)
    4a52:	6813      	ldr	r3, [r2, #0]
    4a54:	b163      	cbz	r3, 4a70 <_sbrk+0x20>
    4a56:	4418      	add	r0, r3
    4a58:	4669      	mov	r1, sp
    4a5a:	4288      	cmp	r0, r1
    4a5c:	d802      	bhi.n	4a64 <_sbrk+0x14>
    4a5e:	6010      	str	r0, [r2, #0]
    4a60:	4618      	mov	r0, r3
    4a62:	4770      	bx	lr
    4a64:	4b05      	ldr	r3, [pc, #20]	; (4a7c <_sbrk+0x2c>)
    4a66:	220c      	movs	r2, #12
    4a68:	601a      	str	r2, [r3, #0]
    4a6a:	f04f 30ff 	mov.w	r0, #4294967295	; 0xffffffff
    4a6e:	4770      	bx	lr
    4a70:	4b03      	ldr	r3, [pc, #12]	; (4a80 <_sbrk+0x30>)
    4a72:	6013      	str	r3, [r2, #0]
    4a74:	e7ef      	b.n	4a56 <_sbrk+0x6>
    4a76:	bf00      	nop
    4a78:	10000194 	mulne	r0, r4, r1
    4a7c:	10000198 	mulne	r0, r8, r1
    4a80:	100001a0 	andne	r0, r0, r0, lsr #3

00004a84 <_init>:
    4a84:	b5f8      	push	{r3, r4, r5, r6, r7, lr}
    4a86:	bf00      	nop
    4a88:	bcf8      	pop	{r3, r4, r5, r6, r7}
    4a8a:	bc08      	pop	{r3}
    4a8c:	469e      	mov	lr, r3
    4a8e:	4770      	bx	lr

00004a90 <_fini>:
    4a90:	b5f8      	push	{r3, r4, r5, r6, r7, lr}
    4a92:	bf00      	nop
    4a94:	bcf8      	pop	{r3, r4, r5, r6, r7}
    4a96:	bc08      	pop	{r3}
    4a98:	469e      	mov	lr, r3
    4a9a:	4770      	bx	lr
    4a9c:	2d230043 	stccs	0, cr0, [r3, #-268]!	; 0xfffffef4
    4aa0:	00202b30 	eoreq	r2, r0, r0, lsr fp
    4aa4:	004c6c68 	subeq	r6, ip, r8, ror #24
    4aa8:	45676665 	strbmi	r6, [r7, #-1637]!	; 0x665
    4aac:	49004746 	stmdbmi	r0, {r1, r2, r6, r8, r9, sl, lr}
    4ab0:	6900464e 	stmdbvs	r0, {r1, r2, r3, r6, r9, sl, lr}
    4ab4:	4e00666e 	cfmadd32mi	mvax3, mvfx6, mvfx0, mvfx14
    4ab8:	6e004e41 	cdpvs	14, 0, cr4, cr0, cr1, {2}
    4abc:	30006e61 	andcc	r6, r0, r1, ror #28
    4ac0:	32313000 	eorscc	r3, r1, #0
    4ac4:	36353433 			; <UNDEFINED> instruction: 0x36353433
    4ac8:	41393837 	teqmi	r9, r7, lsr r8
    4acc:	45444342 	strbmi	r4, [r4, #-834]	; 0x342
    4ad0:	31300046 	teqcc	r0, r6, asr #32
    4ad4:	35343332 	ldrcc	r3, [r4, #-818]!	; 0x332
    4ad8:	39383736 	ldmdbcc	r8!, {r1, r2, r4, r5, r8, r9, sl, ip, sp}
    4adc:	64636261 	strbtvs	r6, [r3], #-609	; 0x261
    4ae0:	65006665 	strvs	r6, [r0, #-1637]	; 0x665
    4ae4:	00646c25 	rsbeq	r6, r4, r5, lsr #24

00004ae8 <_ctype_>:
    4ae8:	20202000 	eorcs	r2, r0, r0
    4aec:	20202020 	eorcs	r2, r0, r0, lsr #32
    4af0:	28282020 	stmdacs	r8!, {r5, sp}
    4af4:	20282828 	eorcs	r2, r8, r8, lsr #16
    4af8:	20202020 	eorcs	r2, r0, r0, lsr #32
    4afc:	20202020 	eorcs	r2, r0, r0, lsr #32
    4b00:	20202020 	eorcs	r2, r0, r0, lsr #32
    4b04:	20202020 	eorcs	r2, r0, r0, lsr #32
    4b08:	10108820 	andsne	r8, r0, r0, lsr #16
    4b0c:	10101010 	andsne	r1, r0, r0, lsl r0
    4b10:	10101010 	andsne	r1, r0, r0, lsl r0
    4b14:	10101010 	andsne	r1, r0, r0, lsl r0
    4b18:	04040410 	streq	r0, [r4], #-1040	; 0x410
    4b1c:	04040404 	streq	r0, [r4], #-1028	; 0x404
    4b20:	10040404 	andne	r0, r4, r4, lsl #8
    4b24:	10101010 	andsne	r1, r0, r0, lsl r0
    4b28:	41411010 	cmpmi	r1, r0, lsl r0
    4b2c:	41414141 	cmpmi	r1, r1, asr #2
    4b30:	01010101 	tsteq	r1, r1, lsl #2
    4b34:	01010101 	tsteq	r1, r1, lsl #2
    4b38:	01010101 	tsteq	r1, r1, lsl #2
    4b3c:	01010101 	tsteq	r1, r1, lsl #2
    4b40:	01010101 	tsteq	r1, r1, lsl #2
    4b44:	10101010 	andsne	r1, r0, r0, lsl r0
    4b48:	42421010 	submi	r1, r2, #16
    4b4c:	42424242 	submi	r4, r2, #536870916	; 0x20000004
    4b50:	02020202 	andeq	r0, r2, #536870912	; 0x20000000
    4b54:	02020202 	andeq	r0, r2, #536870912	; 0x20000000
    4b58:	02020202 	andeq	r0, r2, #536870912	; 0x20000000
    4b5c:	02020202 	andeq	r0, r2, #536870912	; 0x20000000
    4b60:	02020202 	andeq	r0, r2, #536870912	; 0x20000000
    4b64:	10101010 	andsne	r1, r0, r0, lsl r0
    4b68:	00000020 	andeq	r0, r0, r0, lsr #32
	...
    4be8:	666e4900 	strbtvs	r4, [lr], -r0, lsl #18
    4bec:	74696e69 	strbtvc	r6, [r9], #-3689	; 0xe69
    4bf0:	614e0079 	hvcvs	57353	; 0xe009
    4bf4:	0000004e 	andeq	r0, r0, lr, asr #32

00004bf8 <__sf_fake_stdin>:
	...

00004c18 <__sf_fake_stdout>:
	...

00004c38 <__sf_fake_stderr>:
	...
    4c58:	49534f50 	ldmdbmi	r3, {r4, r6, r8, r9, sl, fp, lr}^
    4c5c:	002e0058 	eoreq	r0, lr, r8, asr r0

00004c60 <__mprec_tens>:
    4c60:	00000000 	andeq	r0, r0, r0
    4c64:	3ff00000 	svccc	0x00f00000	; IMB
    4c68:	00000000 	andeq	r0, r0, r0
    4c6c:	40240000 	eormi	r0, r4, r0
    4c70:	00000000 	andeq	r0, r0, r0
    4c74:	40590000 	subsmi	r0, r9, r0
    4c78:	00000000 	andeq	r0, r0, r0
    4c7c:	408f4000 	addmi	r4, pc, r0
    4c80:	00000000 	andeq	r0, r0, r0
    4c84:	40c38800 	sbcmi	r8, r3, r0, lsl #16
    4c88:	00000000 	andeq	r0, r0, r0
    4c8c:	40f86a00 	rscsmi	r6, r8, r0, lsl #20
    4c90:	00000000 	andeq	r0, r0, r0
    4c94:	412e8480 	smlawbmi	lr, r0, r4, r8
    4c98:	00000000 	andeq	r0, r0, r0
    4c9c:	416312d0 	ldrdmi	r1, [r3, #-32]!	; 0xffffffe0
    4ca0:	00000000 	andeq	r0, r0, r0
    4ca4:	4197d784 	orrsmi	sp, r7, r4, lsl #15
    4ca8:	00000000 	andeq	r0, r0, r0
    4cac:	41cdcd65 	bicmi	ip, sp, r5, ror #26
    4cb0:	20000000 	andcs	r0, r0, r0
    4cb4:	4202a05f 	andmi	sl, r2, #95	; 0x5f
    4cb8:	e8000000 	stmda	r0, {}	; <UNPREDICTABLE>
    4cbc:	42374876 	eorsmi	r4, r7, #7733248	; 0x760000
    4cc0:	a2000000 	andge	r0, r0, #0
    4cc4:	426d1a94 	rsbmi	r1, sp, #148, 20	; 0x94000
    4cc8:	e5400000 	strb	r0, [r0, #-0]
    4ccc:	42a2309c 	adcmi	r3, r2, #156	; 0x9c
    4cd0:	1e900000 	cdpne	0, 9, cr0, cr0, cr0, {0}
    4cd4:	42d6bcc4 	sbcsmi	fp, r6, #196, 24	; 0xc400
    4cd8:	26340000 	ldrtcs	r0, [r4], -r0
    4cdc:	430c6bf5 	movwmi	r6, #52213	; 0xcbf5
    4ce0:	37e08000 	strbcc	r8, [r0, r0]!
    4ce4:	4341c379 	movtmi	ip, #4985	; 0x1379
    4ce8:	85d8a000 	ldrbhi	sl, [r8]
    4cec:	43763457 	cmnmi	r6, #1459617792	; 0x57000000
    4cf0:	674ec800 	strbvs	ip, [lr, -r0, lsl #16]
    4cf4:	43abc16d 			; <UNDEFINED> instruction: 0x43abc16d
    4cf8:	60913d00 	addsvs	r3, r1, r0, lsl #26
    4cfc:	43e158e4 	mvnmi	r5, #228, 16	; 0xe40000
    4d00:	78b58c40 	ldmvc	r5!, {r6, sl, fp, pc}
    4d04:	4415af1d 	ldrmi	sl, [r5], #-3869	; 0xf1d
    4d08:	d6e2ef50 	usatle	lr, #2, r0, asr #30
    4d0c:	444b1ae4 	strbmi	r1, [fp], #-2788	; 0xae4
    4d10:	064dd592 			; <UNDEFINED> instruction: 0x064dd592
    4d14:	4480f0cf 	strmi	pc, [r0], #207	; 0xcf
    4d18:	c7e14af6 			; <UNDEFINED> instruction: 0xc7e14af6
    4d1c:	44b52d02 	ldrtmi	r2, [r5], #3330	; 0xd02
    4d20:	79d99db4 	ldmibvc	r9, {r2, r4, r5, r7, r8, sl, fp, ip, pc}^
    4d24:	44ea7843 	strbtmi	r7, [sl], #2115	; 0x843

00004d28 <__mprec_bigtens>:
    4d28:	37e08000 	strbcc	r8, [r0, r0]!
    4d2c:	4341c379 	movtmi	ip, #4985	; 0x1379
    4d30:	b5056e17 	strlt	r6, [r5, #-3607]	; 0xe17
    4d34:	4693b8b5 			; <UNDEFINED> instruction: 0x4693b8b5
    4d38:	e93ff9f5 	ldmdb	pc!, {r0, r2, r4, r5, r6, r7, r8, fp, ip, sp, lr, pc}	; <UNPREDICTABLE>
    4d3c:	4d384f03 	ldcmi	15, cr4, [r8, #-12]!
    4d40:	f9301d32 			; <UNDEFINED> instruction: 0xf9301d32
    4d44:	5a827748 	bpl	fe0a2a6c <__StackTop+0xee09aa6c>
    4d48:	7f73bf3c 	svcvc	0x0073bf3c
    4d4c:	75154fdd 	ldrvc	r4, [r5, #-4061]	; 0xfdd

00004d50 <p05.5281>:
    4d50:	00000005 	andeq	r0, r0, r5
    4d54:	00000019 	andeq	r0, r0, r9, lsl r0
    4d58:	0000007d 	andeq	r0, r0, sp, ror r0
    4d5c:	00000000 	andeq	r0, r0, r0

00004d60 <tinytens>:
    4d60:	97d889bc 			; <UNDEFINED> instruction: 0x97d889bc
    4d64:	3c9cd2b2 	lfmcc	f5, 1, [ip], {178}	; 0xb2
    4d68:	d5a8a733 	strle	sl, [r8, #1843]!	; 0x733
    4d6c:	3949f623 	stmdbcc	r9, {r0, r1, r5, r9, sl, ip, sp, lr, pc}^
    4d70:	44f4a73d 	ldrbtmi	sl, [r4], #1853	; 0x73d
    4d74:	32a50ffd 	adccc	r0, r5, #1012	; 0x3f4
    4d78:	cf8c979d 	svcgt	0x008c979d
    4d7c:	255bba08 	ldrbcs	fp, [fp, #-2568]	; 0xa08
    4d80:	64ac6f43 	strtvs	r6, [ip], #3907	; 0xf43
    4d84:	11680628 	cmnne	r8, r8, lsr #12

00004d88 <fpi.5246>:
    4d88:	00000035 	andeq	r0, r0, r5, lsr r0
    4d8c:	fffffbce 			; <UNDEFINED> instruction: 0xfffffbce
    4d90:	000003cb 	andeq	r0, r0, fp, asr #7
    4d94:	00000001 	andeq	r0, r0, r1
    4d98:	00000000 	andeq	r0, r0, r0

00004d9c <fpinan.5282>:
    4d9c:	00000034 	andeq	r0, r0, r4, lsr r0
    4da0:	fffffbce 			; <UNDEFINED> instruction: 0xfffffbce
    4da4:	000003cb 	andeq	r0, r0, fp, asr #7
    4da8:	00000001 	andeq	r0, r0, r1
    4dac:	00000000 	andeq	r0, r0, r0

00004db0 <__EH_FRAME_BEGIN__>:
    4db0:	00000000 	andeq	r0, r0, r0

Disassembly of section .ARM.exidx:

00004db4 <_etext-0x8>:
    4db4:	7fffb318 	svcvc	0x00ffb318
    4db8:	00000001 	andeq	r0, r0, r1

Disassembly of section .data:

100000c8 <SystemCoreClock>:
100000c8:	05b8d800 	ldreq	sp, [r8, #2048]!	; 0x800

100000cc <impure_data>:
100000cc:	00000000 	andeq	r0, r0, r0
100000d0:	00004bf8 	strdeq	r4, [r0], -r8
100000d4:	00004c18 	andeq	r4, r0, r8, lsl ip
100000d8:	00004c38 	andeq	r4, r0, r8, lsr ip
	...
100000ec:	00004a9c 	muleq	r0, ip, sl
	...

1000012c <_impure_ptr>:
1000012c:	100000cc 	andne	r0, r0, ip, asr #1

10000130 <__ctype_ptr__>:
10000130:	00004ae8 	andeq	r4, r0, r8, ror #21

10000134 <lconv>:
10000134:	00004c5e 	andeq	r4, r0, lr, asr ip
10000138:	00004aa3 	andeq	r4, r0, r3, lsr #21
1000013c:	00004aa3 	andeq	r4, r0, r3, lsr #21
10000140:	00004aa3 	andeq	r4, r0, r3, lsr #21
10000144:	00004aa3 	andeq	r4, r0, r3, lsr #21
10000148:	00004aa3 	andeq	r4, r0, r3, lsr #21
1000014c:	00004aa3 	andeq	r4, r0, r3, lsr #21
10000150:	00004aa3 	andeq	r4, r0, r3, lsr #21
10000154:	00004aa3 	andeq	r4, r0, r3, lsr #21
10000158:	00004aa3 	andeq	r4, r0, r3, lsr #21
1000015c:	ffffffff 			; <UNDEFINED> instruction: 0xffffffff
10000160:	ffffffff 			; <UNDEFINED> instruction: 0xffffffff
10000164:	ffffffff 			; <UNDEFINED> instruction: 0xffffffff
10000168:	0000ffff 	strdeq	pc, [r0], -pc	; <UNPREDICTABLE>

Disassembly of section .bss:

1000016c <__bss_start__>:
	...

10000188 <us_ticker_running>:
10000188:	00000000 	andeq	r0, r0, r0

1000018c <__malloc_sbrk_start>:
1000018c:	00000000 	andeq	r0, r0, r0

10000190 <__malloc_free_list>:
10000190:	00000000 	andeq	r0, r0, r0

10000194 <heap_end.4246>:
10000194:	00000000 	andeq	r0, r0, r0

10000198 <errno>:
10000198:	00000000 	andeq	r0, r0, r0

Disassembly of section .heap:

100001a0 <__HeapBase>:
	...

Disassembly of section .stack_dummy:

100001a0 <.stack_dummy>:
	...

Disassembly of section .ARM.attributes:

00000000 <.ARM.attributes>:
   0:	00002841 	andeq	r2, r0, r1, asr #16
   4:	61656100 	cmnvs	r5, r0, lsl #2
   8:	01006962 	tsteq	r0, r2, ror #18
   c:	0000001e 	andeq	r0, r0, lr, lsl r0
  10:	4d2d3705 	stcmi	7, cr3, [sp, #-20]!	; 0xffffffec
  14:	070a0600 	streq	r0, [sl, -r0, lsl #12]
  18:	1202094d 	andne	r0, r2, #1261568	; 0x134000
  1c:	15011404 	strne	r1, [r1, #-1028]	; 0x404
  20:	18031701 	stmdane	r3, {r0, r8, r9, sl, ip}
  24:	22011a01 	andcs	r1, r1, #4096	; 0x1000
  28:	Address 0x0000000000000028 is out of bounds.


Disassembly of section .comment:

00000000 <.comment>:
   0:	3a434347 	bcc	10d0d24 <_etext+0x10cbf68>
   4:	4e472820 	cdpmi	8, 4, cr2, cr7, cr0, {1}
   8:	6f542055 	svcvs	0x00542055
   c:	20736c6f 	rsbscs	r6, r3, pc, ror #24
  10:	20726f66 	rsbscs	r6, r2, r6, ror #30
  14:	204d5241 	subcs	r5, sp, r1, asr #4
  18:	65626d45 	strbvs	r6, [r2, #-3397]!	; 0xd45
  1c:	64656464 	strbtvs	r6, [r5], #-1124	; 0x464
  20:	6f725020 	svcvs	0x00725020
  24:	73736563 	cmnvc	r3, #415236096	; 0x18c00000
  28:	2973726f 	ldmdbcs	r3!, {r0, r1, r2, r3, r5, r6, r9, ip, sp, lr}^
  2c:	382e3420 	stmdacc	lr!, {r5, sl, ip, sp}
  30:	3220342e 	eorcc	r3, r0, #771751936	; 0x2e000000
  34:	30343130 	eorscc	r3, r4, r0, lsr r1
  38:	20353237 	eorscs	r3, r5, r7, lsr r2
  3c:	6c657228 	sfmvs	f7, 2, [r5], #-160	; 0xffffff60
  40:	65736165 	ldrbvs	r6, [r3, #-357]!	; 0x165
  44:	415b2029 	cmpmi	fp, r9, lsr #32
  48:	652f4d52 	strvs	r4, [pc, #-3410]!	; fffff2fe <__StackTop+0xefff72fe>
  4c:	6465626d 	strbtvs	r6, [r5], #-621	; 0x26d
  50:	2d646564 	cfstr64cs	mvdx6, [r4, #-400]!	; 0xfffffe70
  54:	2d385f34 	ldccs	15, cr5, [r8, #-208]!	; 0xffffff30
  58:	6e617262 	cdpvs	2, 6, cr7, cr1, cr2, {3}
  5c:	72206863 	eorvc	r6, r0, #6488064	; 0x630000
  60:	73697665 	cmnvc	r9, #105906176	; 0x6500000
  64:	206e6f69 	rsbcs	r6, lr, r9, ror #30
  68:	31333132 	teqcc	r3, r2, lsr r1
  6c:	005d3734 	subseq	r3, sp, r4, lsr r7
  70:	3a434347 	bcc	10d0d94 <_etext+0x10cbfd8>
  74:	43472820 	movtmi	r2, #30752	; 0x7820
  78:	52412043 	subpl	r2, r1, #67	; 0x43
  7c:	6e49204d 	cdpvs	0, 4, cr2, cr9, cr13, {2}
  80:	6e726574 	mrcvs	5, 3, r6, cr2, cr4, {3}
  84:	52206c61 	eorpl	r6, r0, #24832	; 0x6100
  88:	61656c65 	cmnvs	r5, r5, ror #24
  8c:	46206573 			; <UNDEFINED> instruction: 0x46206573
  90:	4520726f 	strmi	r7, [r0, #-623]!	; 0x26f
  94:	2d494241 	sfmcs	f4, 2, [r9, #-260]	; 0xfffffefc
  98:	6c696164 	stfvse	f6, [r9], #-400	; 0xfffffe70
  9c:	75622079 	strbvc	r2, [r2, #-121]!	; 0x79
  a0:	20646c69 	rsbcs	r6, r4, r9, ror #24
  a4:	31313032 	teqcc	r1, r2, lsr r0
  a8:	39303830 	ldmdbcc	r0!, {r4, r5, fp, ip, sp}
  ac:	2e342029 	cdpcs	0, 3, cr2, cr4, cr9, {1}
  b0:	20322e36 	eorscs	r2, r2, r6, lsr lr
  b4:	31313032 	teqcc	r1, r2, lsr r0
  b8:	37303730 			; <UNDEFINED> instruction: 0x37303730
  bc:	72702820 	rsbsvc	r2, r0, #32, 16	; 0x200000
  c0:	6c657265 	sfmvs	f7, 2, [r5], #-404	; 0xfffffe6c
  c4:	65736165 	ldrbvs	r6, [r3, #-357]!	; 0x165
  c8:	Address 0x00000000000000c8 is out of bounds.


Disassembly of section .debug_info:

00000000 <.debug_info>:
       0:	000019f7 	strdeq	r1, [r0], -r7
       4:	00000004 	andeq	r0, r0, r4
       8:	01040000 	mrseq	r0, (UNDEF: 4)
       c:	000009b8 			; <UNDEFINED> instruction: 0x000009b8
      10:	0001d304 	andeq	sp, r1, r4, lsl #6
      14:	000ada00 	andeq	sp, sl, r0, lsl #20
      18:	00004800 	andeq	r4, r0, r0, lsl #16
	...
      24:	00060200 	andeq	r0, r6, r0, lsl #4
      28:	d4030000 	strle	r0, [r3], #-0
      2c:	00000030 	andeq	r0, r0, r0, lsr r0
      30:	35070403 	strcc	r0, [r7, #-1027]	; 0x403
      34:	04000007 	streq	r0, [r0], #-7
      38:	05040504 	streq	r0, [r4, #-1284]	; 0x504
      3c:	00746e69 	rsbseq	r6, r4, r9, ror #28
      40:	7b060103 	blvc	180454 <_etext+0x17b698>
      44:	03000002 	movweq	r0, #2
      48:	02790801 	rsbseq	r0, r9, #65536	; 0x10000
      4c:	02030000 	andeq	r0, r3, #0
      50:	0008cc05 	andeq	ip, r8, r5, lsl #24
      54:	07020300 	streq	r0, [r2, -r0, lsl #6]
      58:	00000a9c 	muleq	r0, ip, sl
      5c:	000ad002 	andeq	sp, sl, r2
      60:	67370400 	ldrvs	r0, [r7, -r0, lsl #8]!
      64:	03000000 	movweq	r0, #0
      68:	05400504 	strbeq	r0, [r0, #-1284]	; 0x504
      6c:	04030000 	streq	r0, [r3], #-0
      70:	00073007 	andeq	r3, r7, r7
      74:	05080300 	streq	r0, [r8, #-768]	; 0x300
      78:	0000053b 	andeq	r0, r0, fp, lsr r5
      7c:	2b070803 	blcs	1c2090 <_etext+0x1bd2d4>
      80:	02000007 	andeq	r0, r0, #7
      84:	000004a1 	andeq	r0, r0, r1, lsr #9
      88:	00390705 	eorseq	r0, r9, r5, lsl #14
      8c:	b1020000 	mrslt	r0, (UNDEF: 2)
      90:	06000009 	streq	r0, [r0], -r9
      94:	00006710 	andeq	r6, r0, r0, lsl r7
      98:	06d70200 	ldrbeq	r0, [r7], r0, lsl #4
      9c:	27060000 	strcs	r0, [r6, -r0]
      a0:	00000067 	andeq	r0, r0, r7, rrx
      a4:	00087f06 	andeq	r7, r8, r6, lsl #30
      a8:	01610300 	cmneq	r1, r0, lsl #6
      ac:	00000030 	andeq	r0, r0, r0, lsr r0
      b0:	48060807 	stmdami	r6, {r0, r1, r2, fp}
      b4:	0000015a 	andeq	r0, r0, sl, asr r1
      b8:	000000f4 	strdeq	r0, [r0], -r4
      bc:	4b060408 	blmi	1810e4 <_etext+0x17c328>
      c0:	000000db 	ldrdeq	r0, [r0], -fp
      c4:	00010509 	andeq	r0, r1, r9, lsl #10
      c8:	a44c0600 	strbge	r0, [ip], #-1536	; 0x600
      cc:	09000000 	stmdbeq	r0, {}	; <UNPREDICTABLE>
      d0:	000006df 	ldrdeq	r0, [r0], -pc	; <UNPREDICTABLE>
      d4:	00f44d06 	rscseq	r4, r4, r6, lsl #26
      d8:	0a000000 	beq	e0 <_mainCRTStartup+0x14>
      dc:	00000691 	muleq	r0, r1, r6
      e0:	00394906 	eorseq	r4, r9, r6, lsl #18
      e4:	0a000000 	beq	ec <_mainCRTStartup+0x20>
      e8:	00000016 	andeq	r0, r0, r6, lsl r0
      ec:	00bc4e06 	adcseq	r4, ip, r6, lsl #28
      f0:	00040000 	andeq	r0, r4, r0
      f4:	0000470b 	andeq	r4, r0, fp, lsl #14
      f8:	00010400 	andeq	r0, r1, r0, lsl #8
      fc:	01040c00 	tsteq	r4, r0, lsl #24
     100:	00030000 	andeq	r0, r3, r0
     104:	0d070403 	cfstrseq	mvf0, [r7, #-12]
     108:	02000000 	andeq	r0, r0, #0
     10c:	0000015c 	andeq	r0, r0, ip, asr r1
     110:	00b04f06 	adcseq	r4, r0, r6, lsl #30
     114:	2f020000 	svccs	0x00020000
     118:	06000008 	streq	r0, [r0], -r8
     11c:	00008353 	andeq	r8, r0, r3, asr r3
     120:	098f0200 	stmibeq	pc, {r9}	; <UNPREDICTABLE>
     124:	16070000 	strne	r0, [r7], -r0
     128:	0000006e 	andeq	r0, r0, lr, rrx
     12c:	0004c40d 	andeq	ip, r4, sp, lsl #8
     130:	2d071800 	stccs	8, cr1, [r7, #-0]
     134:	0000017f 	andeq	r0, r0, pc, ror r1
     138:	0006580a 	andeq	r5, r6, sl, lsl #16
     13c:	7f2f0700 	svcvc	0x002f0700
     140:	00000001 	andeq	r0, r0, r1
     144:	006b5f0e 	rsbeq	r5, fp, lr, lsl #30
     148:	00393007 	eorseq	r3, r9, r7
     14c:	0a040000 	beq	100154 <_etext+0xfb398>
     150:	000004cc 	andeq	r0, r0, ip, asr #9
     154:	00393007 	eorseq	r3, r9, r7
     158:	0a080000 	beq	200160 <_etext+0x1fb3a4>
     15c:	000005aa 	andeq	r0, r0, sl, lsr #11
     160:	00393007 	eorseq	r3, r9, r7
     164:	0a0c0000 	beq	30016c <_etext+0x2fb3b0>
     168:	00000426 	andeq	r0, r0, r6, lsr #8
     16c:	00393007 	eorseq	r3, r9, r7
     170:	0e100000 	cdpeq	0, 1, cr0, cr0, cr0, {0}
     174:	0700785f 	smlsdeq	r0, pc, r8, r7	; <UNPREDICTABLE>
     178:	00018531 	andeq	r8, r1, r1, lsr r5
     17c:	0f001400 	svceq	0x00001400
     180:	00012c04 	andeq	r2, r1, r4, lsl #24
     184:	006e0b00 	rsbeq	r0, lr, r0, lsl #22
     188:	01950000 	orrseq	r0, r5, r0
     18c:	040c0000 	streq	r0, [ip], #-0
     190:	00000001 	andeq	r0, r0, r1
     194:	007e0d00 	rsbseq	r0, lr, r0, lsl #26
     198:	07240000 	streq	r0, [r4, -r0]!
     19c:	00020e35 	andeq	r0, r2, r5, lsr lr
     1a0:	009a0a00 	addseq	r0, sl, r0, lsl #20
     1a4:	37070000 	strcc	r0, [r7, -r0]
     1a8:	00000039 	andeq	r0, r0, r9, lsr r0
     1ac:	0b280a00 	bleq	a029b4 <_etext+0x9fdbf8>
     1b0:	38070000 	stmdacc	r7, {}	; <UNPREDICTABLE>
     1b4:	00000039 	andeq	r0, r0, r9, lsr r0
     1b8:	0aaf0a04 	beq	febc29d0 <__StackTop+0xeebba9d0>
     1bc:	39070000 	stmdbcc	r7, {}	; <UNPREDICTABLE>
     1c0:	00000039 	andeq	r0, r0, r9, lsr r0
     1c4:	06180a08 	ldreq	r0, [r8], -r8, lsl #20
     1c8:	3a070000 	bcc	1c01d0 <_etext+0x1bb414>
     1cc:	00000039 	andeq	r0, r0, r9, lsr r0
     1d0:	01820a0c 	orreq	r0, r2, ip, lsl #20
     1d4:	3b070000 	blcc	1c01dc <_etext+0x1bb420>
     1d8:	00000039 	andeq	r0, r0, r9, lsr r0
     1dc:	08f80a10 	ldmeq	r8!, {r4, r9, fp}^
     1e0:	3c070000 	stccc	0, cr0, [r7], {-0}
     1e4:	00000039 	andeq	r0, r0, r9, lsr r0
     1e8:	06a50a14 	ssateq	r0, #6, r4, lsl #20
     1ec:	3d070000 	stccc	0, cr0, [r7, #-0]
     1f0:	00000039 	andeq	r0, r0, r9, lsr r0
     1f4:	06c10a18 			; <UNDEFINED> instruction: 0x06c10a18
     1f8:	3e070000 	cdpcc	0, 0, cr0, cr7, cr0, {0}
     1fc:	00000039 	andeq	r0, r0, r9, lsr r0
     200:	0b160a1c 	bleq	582a78 <_etext+0x57dcbc>
     204:	3f070000 	svccc	0x00070000
     208:	00000039 	andeq	r0, r0, r9, lsr r0
     20c:	16100020 	ldrne	r0, [r0], -r0, lsr #32
     210:	08000001 	stmdaeq	r0, {r0}
     214:	4e480701 	cdpmi	7, 4, cr0, cr8, cr1, {0}
     218:	0a000002 	beq	228 <NMI_Handler>
     21c:	00000b0e 	andeq	r0, r0, lr, lsl #22
     220:	024e4907 	subeq	r4, lr, #114688	; 0x1c000
     224:	0a000000 	beq	22c <MemManage_Handler>
     228:	00000998 	muleq	r0, r8, r9
     22c:	024e4a07 	subeq	r4, lr, #28672	; 0x7000
     230:	11800000 	orrne	r0, r0, r0
     234:	000008d6 	ldrdeq	r0, [r0], -r6
     238:	01214c07 	teqeq	r1, r7, lsl #24
     23c:	01000000 	mrseq	r0, (UNDEF: 0)
     240:	00093711 	andeq	r3, r9, r1, lsl r7
     244:	214f0700 	cmpcs	pc, r0, lsl #14
     248:	04000001 	streq	r0, [r0], #-1
     24c:	370b0001 	strcc	r0, [fp, -r1]
     250:	5e000000 	cdppl	0, 0, cr0, cr0, cr0, {0}
     254:	0c000002 	stceq	0, cr0, [r0], {2}
     258:	00000104 	andeq	r0, r0, r4, lsl #2
     25c:	0810001f 	ldmdaeq	r0, {r0, r1, r2, r3, r4}
     260:	90000004 	andls	r0, r0, r4
     264:	9c5b0701 	mrrcls	7, 0, r0, fp, cr1
     268:	0a000002 	beq	278 <MCPWM_IRQHandler>
     26c:	00000658 	andeq	r0, r0, r8, asr r6
     270:	029c5c07 	addseq	r5, ip, #1792	; 0x700
     274:	0a000000 	beq	27c <PLL1_IRQHandler>
     278:	0000091e 	andeq	r0, r0, lr, lsl r9
     27c:	00395d07 	eorseq	r5, r9, r7, lsl #26
     280:	0a040000 	beq	100288 <_etext+0xfb4cc>
     284:	00000362 	andeq	r0, r0, r2, ror #6
     288:	02a25f07 	adceq	r5, r2, #7, 30
     28c:	0a080000 	beq	200294 <_etext+0x1fb4d8>
     290:	00000116 	andeq	r0, r0, r6, lsl r1
     294:	020e6007 	andeq	r6, lr, #7
     298:	00880000 	addeq	r0, r8, r0
     29c:	025e040f 	subseq	r0, lr, #251658240	; 0xf000000
     2a0:	b20b0000 	andlt	r0, fp, #0
     2a4:	b2000002 	andlt	r0, r0, #2
     2a8:	0c000002 	stceq	0, cr0, [r0], {2}
     2ac:	00000104 	andeq	r0, r0, r4, lsl #2
     2b0:	040f001f 	streq	r0, [pc], #-31	; 2b8 <mbed_interface_connected>
     2b4:	000002b8 			; <UNDEFINED> instruction: 0x000002b8
     2b8:	09300d12 	ldmdbeq	r0!, {r1, r4, r8, sl, fp}
     2bc:	07080000 	streq	r0, [r8, -r0]
     2c0:	0002de73 	andeq	sp, r2, r3, ror lr
     2c4:	07d70a00 	ldrbeq	r0, [r7, r0, lsl #20]
     2c8:	74070000 	strvc	r0, [r7], #-0
     2cc:	000002de 	ldrdeq	r0, [r0], -lr
     2d0:	00b90a00 	adcseq	r0, r9, r0, lsl #20
     2d4:	75070000 	strvc	r0, [r7, #-0]
     2d8:	00000039 	andeq	r0, r0, r9, lsr r0
     2dc:	040f0004 	streq	r0, [pc], #-4	; 2e4 <mbed_die+0x1c>
     2e0:	00000047 	andeq	r0, r0, r7, asr #32
     2e4:	0004710d 	andeq	r7, r4, sp, lsl #2
     2e8:	b3076800 	movwlt	r6, #30720	; 0x7800
     2ec:	0000040e 	andeq	r0, r0, lr, lsl #8
     2f0:	00705f0e 	rsbseq	r5, r0, lr, lsl #30
     2f4:	02deb407 	sbcseq	fp, lr, #117440512	; 0x7000000
     2f8:	0e000000 	cdpeq	0, 0, cr0, cr0, cr0, {0}
     2fc:	0700725f 	smlsdeq	r0, pc, r2, r7	; <UNPREDICTABLE>
     300:	000039b5 			; <UNDEFINED> instruction: 0x000039b5
     304:	5f0e0400 	svcpl	0x000e0400
     308:	b6070077 			; <UNDEFINED> instruction: 0xb6070077
     30c:	00000039 	andeq	r0, r0, r9, lsr r0
     310:	065e0a08 	ldrbeq	r0, [lr], -r8, lsl #20
     314:	b7070000 	strlt	r0, [r7, -r0]
     318:	0000004e 	andeq	r0, r0, lr, asr #32
     31c:	010b0a0c 	tsteq	fp, ip, lsl #20
     320:	b8070000 	stmdalt	r7, {}	; <UNPREDICTABLE>
     324:	0000004e 	andeq	r0, r0, lr, asr #32
     328:	625f0e0e 	subsvs	r0, pc, #14, 28	; 0xe0
     32c:	b9070066 	stmdblt	r7, {r1, r2, r5, r6}
     330:	000002b9 			; <UNDEFINED> instruction: 0x000002b9
     334:	09100a10 	ldmdbeq	r0, {r4, r9, fp}
     338:	ba070000 	blt	1c0340 <_etext+0x1bb584>
     33c:	00000039 	andeq	r0, r0, r9, lsr r0
     340:	041e0a18 	ldreq	r0, [lr], #-2584	; 0xa18
     344:	c1070000 	mrsgt	r0, (UNDEF: 7)
     348:	00000037 	andeq	r0, r0, r7, lsr r0
     34c:	00450a1c 	subeq	r0, r5, ip, lsl sl
     350:	c3070000 	movwgt	r0, #28672	; 0x7000
     354:	000006b8 			; <UNDEFINED> instruction: 0x000006b8
     358:	004b0a20 	subeq	r0, fp, r0, lsr #20
     35c:	c5070000 	strgt	r0, [r7, #-0]
     360:	000006e7 	andeq	r0, r0, r7, ror #13
     364:	06d10a24 	ldrbeq	r0, [r1], r4, lsr #20
     368:	c8070000 	stmdagt	r7, {}	; <UNPREDICTABLE>
     36c:	0000070b 	andeq	r0, r0, fp, lsl #14
     370:	03720a28 	cmneq	r2, #40, 20	; 0x28000
     374:	c9070000 	stmdbgt	r7, {}	; <UNPREDICTABLE>
     378:	00000725 	andeq	r0, r0, r5, lsr #14
     37c:	755f0e2c 	ldrbvc	r0, [pc, #-3628]	; fffff558 <__StackTop+0xefff7558>
     380:	cc070062 	stcgt	0, cr0, [r7], {98}	; 0x62
     384:	000002b9 			; <UNDEFINED> instruction: 0x000002b9
     388:	755f0e30 	ldrbvc	r0, [pc, #-3632]	; fffff560 <__StackTop+0xefff7560>
     38c:	cd070070 	stcgt	0, cr0, [r7, #-448]	; 0xfffffe40
     390:	000002de 	ldrdeq	r0, [r0], -lr
     394:	755f0e38 	ldrbvc	r0, [pc, #-3640]	; fffff564 <__StackTop+0xefff7564>
     398:	ce070072 	mcrgt	0, 0, r0, cr7, cr2, {3}
     39c:	00000039 	andeq	r0, r0, r9, lsr r0
     3a0:	06270a3c 			; <UNDEFINED> instruction: 0x06270a3c
     3a4:	d1070000 	mrsle	r0, (UNDEF: 7)
     3a8:	0000072b 	andeq	r0, r0, fp, lsr #14
     3ac:	00940a40 	addseq	r0, r4, r0, asr #20
     3b0:	d2070000 	andle	r0, r7, #0
     3b4:	0000073b 	andeq	r0, r0, fp, lsr r7
     3b8:	6c5f0e43 	mrrcvs	14, 4, r0, pc, cr3	; <UNPREDICTABLE>
     3bc:	d5070062 	strle	r0, [r7, #-98]	; 0x62
     3c0:	000002b9 			; <UNDEFINED> instruction: 0x000002b9
     3c4:	07ce0a44 	strbeq	r0, [lr, r4, asr #20]
     3c8:	d8070000 	stmdale	r7, {}	; <UNPREDICTABLE>
     3cc:	00000039 	andeq	r0, r0, r9, lsr r0
     3d0:	04350a4c 	ldrteq	r0, [r5], #-2636	; 0xa4c
     3d4:	d9070000 	stmdble	r7, {}	; <UNPREDICTABLE>
     3d8:	0000008e 	andeq	r0, r0, lr, lsl #1
     3dc:	08920a50 	ldmeq	r2, {r4, r6, r9, fp}
     3e0:	dc070000 	stcle	0, cr0, [r7], {-0}
     3e4:	0000042c 	andeq	r0, r0, ip, lsr #8
     3e8:	00bf0a54 	adcseq	r0, pc, r4, asr sl	; <UNPREDICTABLE>
     3ec:	e0070000 	and	r0, r7, r0
     3f0:	00000116 	andeq	r0, r0, r6, lsl r1
     3f4:	06430a58 			; <UNDEFINED> instruction: 0x06430a58
     3f8:	e2070000 	and	r0, r7, #0
     3fc:	0000010b 	andeq	r0, r0, fp, lsl #2
     400:	04840a5c 	streq	r0, [r4], #2652	; 0xa5c
     404:	e3070000 	movw	r0, #28672	; 0x7000
     408:	00000039 	andeq	r0, r0, r9, lsr r0
     40c:	39130064 	ldmdbcc	r3, {r2, r5, r6}
     410:	2c000000 	stccs	0, cr0, [r0], {-0}
     414:	14000004 	strne	r0, [r0], #-4
     418:	0000042c 	andeq	r0, r0, ip, lsr #8
     41c:	00003714 	andeq	r3, r0, r4, lsl r7
     420:	06ab1400 	strteq	r1, [fp], r0, lsl #8
     424:	39140000 	ldmdbcc	r4, {}	; <UNPREDICTABLE>
     428:	00000000 	andeq	r0, r0, r0
     42c:	0432040f 	ldrteq	r0, [r2], #-1039	; 0x40f
     430:	13150000 	tstne	r5, #0
     434:	28000003 	stmdacs	r0, {r0, r1}
     438:	02390704 	eorseq	r0, r9, #4, 14	; 0x100000
     43c:	000006ab 	andeq	r0, r0, fp, lsr #13
     440:	5707f016 	smuadpl	r7, r6, r0
     444:	00058702 	andeq	r8, r5, r2, lsl #14
     448:	07d01700 	ldrbeq	r1, [r0, r0, lsl #14]
     44c:	054a0259 	strbeq	r0, [sl, #-601]	; 0x259
     450:	dc180000 	ldcle	0, cr0, [r8], {-0}
     454:	07000001 	streq	r0, [r0, -r1]
     458:	0030025a 	eorseq	r0, r0, sl, asr r2
     45c:	18000000 	stmdane	r0, {}	; <UNPREDICTABLE>
     460:	000007dd 	ldrdeq	r0, [r0], -sp
     464:	ab025b07 	blge	97088 <_etext+0x922cc>
     468:	04000006 	streq	r0, [r0], #-6
     46c:	00005818 	andeq	r5, r0, r8, lsl r8
     470:	025c0700 	subseq	r0, ip, #0, 14
     474:	000007dd 	ldrdeq	r0, [r0], -sp
     478:	01671808 	cmneq	r7, r8, lsl #16
     47c:	5d070000 	stcpl	0, cr0, [r7, #-0]
     480:	00019502 	andeq	r9, r1, r2, lsl #10
     484:	61182400 	tstvs	r8, r0, lsl #8
     488:	07000005 	streq	r0, [r0, -r5]
     48c:	0039025e 	eorseq	r0, r9, lr, asr r2
     490:	18480000 	stmdane	r8, {}^	; <UNPREDICTABLE>
     494:	00000653 	andeq	r0, r0, r3, asr r6
     498:	7c025f07 	stcvc	15, cr5, [r2], {7}
     49c:	50000000 	andpl	r0, r0, r0
     4a0:	00087a18 	andeq	r7, r8, r8, lsl sl
     4a4:	02600700 	rsbeq	r0, r0, #0, 14
     4a8:	00000798 	muleq	r0, r8, r7
     4ac:	08bf1858 	ldmeq	pc!, {r3, r4, r6, fp, ip}	; <UNPREDICTABLE>
     4b0:	61070000 	mrsvs	r0, (UNDEF: 7)
     4b4:	00010b02 	andeq	r0, r1, r2, lsl #22
     4b8:	fa186800 	blx	61a4c0 <_etext+0x615704>
     4bc:	07000006 	streq	r0, [r0, -r6]
     4c0:	010b0262 	tsteq	fp, r2, ror #4
     4c4:	18700000 	ldmdane	r0!, {}^	; <UNPREDICTABLE>
     4c8:	00000635 	andeq	r0, r0, r5, lsr r6
     4cc:	0b026307 	bleq	990f0 <_etext+0x94334>
     4d0:	78000001 	stmdavc	r0, {r0}
     4d4:	0000a318 	andeq	sl, r0, r8, lsl r3
     4d8:	02640700 	rsbeq	r0, r4, #0, 14
     4dc:	000007ed 	andeq	r0, r0, sp, ror #15
     4e0:	04b81880 	ldrteq	r1, [r8], #2176	; 0x880
     4e4:	65070000 	strvs	r0, [r7, #-0]
     4e8:	0007fd02 	andeq	pc, r7, r2, lsl #26
     4ec:	31188800 	tstcc	r8, r0, lsl #16
     4f0:	0700000b 	streq	r0, [r0, -fp]
     4f4:	00390266 	eorseq	r0, r9, r6, ror #4
     4f8:	18a00000 	stmiane	r0!, {}	; <UNPREDICTABLE>
     4fc:	00000142 	andeq	r0, r0, r2, asr #2
     500:	0b026707 	bleq	9a124 <_etext+0x95368>
     504:	a4000001 	strge	r0, [r0], #-1
     508:	00080818 	andeq	r0, r8, r8, lsl r8
     50c:	02680700 	rsbeq	r0, r8, #0, 14
     510:	0000010b 	andeq	r0, r0, fp, lsl #2
     514:	0abf18ac 	beq	fefc67cc <__StackTop+0xeefbe7cc>
     518:	69070000 	stmdbvs	r7, {}	; <UNPREDICTABLE>
     51c:	00010b02 	andeq	r0, r1, r2, lsl #22
     520:	0918b400 	ldmdbeq	r8, {sl, ip, sp, pc}
     524:	07000006 	streq	r0, [r0, -r6]
     528:	010b026a 	tsteq	fp, sl, ror #4
     52c:	18bc0000 	ldmne	ip!, {}	; <UNPREDICTABLE>
     530:	00000083 	andeq	r0, r0, r3, lsl #1
     534:	0b026b07 	bleq	9b158 <_etext+0x9639c>
     538:	c4000001 	strgt	r0, [r0], #-1
     53c:	0005e918 	andeq	lr, r5, r8, lsl r9
     540:	026c0700 	rsbeq	r0, ip, #0, 14
     544:	00000039 	andeq	r0, r0, r9, lsr r0
     548:	f01700cc 			; <UNDEFINED> instruction: 0xf01700cc
     54c:	6e027207 	cdpvs	2, 0, cr7, cr2, cr7, {0}
     550:	18000005 	stmdane	r0, {r0, r2}
     554:	0000093f 	andeq	r0, r0, pc, lsr r9
     558:	0d027407 	cfstrseq	mvf7, [r2, #-28]	; 0xffffffe4
     55c:	00000008 	andeq	r0, r0, r8
     560:	00055818 	andeq	r5, r5, r8, lsl r8
     564:	02750700 	rsbseq	r0, r5, #0, 14
     568:	0000081d 	andeq	r0, r0, sp, lsl r8
     56c:	13190078 	tstne	r9, #120	; 0x78
     570:	07000003 	streq	r0, [r0, -r3]
     574:	0449026d 	strbeq	r0, [r9], #-621	; 0x26d
     578:	76190000 	ldrvc	r0, [r9], -r0
     57c:	07000000 	streq	r0, [r0, -r0]
     580:	054a0276 	strbeq	r0, [sl, #-630]	; 0x276
     584:	18000000 	stmdane	r0, {}	; <UNPREDICTABLE>
     588:	000005eb 	andeq	r0, r0, fp, ror #11
     58c:	39023b07 	stmdbcc	r2, {r0, r1, r2, r8, r9, fp, ip, sp}
     590:	00000000 	andeq	r0, r0, r0
     594:	0003b718 	andeq	fp, r3, r8, lsl r7
     598:	02400700 	subeq	r0, r0, #0, 14
     59c:	00000792 	muleq	r0, r2, r7
     5a0:	078a1804 	streq	r1, [sl, r4, lsl #16]
     5a4:	40070000 	andmi	r0, r7, r0
     5a8:	00079202 	andeq	r9, r7, r2, lsl #4
     5ac:	2d180800 	ldccs	8, cr0, [r8, #-0]
     5b0:	07000006 	streq	r0, [r0, -r6]
     5b4:	07920240 	ldreq	r0, [r2, r0, asr #4]
     5b8:	180c0000 	stmdane	ip, {}	; <UNPREDICTABLE>
     5bc:	00000919 	andeq	r0, r0, r9, lsl r9
     5c0:	39024207 	stmdbcc	r2, {r0, r1, r2, r9, lr}
     5c4:	10000000 	andne	r0, r0, r0
     5c8:	00053018 	andeq	r3, r5, r8, lsl r0
     5cc:	02430700 	subeq	r0, r3, #0, 14
     5d0:	0000082d 	andeq	r0, r0, sp, lsr #16
     5d4:	01971814 	orrseq	r1, r7, r4, lsl r8
     5d8:	45070000 	strmi	r0, [r7, #-0]
     5dc:	00003902 	andeq	r3, r0, r2, lsl #18
     5e0:	77183000 	ldrvc	r3, [r8, -r0]
     5e4:	07000005 	streq	r0, [r0, -r5]
     5e8:	06dc0246 	ldrbeq	r0, [ip], r6, asr #4
     5ec:	18340000 	ldmdane	r4!, {}	; <UNPREDICTABLE>
     5f0:	00000479 	andeq	r0, r0, r9, ror r4
     5f4:	39024807 	stmdbcc	r2, {r0, r1, r2, fp, lr}
     5f8:	38000000 	stmdacc	r0, {}	; <UNPREDICTABLE>
     5fc:	0004dc18 	andeq	sp, r4, r8, lsl ip
     600:	024a0700 	subeq	r0, sl, #0, 14
     604:	00000848 	andeq	r0, r0, r8, asr #16
     608:	09a4183c 	stmibeq	r4!, {r2, r3, r4, r5, fp, ip}
     60c:	4d070000 	stcmi	0, cr0, [r7, #-0]
     610:	00017f02 	andeq	r7, r1, r2, lsl #30
     614:	50184000 	andspl	r4, r8, r0
     618:	07000001 	streq	r0, [r0, -r1]
     61c:	0039024e 	eorseq	r0, r9, lr, asr #4
     620:	18440000 	stmdane	r4, {}^	; <UNPREDICTABLE>
     624:	0000045d 	andeq	r0, r0, sp, asr r4
     628:	7f024f07 	svcvc	0x00024f07
     62c:	48000001 	stmdami	r0, {r0}
     630:	00058718 	andeq	r8, r5, r8, lsl r7
     634:	02500700 	subseq	r0, r0, #0, 14
     638:	0000084e 	andeq	r0, r0, lr, asr #16
     63c:	0065184c 	rsbeq	r1, r5, ip, asr #16
     640:	53070000 	movwpl	r0, #28672	; 0x7000
     644:	00003902 	andeq	r3, r0, r2, lsl #18
     648:	3d185000 	ldccc	0, cr5, [r8, #-0]
     64c:	07000004 	streq	r0, [r0, -r4]
     650:	06ab0254 	ssateq	r0, #12, r4, asr #4
     654:	18540000 	ldmdane	r4, {}^	; <UNPREDICTABLE>
     658:	00000622 	andeq	r0, r0, r2, lsr #12
     65c:	40027707 	andmi	r7, r2, r7, lsl #14
     660:	58000004 	stmdapl	r0, {r2}
     664:	0004081a 	andeq	r0, r4, sl, lsl r8
     668:	027b0700 	rsbseq	r0, fp, #0, 14
     66c:	0000029c 	muleq	r0, ip, r2
     670:	e61a0148 	ldr	r0, [sl], -r8, asr #2
     674:	07000004 	streq	r0, [r0, -r4]
     678:	025e027c 	subseq	r0, lr, #124, 4	; 0xc0000007
     67c:	014c0000 	mrseq	r0, (UNDEF: 76)
     680:	00042b1a 	andeq	r2, r4, sl, lsl fp
     684:	02800700 	addeq	r0, r0, #0, 14
     688:	0000085f 	andeq	r0, r0, pc, asr r8
     68c:	501a02dc 			; <UNDEFINED> instruction: 0x501a02dc
     690:	07000005 	streq	r0, [r0, -r5]
     694:	07570285 	ldrbeq	r0, [r7, -r5, lsl #5]
     698:	02e00000 	rsceq	r0, r0, #0
     69c:	0000231a 	andeq	r2, r0, sl, lsl r3
     6a0:	02860700 	addeq	r0, r6, #0, 14
     6a4:	0000086b 	andeq	r0, r0, fp, ror #16
     6a8:	0f0002ec 	svceq	0x000002ec
     6ac:	0006b104 	andeq	fp, r6, r4, lsl #2
     6b0:	08010300 	stmdaeq	r1, {r8, r9}
     6b4:	00000282 	andeq	r0, r0, r2, lsl #5
     6b8:	040e040f 	streq	r0, [lr], #-1039	; 0x40f
     6bc:	39130000 	ldmdbcc	r3, {}	; <UNPREDICTABLE>
     6c0:	dc000000 	stcle	0, cr0, [r0], {-0}
     6c4:	14000006 	strne	r0, [r0], #-6
     6c8:	0000042c 	andeq	r0, r0, ip, lsr #8
     6cc:	00003714 	andeq	r3, r0, r4, lsl r7
     6d0:	06dc1400 	ldrbeq	r1, [ip], r0, lsl #8
     6d4:	39140000 	ldmdbcc	r4, {}	; <UNPREDICTABLE>
     6d8:	00000000 	andeq	r0, r0, r0
     6dc:	06e2040f 	strbteq	r0, [r2], pc, lsl #8
     6e0:	b11b0000 	tstlt	fp, r0
     6e4:	0f000006 	svceq	0x00000006
     6e8:	0006be04 	andeq	fp, r6, r4, lsl #28
     6ec:	00991300 	addseq	r1, r9, r0, lsl #6
     6f0:	070b0000 	streq	r0, [fp, -r0]
     6f4:	2c140000 	ldccs	0, cr0, [r4], {-0}
     6f8:	14000004 	strne	r0, [r0], #-4
     6fc:	00000037 	andeq	r0, r0, r7, lsr r0
     700:	00009914 	andeq	r9, r0, r4, lsl r9
     704:	00391400 	eorseq	r1, r9, r0, lsl #8
     708:	0f000000 	svceq	0x00000000
     70c:	0006ed04 	andeq	lr, r6, r4, lsl #26
     710:	00391300 	eorseq	r1, r9, r0, lsl #6
     714:	07250000 	streq	r0, [r5, -r0]!
     718:	2c140000 	ldccs	0, cr0, [r4], {-0}
     71c:	14000004 	strne	r0, [r0], #-4
     720:	00000037 	andeq	r0, r0, r7, lsr r0
     724:	11040f00 	tstne	r4, r0, lsl #30
     728:	0b000007 	bleq	74c <_malloc_r+0x78>
     72c:	00000047 	andeq	r0, r0, r7, asr #32
     730:	0000073b 	andeq	r0, r0, fp, lsr r7
     734:	0001040c 	andeq	r0, r1, ip, lsl #8
     738:	0b000200 	bleq	f40 <_printf_float+0x264>
     73c:	00000047 	andeq	r0, r0, r7, asr #32
     740:	0000074b 	andeq	r0, r0, fp, asr #14
     744:	0001040c 	andeq	r0, r1, ip, lsl #8
     748:	06000000 	streq	r0, [r0], -r0
     74c:	00000843 	andeq	r0, r0, r3, asr #16
     750:	e4011d07 	str	r1, [r1], #-3335	; 0xd07
     754:	1c000002 	stcne	0, cr0, [r0], {2}
     758:	00000597 	muleq	r0, r7, r5
     75c:	0121070c 	teqeq	r1, ip, lsl #14
     760:	0000078c 	andeq	r0, r0, ip, lsl #15
     764:	00065818 	andeq	r5, r6, r8, lsl r8
     768:	01230700 	teqeq	r3, r0, lsl #14
     76c:	0000078c 	andeq	r0, r0, ip, lsl #15
     770:	05491800 	strbeq	r1, [r9, #-2048]	; 0x800
     774:	24070000 	strcs	r0, [r7], #-0
     778:	00003901 	andeq	r3, r0, r1, lsl #18
     77c:	91180400 	tstls	r8, r0, lsl #8
     780:	07000005 	streq	r0, [r0, -r5]
     784:	07920125 	ldreq	r0, [r2, r5, lsr #2]
     788:	00080000 	andeq	r0, r8, r0
     78c:	0757040f 	ldrbeq	r0, [r7, -pc, lsl #8]
     790:	040f0000 	streq	r0, [pc], #-0	; 798 <_sbrk_r+0x1c>
     794:	0000074b 	andeq	r0, r0, fp, asr #14
     798:	0007821c 	andeq	r8, r7, ip, lsl r2
     79c:	3d070e00 	stccc	14, cr0, [r7, #-0]
     7a0:	0007cd01 	andeq	ip, r7, r1, lsl #26
     7a4:	06cb1800 	strbeq	r1, [fp], r0, lsl #16
     7a8:	3e070000 	cdpcc	0, 0, cr0, cr7, cr0, {0}
     7ac:	0007cd01 	andeq	ip, r7, r1, lsl #26
     7b0:	ca180000 	bgt	6007b8 <_etext+0x5fb9fc>
     7b4:	07000000 	streq	r0, [r0, -r0]
     7b8:	07cd013f 			; <UNDEFINED> instruction: 0x07cd013f
     7bc:	18060000 	stmdane	r6, {}	; <UNPREDICTABLE>
     7c0:	00000a97 	muleq	r0, r7, sl
     7c4:	55014007 	strpl	r4, [r1, #-7]
     7c8:	0c000000 	stceq	0, cr0, [r0], {-0}
     7cc:	00550b00 	subseq	r0, r5, r0, lsl #22
     7d0:	07dd0000 	ldrbeq	r0, [sp, r0]
     7d4:	040c0000 	streq	r0, [ip], #-0
     7d8:	02000001 	andeq	r0, r0, #1
     7dc:	06b10b00 	ldrteq	r0, [r1], r0, lsl #22
     7e0:	07ed0000 	strbeq	r0, [sp, r0]!
     7e4:	040c0000 	streq	r0, [ip], #-0
     7e8:	19000001 	stmdbne	r0, {r0}
     7ec:	06b10b00 	ldrteq	r0, [r1], r0, lsl #22
     7f0:	07fd0000 	ldrbeq	r0, [sp, r0]!
     7f4:	040c0000 	streq	r0, [ip], #-0
     7f8:	07000001 	streq	r0, [r0, -r1]
     7fc:	06b10b00 	ldrteq	r0, [r1], r0, lsl #22
     800:	080d0000 	stmdaeq	sp, {}	; <UNPREDICTABLE>
     804:	040c0000 	streq	r0, [ip], #-0
     808:	17000001 	strne	r0, [r0, -r1]
     80c:	02de0b00 	sbcseq	r0, lr, #0, 22
     810:	081d0000 	ldmdaeq	sp, {}	; <UNPREDICTABLE>
     814:	040c0000 	streq	r0, [ip], #-0
     818:	1d000001 	stcne	0, cr0, [r0, #-4]
     81c:	00300b00 	eorseq	r0, r0, r0, lsl #22
     820:	082d0000 	stmdaeq	sp!, {}	; <UNPREDICTABLE>
     824:	040c0000 	streq	r0, [ip], #-0
     828:	1d000001 	stcne	0, cr0, [r0, #-4]
     82c:	06b10b00 	ldrteq	r0, [r1], r0, lsl #22
     830:	083d0000 	ldmdaeq	sp!, {}	; <UNPREDICTABLE>
     834:	040c0000 	streq	r0, [ip], #-0
     838:	18000001 	stmdane	r0, {r0}
     83c:	08481d00 	stmdaeq	r8, {r8, sl, fp, ip}^
     840:	2c140000 	ldccs	0, cr0, [r4], {-0}
     844:	00000004 	andeq	r0, r0, r4
     848:	083d040f 	ldmdaeq	sp!, {r0, r1, r2, r3, sl}
     84c:	040f0000 	streq	r0, [pc], #-0	; 854 <_strtol_r+0x34>
     850:	0000017f 	andeq	r0, r0, pc, ror r1
     854:	00085f1d 	andeq	r5, r8, sp, lsl pc
     858:	00391400 	eorseq	r1, r9, r0, lsl #8
     85c:	0f000000 	svceq	0x00000000
     860:	00086504 	andeq	r6, r8, r4, lsl #10
     864:	54040f00 	strpl	r0, [r4], #-3840	; 0xf00
     868:	0b000008 	bleq	890 <_strtol_r+0x70>
     86c:	000002e4 	andeq	r0, r0, r4, ror #5
     870:	0000087b 	andeq	r0, r0, fp, ror r8
     874:	0001040c 	andeq	r0, r1, ip, lsl #8
     878:	02000200 	andeq	r0, r0, #0, 4
     87c:	00000845 	andeq	r0, r0, r5, asr #16
     880:	074b3308 	strbeq	r3, [fp, -r8, lsl #6]
     884:	d8020000 	stmdale	r2, {}	; <UNPREDICTABLE>
     888:	08000006 	stmdaeq	r0, {r1, r2}
     88c:	00009938 	andeq	r9, r0, r8, lsr r9
     890:	09080700 	stmdbeq	r8, {r8, r9, sl}
     894:	0003be1f 	andeq	fp, r3, pc, lsl lr
     898:	0008b600 	andeq	fp, r8, r0, lsl #12
     89c:	08380a00 	ldmdaeq	r8!, {r9, fp}
     8a0:	20090000 	andcs	r0, r9, r0
     8a4:	00000039 	andeq	r0, r0, r9, lsr r0
     8a8:	65720e00 	ldrbvs	r0, [r2, #-3584]!	; 0xe00
     8ac:	2109006d 	tstcs	r9, sp, rrx
     8b0:	00000039 	andeq	r0, r0, r9, lsr r0
     8b4:	bf020004 	svclt	0x00020004
     8b8:	09000003 	stmdbeq	r0, {r0, r1}
     8bc:	00089122 	andeq	r9, r8, r2, lsr #2
     8c0:	09080700 	stmdbeq	r8, {r8, r9, sl}
     8c4:	00049225 	andeq	r9, r4, r5, lsr #4
     8c8:	0008e600 	andeq	lr, r8, r0, lsl #12
     8cc:	08380a00 	ldmdaeq	r8!, {r9, fp}
     8d0:	26090000 	strcs	r0, [r9], -r0
     8d4:	00000067 	andeq	r0, r0, r7, rrx
     8d8:	65720e00 	ldrbvs	r0, [r2, #-3584]!	; 0xe00
     8dc:	2709006d 	strcs	r0, [r9, -sp, rrx]
     8e0:	00000067 	andeq	r0, r0, r7, rrx
     8e4:	93020004 	movwls	r0, #8196	; 0x2004
     8e8:	09000004 	stmdbeq	r0, {r2}
     8ec:	0008c128 	andeq	ip, r8, r8, lsr #2
     8f0:	05bb0200 	ldreq	r0, [fp, #512]!	; 0x200
     8f4:	36090000 	strcc	r0, [r9], -r0
     8f8:	000008fc 	strdeq	r0, [r0], -ip
     8fc:	0902040f 	stmdbeq	r2, {r0, r1, r2, r3, sl}
     900:	39130000 	ldmdbcc	r3, {}	; <UNPREDICTABLE>
     904:	16000000 	strne	r0, [r0], -r0
     908:	14000009 	strne	r0, [r0], #-9
     90c:	00000916 	andeq	r0, r0, r6, lsl r9
     910:	00091614 	andeq	r1, r9, r4, lsl r6
     914:	040f0000 	streq	r0, [pc], #-0	; 91c <_strtol_r+0xfc>
     918:	0000091c 	andeq	r0, r0, ip, lsl r9
     91c:	0408031e 	streq	r0, [r8], #-798	; 0x31e
     920:	000006ba 			; <UNDEFINED> instruction: 0x000006ba
     924:	b0040403 	andlt	r0, r4, r3, lsl #8
     928:	03000005 	movweq	r0, #5
     92c:	06b50408 	ldrteq	r0, [r5], r8, lsl #8
     930:	d2020000 	andle	r0, r2, #0
     934:	0a00000a 	beq	964 <__ssputs_r+0x40>
     938:	00005c41 	andeq	r5, r0, r1, asr #24
     93c:	02c31f00 	sbceq	r1, r3, #0, 30
     940:	10040000 	andne	r0, r4, r0
     944:	0010ca12 	andseq	ip, r0, r2, lsl sl
     948:	03852000 	orreq	r2, r5, #0
     94c:	80800000 	addhi	r0, r0, r0
     950:	200280a7 	andcs	r8, r2, r7, lsr #1
     954:	0000038a 	andeq	r0, r0, sl, lsl #7
     958:	80a78081 	adchi	r8, r7, r1, lsl #1
     95c:	038f2002 	orreq	r2, pc, #2
     960:	80820000 	addhi	r0, r2, r0
     964:	200280a7 	andcs	r8, r2, r7, lsr #1
     968:	00000394 	muleq	r0, r4, r3
     96c:	80a78083 	adchi	r8, r7, r3, lsl #1
     970:	03992002 	orrseq	r2, r9, #2
     974:	80840000 	addhi	r0, r4, r0
     978:	200280a7 	andcs	r8, r2, r7, lsr #1
     97c:	0000039e 	muleq	r0, lr, r3
     980:	80a78085 	adchi	r8, r7, r5, lsl #1
     984:	03a32002 			; <UNDEFINED> instruction: 0x03a32002
     988:	80860000 	addhi	r0, r6, r0
     98c:	200280a7 	andcs	r8, r2, r7, lsr #1
     990:	000003a8 	andeq	r0, r0, r8, lsr #7
     994:	80a78087 	adchi	r8, r7, r7, lsl #1
     998:	03ad2002 			; <UNDEFINED> instruction: 0x03ad2002
     99c:	80880000 	addhi	r0, r8, r0
     9a0:	200280a7 	andcs	r8, r2, r7, lsr #1
     9a4:	000003b2 			; <UNDEFINED> instruction: 0x000003b2
     9a8:	80a78089 	adchi	r8, r7, r9, lsl #1
     9ac:	018b2002 	orreq	r2, fp, r2
     9b0:	808a0000 	addhi	r0, sl, r0
     9b4:	200280a7 	andcs	r8, r2, r7, lsr #1
     9b8:	00000191 	muleq	r0, r1, r1
     9bc:	80a7808b 	adchi	r8, r7, fp, lsl #1
     9c0:	092a2002 	stmdbeq	sl!, {r1, sp}
     9c4:	808c0000 	addhi	r0, ip, r0
     9c8:	200280a7 	andcs	r8, r2, r7, lsr #1
     9cc:	000001a9 	andeq	r0, r0, r9, lsr #3
     9d0:	80a7808d 	adchi	r8, r7, sp, lsl #1
     9d4:	01af2002 			; <UNDEFINED> instruction: 0x01af2002
     9d8:	808e0000 	addhi	r0, lr, r0
     9dc:	200280a7 	andcs	r8, r2, r7, lsr #1
     9e0:	000001b5 			; <UNDEFINED> instruction: 0x000001b5
     9e4:	80a7808f 	adchi	r8, r7, pc, lsl #1
     9e8:	01bb2002 			; <UNDEFINED> instruction: 0x01bb2002
     9ec:	80900000 	addshi	r0, r0, r0
     9f0:	200280a7 	andcs	r8, r2, r7, lsr #1
     9f4:	000001c1 	andeq	r0, r0, r1, asr #3
     9f8:	80a78091 	umlalhi	r8, r7, r1, r0
     9fc:	01c72002 	biceq	r2, r7, r2
     a00:	80920000 	addshi	r0, r2, r0
     a04:	200280a7 	andcs	r8, r2, r7, lsr #1
     a08:	000001cd 	andeq	r0, r0, sp, asr #3
     a0c:	80a78093 	umlalhi	r8, r7, r3, r0
     a10:	02872002 	addeq	r2, r7, #2
     a14:	80940000 	addshi	r0, r4, r0
     a18:	200280a7 	andcs	r8, r2, r7, lsr #1
     a1c:	0000028d 	andeq	r0, r0, sp, lsl #5
     a20:	80a78095 	umlalhi	r8, r7, r5, r0
     a24:	02932002 	addseq	r2, r3, #2
     a28:	80960000 	addshi	r0, r6, r0
     a2c:	200280a7 	andcs	r8, r2, r7, lsr #1
     a30:	00000299 	muleq	r0, r9, r2
     a34:	80a78097 	umlalhi	r8, r7, r7, r0
     a38:	029f2002 	addseq	r2, pc, #2
     a3c:	80980000 	addshi	r0, r8, r0
     a40:	200280a7 	andcs	r8, r2, r7, lsr #1
     a44:	000002a5 	andeq	r0, r0, r5, lsr #5
     a48:	80a78099 	umlalhi	r8, r7, r9, r0
     a4c:	02ab2002 	adceq	r2, fp, #2
     a50:	809a0000 	addshi	r0, sl, r0
     a54:	200280a7 	andcs	r8, r2, r7, lsr #1
     a58:	000002b1 			; <UNDEFINED> instruction: 0x000002b1
     a5c:	80a7809b 	umlalhi	r8, r7, fp, r0
     a60:	02b72002 	adcseq	r2, r7, #2
     a64:	809c0000 	addshi	r0, ip, r0
     a68:	200280a7 	andcs	r8, r2, r7, lsr #1
     a6c:	000002bd 			; <UNDEFINED> instruction: 0x000002bd
     a70:	80a7809d 	umlalhi	r8, r7, sp, r0
     a74:	03562002 	cmpeq	r6, #2
     a78:	809e0000 	addshi	r0, lr, r0
     a7c:	200280a7 	andcs	r8, r2, r7, lsr #1
     a80:	0000035c 	andeq	r0, r0, ip, asr r3
     a84:	80a7809f 	umlalhi	r8, r7, pc, r0	; <UNPREDICTABLE>
     a88:	04fe2002 	ldrbteq	r2, [lr], #2
     a8c:	80a00000 	adchi	r0, r0, r0
     a90:	200280a7 	andcs	r8, r2, r7, lsr #1
     a94:	00000503 	andeq	r0, r0, r3, lsl #10
     a98:	80a780a1 	adchi	r8, r7, r1, lsr #1
     a9c:	05082002 	streq	r2, [r8, #-2]
     aa0:	80a20000 	adchi	r0, r2, r0
     aa4:	200280a7 	andcs	r8, r2, r7, lsr #1
     aa8:	0000050d 	andeq	r0, r0, sp, lsl #10
     aac:	80a780a3 	adchi	r8, r7, r3, lsr #1
     ab0:	05122002 	ldreq	r2, [r2, #-2]
     ab4:	80a40000 	adchi	r0, r4, r0
     ab8:	200280a7 	andcs	r8, r2, r7, lsr #1
     abc:	00000517 	andeq	r0, r0, r7, lsl r5
     ac0:	80a780a5 	adchi	r8, r7, r5, lsr #1
     ac4:	051c2002 	ldreq	r2, [ip, #-2]
     ac8:	80a60000 	adchi	r0, r6, r0
     acc:	200280a7 	andcs	r8, r2, r7, lsr #1
     ad0:	00000521 	andeq	r0, r0, r1, lsr #10
     ad4:	80a780a7 	adchi	r8, r7, r7, lsr #1
     ad8:	05262002 	streq	r2, [r6, #-2]!
     adc:	80a80000 	adchi	r0, r8, r0
     ae0:	200280a7 	andcs	r8, r2, r7, lsr #1
     ae4:	0000052b 	andeq	r0, r0, fp, lsr #10
     ae8:	80a780a9 	adchi	r8, r7, r9, lsr #1
     aec:	074c2002 	strbeq	r2, [ip, -r2]
     af0:	80aa0000 	adchi	r0, sl, r0
     af4:	200280a7 	andcs	r8, r2, r7, lsr #1
     af8:	00000752 	andeq	r0, r0, r2, asr r7
     afc:	80a780ab 	adchi	r8, r7, fp, lsr #1
     b00:	07582002 	ldrbeq	r2, [r8, -r2]
     b04:	80ac0000 	adchi	r0, ip, r0
     b08:	200280a7 	andcs	r8, r2, r7, lsr #1
     b0c:	0000075e 	andeq	r0, r0, lr, asr r7
     b10:	80a780ad 	adchi	r8, r7, sp, lsr #1
     b14:	00522002 	subseq	r2, r2, r2
     b18:	80ae0000 	adchi	r0, lr, r0
     b1c:	200280a7 	andcs	r8, r2, r7, lsr #1
     b20:	00000764 	andeq	r0, r0, r4, ror #14
     b24:	80a780af 	adchi	r8, r7, pc, lsr #1
     b28:	076a2002 	strbeq	r2, [sl, -r2]!
     b2c:	80b00000 	adcshi	r0, r0, r0
     b30:	200280a7 	andcs	r8, r2, r7, lsr #1
     b34:	00000770 	andeq	r0, r0, r0, ror r7
     b38:	80a780b1 	strhhi	r8, [r7], r1	; <UNPREDICTABLE>
     b3c:	07762002 	ldrbeq	r2, [r6, -r2]!
     b40:	80b20000 	adcshi	r0, r2, r0
     b44:	200280a7 	andcs	r8, r2, r7, lsr #1
     b48:	0000077c 	andeq	r0, r0, ip, ror r7
     b4c:	80a780b3 	strhhi	r8, [r7], r3	; <UNPREDICTABLE>
     b50:	07ea2002 	strbeq	r2, [sl, r2]!
     b54:	80b40000 	adcshi	r0, r4, r0
     b58:	200280a7 	andcs	r8, r2, r7, lsr #1
     b5c:	000007f0 	strdeq	r0, [r0], -r0	; <UNPREDICTABLE>
     b60:	80a780b5 	strhhi	r8, [r7], r5	; <UNPREDICTABLE>
     b64:	07f62002 	ldrbeq	r2, [r6, r2]!
     b68:	80b60000 	adcshi	r0, r6, r0
     b6c:	200280a7 	andcs	r8, r2, r7, lsr #1
     b70:	000007fc 	strdeq	r0, [r0], -ip
     b74:	80a780b7 	strhhi	r8, [r7], r7	; <UNPREDICTABLE>
     b78:	08022002 	stmdaeq	r2, {r1, sp}
     b7c:	80b80000 	adcshi	r0, r8, r0
     b80:	200280a7 	andcs	r8, r2, r7, lsr #1
     b84:	000000ee 	andeq	r0, r0, lr, ror #1
     b88:	80a780b9 	strhhi	r8, [r7], r9	; <UNPREDICTABLE>
     b8c:	08172002 	ldmdaeq	r7, {r1, sp}
     b90:	80ba0000 	adcshi	r0, sl, r0
     b94:	200280a7 	andcs	r8, r2, r7, lsr #1
     b98:	0000081d 	andeq	r0, r0, sp, lsl r8
     b9c:	80a780bb 	strhhi	r8, [r7], fp	; <UNPREDICTABLE>
     ba0:	08232002 	stmdaeq	r3!, {r1, sp}
     ba4:	80bc0000 	adcshi	r0, ip, r0
     ba8:	200280a7 	andcs	r8, r2, r7, lsr #1
     bac:	00000829 	andeq	r0, r0, r9, lsr #16
     bb0:	80a780bd 	strhhi	r8, [r7], sp	; <UNPREDICTABLE>
     bb4:	08862002 	stmeq	r6, {r1, sp}
     bb8:	80be0000 	adcshi	r0, lr, r0
     bbc:	200280a7 	andcs	r8, r2, r7, lsr #1
     bc0:	0000088c 	andeq	r0, r0, ip, lsl #17
     bc4:	80a780bf 	strhhi	r8, [r7], pc	; <UNPREDICTABLE>
     bc8:	07082002 	streq	r2, [r8, -r2]
     bcc:	80c00000 	sbchi	r0, r0, r0
     bd0:	200280a7 	andcs	r8, r2, r7, lsr #1
     bd4:	0000070d 	andeq	r0, r0, sp, lsl #14
     bd8:	80a780c1 	adchi	r8, r7, r1, asr #1
     bdc:	07122002 	ldreq	r2, [r2, -r2]
     be0:	80c20000 	sbchi	r0, r2, r0
     be4:	200280a7 	andcs	r8, r2, r7, lsr #1
     be8:	00000717 	andeq	r0, r0, r7, lsl r7
     bec:	80a780c3 	adchi	r8, r7, r3, asr #1
     bf0:	071c2002 	ldreq	r2, [ip, -r2]
     bf4:	80c40000 	sbchi	r0, r4, r0
     bf8:	200280a7 	andcs	r8, r2, r7, lsr #1
     bfc:	00000721 	andeq	r0, r0, r1, lsr #14
     c00:	80a780c5 	adchi	r8, r7, r5, asr #1
     c04:	07262002 	streq	r2, [r6, -r2]!
     c08:	80c60000 	sbchi	r0, r6, r0
     c0c:	200280a7 	andcs	r8, r2, r7, lsr #1
     c10:	00000674 	andeq	r0, r0, r4, ror r6
     c14:	80a780c7 	adchi	r8, r7, r7, asr #1
     c18:	07422002 	strbeq	r2, [r2, -r2]
     c1c:	80c80000 	sbchi	r0, r8, r0
     c20:	200280a7 	andcs	r8, r2, r7, lsr #1
     c24:	00000747 	andeq	r0, r0, r7, asr #14
     c28:	80a780c9 	adchi	r8, r7, r9, asr #1
     c2c:	01e92002 	mvneq	r2, r2
     c30:	80ca0000 	sbchi	r0, sl, r0
     c34:	200280a7 	andcs	r8, r2, r7, lsr #1
     c38:	000001ef 	andeq	r0, r0, pc, ror #3
     c3c:	80a780cb 	adchi	r8, r7, fp, asr #1
     c40:	01f52002 	mvnseq	r2, r2
     c44:	80cc0000 	sbchi	r0, ip, r0
     c48:	200280a7 	andcs	r8, r2, r7, lsr #1
     c4c:	000001fb 	strdeq	r0, [r0], -fp
     c50:	80a780cd 	adchi	r8, r7, sp, asr #1
     c54:	02012002 	andeq	r2, r1, #2
     c58:	80ce0000 	sbchi	r0, lr, r0
     c5c:	200280a7 	andcs	r8, r2, r7, lsr #1
     c60:	00000207 	andeq	r0, r0, r7, lsl #4
     c64:	80a780cf 	adchi	r8, r7, pc, asr #1
     c68:	020d2002 	andeq	r2, sp, #2
     c6c:	80d00000 	sbcshi	r0, r0, r0
     c70:	200280a7 	andcs	r8, r2, r7, lsr #1
     c74:	00000213 	andeq	r0, r0, r3, lsl r2
     c78:	80a780d1 	ldrdhi	r8, [r7], r1	; <UNPREDICTABLE>
     c7c:	02192002 	andseq	r2, r9, #2
     c80:	80d20000 	sbcshi	r0, r2, r0
     c84:	200280a7 	andcs	r8, r2, r7, lsr #1
     c88:	0000021f 	andeq	r0, r0, pc, lsl r2
     c8c:	80a780d3 	ldrdhi	r8, [r7], r3	; <UNPREDICTABLE>
     c90:	02d72002 	sbcseq	r2, r7, #2
     c94:	80d40000 	sbcshi	r0, r4, r0
     c98:	200280a7 	andcs	r8, r2, r7, lsr #1
     c9c:	000002dd 	ldrdeq	r0, [r0], -sp
     ca0:	80a780d5 	ldrdhi	r8, [r7], r5	; <UNPREDICTABLE>
     ca4:	02e32002 	rsceq	r2, r3, #2
     ca8:	80d60000 	sbcshi	r0, r6, r0
     cac:	200280a7 	andcs	r8, r2, r7, lsr #1
     cb0:	000002e9 	andeq	r0, r0, r9, ror #5
     cb4:	80a780d7 	ldrdhi	r8, [r7], r7	; <UNPREDICTABLE>
     cb8:	02ef2002 	rsceq	r2, pc, #2
     cbc:	80d80000 	sbcshi	r0, r8, r0
     cc0:	200280a7 	andcs	r8, r2, r7, lsr #1
     cc4:	000002f5 	strdeq	r0, [r0], -r5
     cc8:	80a780d9 	ldrdhi	r8, [r7], r9	; <UNPREDICTABLE>
     ccc:	02fb2002 	rscseq	r2, fp, #2
     cd0:	80da0000 	sbcshi	r0, sl, r0
     cd4:	200280a7 	andcs	r8, r2, r7, lsr #1
     cd8:	00000301 	andeq	r0, r0, r1, lsl #6
     cdc:	80a780db 	ldrdhi	r8, [r7], fp	; <UNPREDICTABLE>
     ce0:	03072002 	movweq	r2, #28674	; 0x7002
     ce4:	80dc0000 	sbcshi	r0, ip, r0
     ce8:	200280a7 	andcs	r8, r2, r7, lsr #1
     cec:	0000030d 	andeq	r0, r0, sp, lsl #6
     cf0:	80a780dd 	ldrdhi	r8, [r7], sp	; <UNPREDICTABLE>
     cf4:	03cb2002 	biceq	r2, fp, #2
     cf8:	80de0000 	sbcshi	r0, lr, r0
     cfc:	200280a7 	andcs	r8, r2, r7, lsr #1
     d00:	00000367 	andeq	r0, r0, r7, ror #6
     d04:	80a780df 	ldrdhi	r8, [r7], pc	; <UNPREDICTABLE>
     d08:	09622002 	stmdbeq	r2!, {r1, sp}^
     d0c:	80e00000 	rschi	r0, r0, r0
     d10:	200280a7 	andcs	r8, r2, r7, lsr #1
     d14:	00000967 	andeq	r0, r0, r7, ror #18
     d18:	80a780e1 	adchi	r8, r7, r1, ror #1
     d1c:	096c2002 	stmdbeq	ip!, {r1, sp}^
     d20:	80e20000 	rschi	r0, r2, r0
     d24:	200280a7 	andcs	r8, r2, r7, lsr #1
     d28:	00000971 	andeq	r0, r0, r1, ror r9
     d2c:	80a780e3 	adchi	r8, r7, r3, ror #1
     d30:	09762002 	ldmdbeq	r6!, {r1, sp}^
     d34:	80e40000 	rschi	r0, r4, r0
     d38:	200280a7 	andcs	r8, r2, r7, lsr #1
     d3c:	0000097b 	andeq	r0, r0, fp, ror r9
     d40:	80a780e5 	adchi	r8, r7, r5, ror #1
     d44:	09802002 	stmibeq	r0, {r1, sp}
     d48:	80e60000 	rschi	r0, r6, r0
     d4c:	200280a7 	andcs	r8, r2, r7, lsr #1
     d50:	0000001e 	andeq	r0, r0, lr, lsl r0
     d54:	80a780e7 	adchi	r8, r7, r7, ror #1
     d58:	09852002 	stmibeq	r5, {r1, sp}
     d5c:	80e80000 	rschi	r0, r8, r0
     d60:	200280a7 	andcs	r8, r2, r7, lsr #1
     d64:	0000098a 	andeq	r0, r0, sl, lsl #19
     d68:	80a780e9 	adchi	r8, r7, r9, ror #1
     d6c:	07922002 	ldreq	r2, [r2, r2]
     d70:	80ea0000 	rschi	r0, sl, r0
     d74:	200280a7 	andcs	r8, r2, r7, lsr #1
     d78:	00000798 	muleq	r0, r8, r7
     d7c:	80a780eb 	adchi	r8, r7, fp, ror #1
     d80:	079e2002 	ldreq	r2, [lr, r2]
     d84:	80ec0000 	rschi	r0, ip, r0
     d88:	200280a7 	andcs	r8, r2, r7, lsr #1
     d8c:	000007a4 	andeq	r0, r0, r4, lsr #15
     d90:	80a780ed 	adchi	r8, r7, sp, ror #1
     d94:	07aa2002 	streq	r2, [sl, r2]!
     d98:	80ee0000 	rschi	r0, lr, r0
     d9c:	200280a7 	andcs	r8, r2, r7, lsr #1
     da0:	000007b0 			; <UNDEFINED> instruction: 0x000007b0
     da4:	80a780ef 	adchi	r8, r7, pc, ror #1
     da8:	07b62002 	ldreq	r2, [r6, r2]!
     dac:	80f00000 	rscshi	r0, r0, r0
     db0:	200280a7 	andcs	r8, r2, r7, lsr #1
     db4:	000007bc 			; <UNDEFINED> instruction: 0x000007bc
     db8:	80a780f1 	strdhi	r8, [r7], r1	; <UNPREDICTABLE>
     dbc:	07c22002 	strbeq	r2, [r2, r2]
     dc0:	80f20000 	rscshi	r0, r2, r0
     dc4:	200280a7 	andcs	r8, r2, r7, lsr #1
     dc8:	000007c8 	andeq	r0, r0, r8, asr #15
     dcc:	80a780f3 	strdhi	r8, [r7], r3	; <UNPREDICTABLE>
     dd0:	083d2002 	ldmdaeq	sp!, {r1, sp}
     dd4:	80f40000 	rscshi	r0, r4, r0
     dd8:	200280a7 	andcs	r8, r2, r7, lsr #1
     ddc:	00000445 	andeq	r0, r0, r5, asr #8
     de0:	80a780f5 	strdhi	r8, [r7], r5	; <UNPREDICTABLE>
     de4:	084a2002 	stmdaeq	sl, {r1, sp}^
     de8:	80f60000 	rscshi	r0, r6, r0
     dec:	200280a7 	andcs	r8, r2, r7, lsr #1
     df0:	00000850 	andeq	r0, r0, r0, asr r8
     df4:	80a780f7 	strdhi	r8, [r7], r7	; <UNPREDICTABLE>
     df8:	08562002 	ldmdaeq	r6, {r1, sp}^
     dfc:	80f80000 	rscshi	r0, r8, r0
     e00:	200280a7 	andcs	r8, r2, r7, lsr #1
     e04:	0000085c 	andeq	r0, r0, ip, asr r8
     e08:	80a780f9 	strdhi	r8, [r7], r9	; <UNPREDICTABLE>
     e0c:	08622002 	stmdaeq	r2!, {r1, sp}^
     e10:	80fa0000 	rscshi	r0, sl, r0
     e14:	200280a7 	andcs	r8, r2, r7, lsr #1
     e18:	00000868 	andeq	r0, r0, r8, ror #16
     e1c:	80a780fb 	strdhi	r8, [r7], fp	; <UNPREDICTABLE>
     e20:	086e2002 	stmdaeq	lr!, {r1, sp}^
     e24:	80fc0000 	rscshi	r0, ip, r0
     e28:	200280a7 	andcs	r8, r2, r7, lsr #1
     e2c:	00000874 	andeq	r0, r0, r4, ror r8
     e30:	80a780fd 	strdhi	r8, [r7], sp	; <UNPREDICTABLE>
     e34:	089e2002 	ldmeq	lr, {r1, sp}
     e38:	80fe0000 	rscshi	r0, lr, r0
     e3c:	200280a7 	andcs	r8, r2, r7, lsr #1
     e40:	000008a4 	andeq	r0, r0, r4, lsr #17
     e44:	80a780ff 	strdhi	r8, [r7], pc	; <UNPREDICTABLE>
     e48:	00c52002 	sbceq	r2, r5, r2
     e4c:	81800000 	orrhi	r0, r0, r0
     e50:	200280a7 	andcs	r8, r2, r7, lsr #1
     e54:	00000462 	andeq	r0, r0, r2, ror #8
     e58:	80a78181 	adchi	r8, r7, r1, lsl #3
     e5c:	04672002 	strbteq	r2, [r7], #-2
     e60:	81820000 	orrhi	r0, r2, r0
     e64:	200280a7 	andcs	r8, r2, r7, lsr #1
     e68:	0000046c 	andeq	r0, r0, ip, ror #8
     e6c:	80a78183 	adchi	r8, r7, r3, lsl #3
     e70:	00d02002 	sbcseq	r2, r0, r2
     e74:	81840000 	orrhi	r0, r4, r0
     e78:	200280a7 	andcs	r8, r2, r7, lsr #1
     e7c:	000000d5 	ldrdeq	r0, [r0], -r5
     e80:	80a78185 	adchi	r8, r7, r5, lsl #3
     e84:	00da2002 	sbcseq	r2, sl, r2
     e88:	81860000 	orrhi	r0, r6, r0
     e8c:	200280a7 	andcs	r8, r2, r7, lsr #1
     e90:	000000df 	ldrdeq	r0, [r0], -pc	; <UNPREDICTABLE>
     e94:	80a78187 	adchi	r8, r7, r7, lsl #3
     e98:	00e42002 	rsceq	r2, r4, r2
     e9c:	81880000 	orrhi	r0, r8, r0
     ea0:	200280a7 	andcs	r8, r2, r7, lsr #1
     ea4:	000000e9 	andeq	r0, r0, r9, ror #1
     ea8:	80a78189 	adchi	r8, r7, r9, lsl #3
     eac:	023d2002 	eorseq	r2, sp, #2
     eb0:	818a0000 	orrhi	r0, sl, r0
     eb4:	200280a7 	andcs	r8, r2, r7, lsr #1
     eb8:	00000243 	andeq	r0, r0, r3, asr #4
     ebc:	80a7818b 	adchi	r8, r7, fp, lsl #3
     ec0:	02492002 	subeq	r2, r9, #2
     ec4:	818c0000 	orrhi	r0, ip, r0
     ec8:	200280a7 	andcs	r8, r2, r7, lsr #1
     ecc:	0000024f 	andeq	r0, r0, pc, asr #4
     ed0:	80a7818d 	adchi	r8, r7, sp, lsl #3
     ed4:	02552002 	subseq	r2, r5, #2
     ed8:	818e0000 	orrhi	r0, lr, r0
     edc:	200280a7 	andcs	r8, r2, r7, lsr #1
     ee0:	0000025b 	andeq	r0, r0, fp, asr r2
     ee4:	80a7818f 	adchi	r8, r7, pc, lsl #3
     ee8:	02612002 	rsbeq	r2, r1, #2
     eec:	81900000 	orrshi	r0, r0, r0
     ef0:	200280a7 	andcs	r8, r2, r7, lsr #1
     ef4:	00000267 	andeq	r0, r0, r7, ror #4
     ef8:	80a78191 	umlalhi	r8, r7, r1, r1
     efc:	026d2002 	rsbeq	r2, sp, #2
     f00:	81920000 	orrshi	r0, r2, r0
     f04:	200280a7 	andcs	r8, r2, r7, lsr #1
     f08:	00000273 	andeq	r0, r0, r3, ror r2
     f0c:	80a78193 	umlalhi	r8, r7, r3, r1
     f10:	031a2002 	tsteq	sl, #2
     f14:	81940000 	orrshi	r0, r4, r0
     f18:	200280a7 	andcs	r8, r2, r7, lsr #1
     f1c:	00000320 	andeq	r0, r0, r0, lsr #6
     f20:	80a78195 	umlalhi	r8, r7, r5, r1
     f24:	03262002 	teqeq	r6, #2
     f28:	81960000 	orrshi	r0, r6, r0
     f2c:	200280a7 	andcs	r8, r2, r7, lsr #1
     f30:	0000032c 	andeq	r0, r0, ip, lsr #6
     f34:	80a78197 	umlalhi	r8, r7, r7, r1
     f38:	03322002 	teqeq	r2, #2
     f3c:	81980000 	orrshi	r0, r8, r0
     f40:	200280a7 	andcs	r8, r2, r7, lsr #1
     f44:	00000338 	andeq	r0, r0, r8, lsr r3
     f48:	80a78199 	umlalhi	r8, r7, r9, r1
     f4c:	033e2002 	teqeq	lr, #2
     f50:	819a0000 	orrshi	r0, sl, r0
     f54:	200280a7 	andcs	r8, r2, r7, lsr #1
     f58:	00000344 	andeq	r0, r0, r4, asr #6
     f5c:	80a7819b 	umlalhi	r8, r7, fp, r1
     f60:	034a2002 	movteq	r2, #40962	; 0xa002
     f64:	819c0000 	orrshi	r0, ip, r0
     f68:	200280a7 	andcs	r8, r2, r7, lsr #1
     f6c:	00000350 	andeq	r0, r0, r0, asr r3
     f70:	80a7819d 	umlalhi	r8, r7, sp, r1
     f74:	03792002 	cmneq	r9, #2
     f78:	819e0000 	orrshi	r0, lr, r0
     f7c:	200280a7 	andcs	r8, r2, r7, lsr #1
     f80:	0000037f 	andeq	r0, r0, pc, ror r3
     f84:	80a7819f 	umlalhi	r8, r7, pc, r1	; <UNPREDICTABLE>
     f88:	35702102 	ldrbcc	r2, [r0, #-258]!	; 0x102
     f8c:	a7808900 	strge	r8, [r0, r0, lsl #18]
     f90:	70210280 	eorvc	r0, r1, r0, lsl #5
     f94:	80880036 	addhi	r0, r8, r6, lsr r0
     f98:	210280a7 	smlatbcs	r2, r7, r0, r8
     f9c:	87003770 	smlsdxhi	r0, r0, r7, r3
     fa0:	0280a780 	addeq	sl, r0, #128, 14	; 0x2000000
     fa4:	00387021 	eorseq	r7, r8, r1, lsr #32
     fa8:	80a78086 	adchi	r8, r7, r6, lsl #1
     fac:	39702102 	ldmdbcc	r0!, {r1, r8, sp}^
     fb0:	a7808000 	strge	r8, [r0, r0]
     fb4:	70210280 	eorvc	r0, r1, r0, lsl #5
     fb8:	81003031 	tsthi	r0, r1, lsr r0
     fbc:	0280a780 	addeq	sl, r0, #128, 14	; 0x2000000
     fc0:	31317021 	teqcc	r1, r1, lsr #32
     fc4:	a7809200 	strge	r9, [r0, r0, lsl #4]
     fc8:	70210280 	eorvc	r0, r1, r0, lsl #5
     fcc:	91003231 	tstls	r0, r1, lsr r2
     fd0:	0280a780 	addeq	sl, r0, #128, 14	; 0x2000000
     fd4:	33317021 	teqcc	r1, #33	; 0x21
     fd8:	a7808f00 	strge	r8, [r0, r0, lsl #30]
     fdc:	70210280 	eorvc	r0, r1, r0, lsl #5
     fe0:	90003431 	andls	r3, r0, r1, lsr r4
     fe4:	0280a780 	addeq	sl, r0, #128, 14	; 0x2000000
     fe8:	35317021 	ldrcc	r7, [r1, #-33]!	; 0x21
     fec:	a7809700 	strge	r9, [r0, r0, lsl #14]
     ff0:	70210280 	eorvc	r0, r1, r0, lsl #5
     ff4:	98003631 	stmdals	r0, {r0, r4, r5, r9, sl, ip, sp}
     ff8:	0280a780 	addeq	sl, r0, #128, 14	; 0x2000000
     ffc:	37317021 	ldrcc	r7, [r1, -r1, lsr #32]!
    1000:	a7809900 	strge	r9, [r0, r0, lsl #18]
    1004:	70210280 	eorvc	r0, r1, r0, lsl #5
    1008:	9a003831 	bls	f0d4 <_etext+0xa318>
    100c:	0280a780 	addeq	sl, r0, #128, 14	; 0x2000000
    1010:	39317021 	ldmdbcc	r1!, {r0, r5, ip, sp, lr}
    1014:	a780be00 	strge	fp, [r0, r0, lsl #28]
    1018:	70210280 	eorvc	r0, r1, r0, lsl #5
    101c:	bf003032 	svclt	0x00003032
    1020:	0280a780 	addeq	sl, r0, #128, 14	; 0x2000000
    1024:	31327021 	teqcc	r2, r1, lsr #32
    1028:	a780c500 	strge	ip, [r0, r0, lsl #10]
    102c:	70210280 	eorvc	r0, r1, r0, lsl #5
    1030:	c4003232 	strgt	r3, [r0], #-562	; 0x232
    1034:	0280a780 	addeq	sl, r0, #128, 14	; 0x2000000
    1038:	33327021 	teqcc	r2, #33	; 0x21
    103c:	a780c300 	strge	ip, [r0, r0, lsl #6]
    1040:	70210280 	eorvc	r0, r1, r0, lsl #5
    1044:	c2003432 	andgt	r3, r0, #838860800	; 0x32000000
    1048:	0280a780 	addeq	sl, r0, #128, 14	; 0x2000000
    104c:	35327021 	ldrcc	r7, [r2, #-33]!	; 0x21
    1050:	a780c100 	strge	ip, [r0, r0, lsl #2]
    1054:	70210280 	eorvc	r0, r1, r0, lsl #5
    1058:	c0003632 	andgt	r3, r0, r2, lsr r6
    105c:	0280a780 	addeq	sl, r0, #128, 14	; 0x2000000
    1060:	37327021 	ldrcc	r7, [r2, -r1, lsr #32]!
    1064:	a7808b00 	strge	r8, [r0, r0, lsl #22]
    1068:	70210280 	eorvc	r0, r1, r0, lsl #5
    106c:	8a003832 	bhi	f13c <_etext+0xa380>
    1070:	0280a780 	addeq	sl, r0, #128, 14	; 0x2000000
    1074:	39327021 	ldmdbcc	r2!, {r0, r5, ip, sp, lr}
    1078:	a7808500 	strge	r8, [r0, r0, lsl #10]
    107c:	70210280 	eorvc	r0, r1, r0, lsl #5
    1080:	84003033 	strhi	r3, [r0], #-51	; 0x33
    1084:	0280a780 	addeq	sl, r0, #128, 14	; 0x2000000
    1088:	00066520 	andeq	r6, r6, r0, lsr #10
    108c:	a780b200 	strge	fp, [r0, r0, lsl #4]
    1090:	6a200280 	bvs	801a98 <_etext+0x7fccdc>
    1094:	b4000006 	strlt	r0, [r0], #-6
    1098:	0280a780 	addeq	sl, r0, #128, 14	; 0x2000000
    109c:	0009ac20 	andeq	sl, r9, r0, lsr #24
    10a0:	a780b500 	strge	fp, [r0, r0, lsl #10]
    10a4:	6f200280 	svcvs	0x00200280
    10a8:	b7000006 	strlt	r0, [r0, -r6]
    10ac:	0280a780 	addeq	sl, r0, #128, 14	; 0x2000000
    10b0:	00048c20 	andeq	r8, r4, r0, lsr #24
    10b4:	a7808200 	strge	r8, [r0, r0, lsl #4]
    10b8:	18200280 	stmdane	r0!, {r7, r9}
    10bc:	83000004 	movwhi	r0, #4
    10c0:	0280a780 	addeq	sl, r0, #128, 14	; 0x2000000
    10c4:	00434e21 	subeq	r4, r3, r1, lsr #28
    10c8:	7322007f 	teqvc	r2, #127	; 0x7f
    10cc:	11006474 	tstne	r0, r4, ror r4
    10d0:	00123400 	andseq	r3, r2, r0, lsl #8
    10d4:	760b2300 	strvc	r2, [fp], -r0, lsl #6
    10d8:	000008b6 			; <UNDEFINED> instruction: 0x000008b6
    10dc:	e6770b23 	ldrbt	r0, [r7], -r3, lsr #22
    10e0:	23000008 	movwcs	r0, #8
    10e4:	12347b0b 	eorsne	r7, r4, #11264	; 0x2c00
    10e8:	0b230000 	bleq	8c10f0 <_etext+0x8bc334>
    10ec:	00124981 	andseq	r4, r2, r1, lsl #19
    10f0:	820b2300 	andhi	r2, fp, #0, 6
    10f4:	0000125e 	andeq	r1, r0, lr, asr r2
    10f8:	73830b23 	orrvc	r0, r3, #35840	; 0x8c00
    10fc:	23000012 	movwcs	r0, #18
    1100:	1288840b 	addne	r8, r8, #184549376	; 0xb000000
    1104:	0b230000 	bleq	8c110c <_etext+0x8bc350>
    1108:	0012b186 	andseq	fp, r2, r6, lsl #3
    110c:	890b2300 	stmdbhi	fp, {r8, r9, sp}
    1110:	000012cb 	andeq	r1, r0, fp, asr #5
    1114:	e08b0b23 	add	r0, fp, r3, lsr #22
    1118:	23000012 	movwcs	r0, #18
    111c:	12fa8e0b 	rscsne	r8, sl, #11, 28	; 0xb0
    1120:	0b230000 	bleq	8c1128 <_etext+0x8bc36c>
    1124:	0013148f 	andseq	r1, r3, pc, lsl #9
    1128:	900b2300 	andls	r2, fp, r0, lsl #6
    112c:	00001340 	andeq	r1, r0, r0, asr #6
    1130:	5f920b23 	svcpl	0x00920b23
    1134:	23000013 	movwcs	r0, #19
    1138:	137f980b 	cmnne	pc, #720896	; 0xb0000
    113c:	0b230000 	bleq	8c1144 <_etext+0x8bc388>
    1140:	00138a9a 	mulseq	r3, sl, sl
    1144:	9b0b2300 	blls	2c9d4c <_etext+0x2c4f90>
    1148:	0000139b 	muleq	r0, fp, r3
    114c:	bb9c0b23 	bllt	fe703de0 <__StackTop+0xee6fbde0>
    1150:	23000013 	movwcs	r0, #19
    1154:	13da9d0b 	bicsne	r9, sl, #704	; 0x2c0
    1158:	0b230000 	bleq	8c1160 <_etext+0x8bc3a4>
    115c:	0013f99e 	mulseq	r3, lr, r9
    1160:	a00b2300 	andge	r2, fp, r0, lsl #6
    1164:	0000140e 	andeq	r1, r0, lr, lsl #8
    1168:	38a10b23 	stmiacc	r1!, {r0, r1, r5, r8, r9, fp}
    116c:	23000014 	movwcs	r0, #20
    1170:	087b600c 	ldmdaeq	fp!, {r2, r3, sp, lr}^
    1174:	0c230000 	stceq	0, cr0, [r3], #-0
    1178:	00088661 	andeq	r8, r8, r1, ror #12
    117c:	630c2300 	movwvs	r2, #49920	; 0xc300
    1180:	000014c4 	andeq	r1, r0, r4, asr #9
    1184:	db640c23 	blle	1904218 <_etext+0x18ff45c>
    1188:	23000014 	movwcs	r0, #20
    118c:	14f0650c 	ldrbtne	r6, [r0], #1292	; 0x50c
    1190:	0c230000 	stceq	0, cr0, [r3], #-0
    1194:	00150566 	andseq	r0, r5, r6, ror #10
    1198:	670c2300 	strvs	r2, [ip, -r0, lsl #6]
    119c:	0000151a 	andeq	r1, r0, sl, lsl r5
    11a0:	2f680c23 	svccs	0x00680c23
    11a4:	23000015 	movwcs	r0, #21
    11a8:	1544690c 	strbne	r6, [r4, #-2316]	; 0x90c
    11ac:	0c230000 	stceq	0, cr0, [r3], #-0
    11b0:	0015646a 	andseq	r6, r5, sl, ror #8
    11b4:	6b0c2300 	blvs	309dbc <_etext+0x305000>
    11b8:	00001583 	andeq	r1, r0, r3, lsl #11
    11bc:	9d6f0c23 	stclls	12, cr0, [pc, #-140]!	; 1138 <_printf_common+0x40>
    11c0:	23000015 	movwcs	r0, #21
    11c4:	15c1700c 	strbne	r7, [r1, #12]
    11c8:	0c230000 	stceq	0, cr0, [r3], #-0
    11cc:	0015e072 	andseq	lr, r5, r2, ror r0
    11d0:	730c2300 	movwvc	r2, #49920	; 0xc300
    11d4:	000015ff 	strdeq	r1, [r0], -pc	; <UNPREDICTABLE>
    11d8:	24740c23 	ldrbtcs	r0, [r4], #-3107	; 0xc23
    11dc:	23000016 	movwcs	r0, #22
    11e0:	1639760c 	ldrtne	r7, [r9], -ip, lsl #12
    11e4:	0c230000 	stceq	0, cr0, [r3], #-0
    11e8:	00164e77 	andseq	r4, r6, r7, ror lr
    11ec:	780c2300 	stmdavc	ip, {r8, r9, sp}
    11f0:	00001659 	andeq	r1, r0, r9, asr r6
    11f4:	6e790c23 	cdpvs	12, 7, cr0, cr9, cr3, {1}
    11f8:	23000016 	movwcs	r0, #22
    11fc:	167f7e0c 	ldrbtne	r7, [pc], -ip, lsl #28
    1200:	0c230000 	stceq	0, cr0, [r3], #-0
    1204:	0016947f 	andseq	r9, r6, pc, ror r4
    1208:	800c2300 	andhi	r2, ip, r0, lsl #6
    120c:	000016ae 	andeq	r1, r0, lr, lsr #13
    1210:	bf820c23 	svclt	0x00820c23
    1214:	23000016 	movwcs	r0, #22
    1218:	16d5830c 	ldrbne	r8, [r5], ip, lsl #6
    121c:	0c230000 	stceq	0, cr0, [r3], #-0
    1220:	0016f986 	andseq	pc, r6, r6, lsl #19
    1224:	870c2300 	strhi	r2, [ip, -r0, lsl #6]
    1228:	00001704 	andeq	r1, r0, r4, lsl #14
    122c:	19880c23 	stmibne	r8, {r0, r1, r5, sl, fp}
    1230:	00000017 	andeq	r0, r0, r7, lsl r0
    1234:	00040924 	andeq	r0, r4, r4, lsr #18
    1238:	39440900 	stmdbcc	r4, {r8, fp}^
    123c:	49000000 	stmdbmi	r0, {}	; <UNPREDICTABLE>
    1240:	14000012 	strne	r0, [r0], #-18
    1244:	000002b2 			; <UNDEFINED> instruction: 0x000002b2
    1248:	01112400 	tsteq	r1, r0, lsl #8
    124c:	45090000 	strmi	r0, [r9, #-0]
    1250:	0000091d 	andeq	r0, r0, sp, lsl r9
    1254:	0000125e 	andeq	r1, r0, lr, asr r2
    1258:	0006dc14 	andeq	sp, r6, r4, lsl ip
    125c:	ad240000 	stcge	0, cr0, [r4, #-0]
    1260:	09000000 	stmdbeq	r0, {}	; <UNPREDICTABLE>
    1264:	00003949 	andeq	r3, r0, r9, asr #18
    1268:	00127300 	andseq	r7, r2, r0, lsl #6
    126c:	06dc1400 	ldrbeq	r1, [ip], r0, lsl #8
    1270:	24000000 	strcs	r0, [r0], #-0
    1274:	00000124 	andeq	r0, r0, r4, lsr #2
    1278:	00674b09 	rsbeq	r4, r7, r9, lsl #22
    127c:	12880000 	addne	r0, r8, #0
    1280:	dc140000 	ldcle	0, cr0, [r4], {-0}
    1284:	00000006 	andeq	r0, r0, r6
    1288:	0006e624 	andeq	lr, r6, r4, lsr #12
    128c:	374d0900 	strbcc	r0, [sp, -r0, lsl #18]
    1290:	b1000000 	mrslt	r0, (UNDEF: 0)
    1294:	14000012 	strne	r0, [r0], #-18
    1298:	00000916 	andeq	r0, r0, r6, lsl r9
    129c:	00091614 	andeq	r1, r9, r4, lsl r6
    12a0:	00251400 	eoreq	r1, r5, r0, lsl #8
    12a4:	25140000 	ldrcs	r0, [r4, #-0]
    12a8:	14000000 	strne	r0, [r0], #-0
    12ac:	000008f1 	strdeq	r0, [r0], -r1
    12b0:	69642500 	stmdbvs	r4!, {r8, sl, sp}^
    12b4:	53090076 	movwpl	r0, #36982	; 0x9076
    12b8:	000008b6 			; <UNDEFINED> instruction: 0x000008b6
    12bc:	000012cb 	andeq	r1, r0, fp, asr #5
    12c0:	00003914 	andeq	r3, r0, r4, lsl r9
    12c4:	00391400 	eorseq	r1, r9, r0, lsl #8
    12c8:	24000000 	strcs	r0, [r0], #-0
    12cc:	0000044b 	andeq	r0, r0, fp, asr #8
    12d0:	06ab5609 	strteq	r5, [fp], r9, lsl #12
    12d4:	12e00000 	rscne	r0, r0, #0
    12d8:	dc140000 	ldcle	0, cr0, [r4], {-0}
    12dc:	00000006 	andeq	r0, r0, r6
    12e0:	00036d24 	andeq	r6, r3, r4, lsr #26
    12e4:	e65f0900 	ldrb	r0, [pc], -r0, lsl #18
    12e8:	fa000008 	blx	1310 <_printf_i+0x134>
    12ec:	14000012 	strne	r0, [r0], #-18
    12f0:	00000067 	andeq	r0, r0, r7, rrx
    12f4:	00006714 	andeq	r6, r0, r4, lsl r7
    12f8:	d1240000 	teqle	r4, r0
    12fc:	09000003 	stmdbeq	r0, {r0, r1}
    1300:	00003961 	andeq	r3, r0, r1, ror #18
    1304:	00131400 	andseq	r1, r3, r0, lsl #8
    1308:	06dc1400 	ldrbeq	r1, [ip], r0, lsl #8
    130c:	25140000 	ldrcs	r0, [r4, #-0]
    1310:	00000000 	andeq	r0, r0, r0
    1314:	00006d24 	andeq	r6, r0, r4, lsr #26
    1318:	25670900 	strbcs	r0, [r7, #-2304]!	; 0x900
    131c:	33000000 	movwcc	r0, #0
    1320:	14000013 	strne	r0, [r0], #-19
    1324:	00001333 	andeq	r1, r0, r3, lsr r3
    1328:	0006dc14 	andeq	sp, r6, r4, lsl ip
    132c:	00251400 	eoreq	r1, r5, r0, lsl #8
    1330:	0f000000 	svceq	0x00000000
    1334:	00133904 	andseq	r3, r3, r4, lsl #18
    1338:	07040300 	streq	r0, [r4, -r0, lsl #6]
    133c:	00000b3e 	andeq	r0, r0, lr, lsr fp
    1340:	00057024 	andeq	r7, r5, r4, lsr #32
    1344:	39630900 	stmdbcc	r3!, {r8, fp}^
    1348:	5f000000 	svcpl	0x00000000
    134c:	14000013 	strne	r0, [r0], #-19
    1350:	00001333 	andeq	r1, r0, r3, lsr r3
    1354:	0006dc14 	andeq	sp, r6, r4, lsl ip
    1358:	00251400 	eoreq	r1, r5, r0, lsl #8
    135c:	26000000 	strcs	r0, [r0], -r0
    1360:	000006af 	andeq	r0, r0, pc, lsr #13
    1364:	137f7b09 	cmnne	pc, #9216	; 0x2400
    1368:	37140000 	ldrcc	r0, [r4, -r0]
    136c:	14000000 	strne	r0, [r0], #-0
    1370:	00000025 	andeq	r0, r0, r5, lsr #32
    1374:	00002514 	andeq	r2, r0, r4, lsl r5
    1378:	08f11400 	ldmeq	r1!, {sl, ip}^
    137c:	27000000 	strcs	r0, [r0, -r0]
    1380:	000001e4 	andeq	r0, r0, r4, ror #3
    1384:	00397c09 	eorseq	r7, r9, r9, lsl #24
    1388:	0a260000 	beq	981390 <_etext+0x97c5d4>
    138c:	09000009 	stmdbeq	r0, {r0, r3}
    1390:	00139b82 	andseq	r9, r3, r2, lsl #23
    1394:	00301400 	eorseq	r1, r0, r0, lsl #8
    1398:	24000000 	strcs	r0, [r0], #-0
    139c:	000008b1 			; <UNDEFINED> instruction: 0x000008b1
    13a0:	091d8309 	ldmdbeq	sp, {r0, r3, r8, r9, pc}
    13a4:	13b50000 			; <UNDEFINED> instruction: 0x13b50000
    13a8:	dc140000 	ldcle	0, cr0, [r4], {-0}
    13ac:	14000006 	strne	r0, [r0], #-6
    13b0:	000013b5 			; <UNDEFINED> instruction: 0x000013b5
    13b4:	ab040f00 	blge	104fbc <_etext+0x100200>
    13b8:	24000006 	strcs	r0, [r0], #-6
    13bc:	000008b8 			; <UNDEFINED> instruction: 0x000008b8
    13c0:	00678e09 	rsbeq	r8, r7, r9, lsl #28
    13c4:	13da0000 	bicsne	r0, sl, #0
    13c8:	dc140000 	ldcle	0, cr0, [r4], {-0}
    13cc:	14000006 	strne	r0, [r0], #-6
    13d0:	000013b5 			; <UNDEFINED> instruction: 0x000013b5
    13d4:	00003914 	andeq	r3, r0, r4, lsl r9
    13d8:	10240000 	eorne	r0, r4, r0
    13dc:	09000004 	stmdbeq	r0, {r2}
    13e0:	00006e90 	muleq	r0, r0, lr
    13e4:	0013f900 	andseq	pc, r3, r0, lsl #18
    13e8:	06dc1400 	ldrbeq	r1, [ip], r0, lsl #8
    13ec:	b5140000 	ldrlt	r0, [r4, #-0]
    13f0:	14000013 	strne	r0, [r0], #-19
    13f4:	00000039 	andeq	r0, r0, r9, lsr r0
    13f8:	022c2400 	eoreq	r2, ip, #0, 8
    13fc:	93090000 	movwls	r0, #36864	; 0x9000
    1400:	00000039 	andeq	r0, r0, r9, lsr r0
    1404:	0000140e 	andeq	r1, r0, lr, lsl #8
    1408:	0006dc14 	andeq	sp, r6, r4, lsl ip
    140c:	f8240000 			; <UNDEFINED> instruction: 0xf8240000
    1410:	09000005 	stmdbeq	r0, {r0, r2}
    1414:	00002569 	andeq	r2, r0, r9, ror #10
    1418:	00142d00 	andseq	r2, r4, r0, lsl #26
    141c:	06ab1400 	strteq	r1, [fp], r0, lsl #8
    1420:	2d140000 	ldccs	0, cr0, [r4, #-0]
    1424:	14000014 	strne	r0, [r0], #-20
    1428:	00000025 	andeq	r0, r0, r5, lsr #32
    142c:	33040f00 	movwcc	r0, #20224	; 0x4f00
    1430:	1b000014 	blne	1488 <_scanf_float+0x84>
    1434:	00001339 	andeq	r1, r0, r9, lsr r3
    1438:	00017624 	andeq	r7, r1, r4, lsr #12
    143c:	39650900 	stmdbcc	r5!, {r8, fp}^
    1440:	52000000 	andpl	r0, r0, #0
    1444:	14000014 	strne	r0, [r0], #-20
    1448:	000006ab 	andeq	r0, r0, fp, lsr #13
    144c:	00133914 	andseq	r3, r3, r4, lsl r9
    1450:	cb280000 	blgt	a01458 <_etext+0x9fc69c>
    1454:	12000002 	andne	r0, r0, #2
    1458:	0014c412 	andseq	ip, r4, r2, lsl r4
    145c:	06ef2900 	strbteq	r2, [pc], r0, lsl #18
    1460:	332a0000 	teqcc	sl, #0
    1464:	01000002 	tsteq	r0, r2
    1468:	0008df5c 	andeq	sp, r8, ip, asr pc
    146c:	00174100 	andseq	r4, r7, r0, lsl #2
    1470:	147a0100 	ldrbtne	r0, [sl], #-256	; 0x100
    1474:	14850000 	strne	r0, [r5], #0
    1478:	472b0000 	strmi	r0, [fp, -r0]!
    147c:	14000017 	strne	r0, [r0], #-23
    1480:	00000039 	andeq	r0, r0, r9, lsr r0
    1484:	06ee2c00 	strbteq	r2, [lr], r0, lsl #24
    1488:	00370000 	eorseq	r0, r7, r0
    148c:	5d010000 	stcpl	0, cr0, [r1, #-0]
    1490:	01000014 	tsteq	r0, r4, lsl r0
    1494:	0000149c 	muleq	r0, ip, r4
    1498:	000014a7 	andeq	r1, r0, r7, lsr #9
    149c:	0017472b 	andseq	r4, r7, fp, lsr #14
    14a0:	00392b00 	eorseq	r2, r9, r0, lsl #22
    14a4:	2d000000 	stccs	0, cr0, [r0, #-0]
    14a8:	0000004c 	andeq	r0, r0, ip, asr #32
    14ac:	00283201 	eoreq	r3, r8, r1, lsl #4
    14b0:	b7010000 	strlt	r0, [r1, -r0]
    14b4:	2b000014 	blcs	150c <_scanf_float+0x108>
    14b8:	00001747 	andeq	r1, r0, r7, asr #14
    14bc:	00003914 	andeq	r3, r0, r4, lsl r9
    14c0:	00000000 	andeq	r0, r0, r0
    14c4:	0000fc26 	andeq	pc, r0, r6, lsr #24
    14c8:	d5d30800 	ldrble	r0, [r3, #2048]	; 0x800
    14cc:	14000014 	strne	r0, [r0], #-20
    14d0:	000014d5 	ldrdeq	r1, [r0], -r5
    14d4:	7b040f00 	blvc	1050dc <_etext+0x100320>
    14d8:	24000008 	strcs	r0, [r0], #-8
    14dc:	000002d0 	ldrdeq	r0, [r0], -r0	; <UNPREDICTABLE>
    14e0:	0039a408 	eorseq	sl, r9, r8, lsl #8
    14e4:	14f00000 	ldrbtne	r0, [r0], #0
    14e8:	d5140000 	ldrle	r0, [r4, #-0]
    14ec:	00000014 	andeq	r0, r0, r4, lsl r0
    14f0:	0006a024 	andeq	sl, r6, r4, lsr #32
    14f4:	39d40800 	ldmibcc	r4, {fp}^
    14f8:	05000000 	streq	r0, [r0, #-0]
    14fc:	14000015 	strne	r0, [r0], #-21
    1500:	000014d5 	ldrdeq	r1, [r0], -r5
    1504:	049a2400 	ldreq	r2, [sl], #1024	; 0x400
    1508:	d5080000 	strle	r0, [r8, #-0]
    150c:	00000039 	andeq	r0, r0, r9, lsr r0
    1510:	0000151a 	andeq	r1, r0, sl, lsl r5
    1514:	0014d514 	andseq	sp, r4, r4, lsl r5
    1518:	21240000 	teqcs	r4, r0
    151c:	0800000b 	stmdaeq	r0, {r0, r1, r3}
    1520:	000039a5 	andeq	r3, r0, r5, lsr #19
    1524:	00152f00 	andseq	r2, r5, r0, lsl #30
    1528:	14d51400 	ldrbne	r1, [r5], #1024	; 0x400
    152c:	24000000 	strcs	r0, [r0], #-0
    1530:	00000000 	andeq	r0, r0, r0
    1534:	0039b908 	eorseq	fp, r9, r8, lsl #18
    1538:	15440000 	strbne	r0, [r4, #-0]
    153c:	d5140000 	ldrle	r0, [r4, #-0]
    1540:	00000014 	andeq	r0, r0, r4, lsl r0
    1544:	0000f424 	andeq	pc, r0, r4, lsr #8
    1548:	39c90800 	stmibcc	r9, {fp}^
    154c:	5e000000 	cdppl	0, 0, cr0, cr0, cr0, {0}
    1550:	14000015 	strne	r0, [r0], #-21
    1554:	000014d5 	ldrdeq	r1, [r0], -r5
    1558:	00155e14 	andseq	r5, r5, r4, lsl lr
    155c:	040f0000 	streq	r0, [pc], #-0	; 1564 <_scanf_float+0x160>
    1560:	00000886 	andeq	r0, r0, r6, lsl #17
    1564:	000b0824 	andeq	r0, fp, r4, lsr #16
    1568:	abba0800 	blge	fee83570 <__StackTop+0xeee7b570>
    156c:	83000006 	movwhi	r0, #6
    1570:	14000015 	strne	r0, [r0], #-21
    1574:	000006ab 	andeq	r0, r0, fp, lsr #13
    1578:	00003914 	andeq	r3, r0, r4, lsl r9
    157c:	14d51400 	ldrbne	r1, [r5], #1024	; 0x400
    1580:	24000000 	strcs	r0, [r0], #-0
    1584:	00000898 	muleq	r0, r8, r8
    1588:	14d5d808 	ldrbne	sp, [r5], #2056	; 0x808
    158c:	159d0000 	ldrne	r0, [sp]
    1590:	dc140000 	ldcle	0, cr0, [r4], {-0}
    1594:	14000006 	strne	r0, [r0], #-6
    1598:	000006dc 	ldrdeq	r0, [r0], -ip
    159c:	0ab92400 	beq	fee4a5a4 <__StackTop+0xeee425a4>
    15a0:	c4080000 	strgt	r0, [r8], #-0
    15a4:	00000025 	andeq	r0, r0, r5, lsr #32
    15a8:	000015c1 	andeq	r1, r0, r1, asr #11
    15ac:	00003714 	andeq	r3, r0, r4, lsl r7
    15b0:	00251400 	eoreq	r1, r5, r0, lsl #8
    15b4:	25140000 	ldrcs	r0, [r4, #-0]
    15b8:	14000000 	strne	r0, [r0], #-0
    15bc:	000014d5 	ldrdeq	r1, [r0], -r5
    15c0:	0b462400 	bleq	118a5c8 <_etext+0x118580c>
    15c4:	a6080000 	strge	r0, [r8], -r0
    15c8:	000014d5 	ldrdeq	r1, [r0], -r5
    15cc:	000015e0 	andeq	r1, r0, r0, ror #11
    15d0:	0006dc14 	andeq	sp, r6, r4, lsl ip
    15d4:	06dc1400 	ldrbeq	r1, [ip], r0, lsl #8
    15d8:	d5140000 	ldrle	r0, [r4, #-0]
    15dc:	00000014 	andeq	r0, r0, r4, lsl r0
    15e0:	0005f224 	andeq	pc, r5, r4, lsr #4
    15e4:	39cb0800 	stmibcc	fp, {fp}^
    15e8:	ff000000 			; <UNDEFINED> instruction: 0xff000000
    15ec:	14000015 	strne	r0, [r0], #-21
    15f0:	000014d5 	ldrdeq	r1, [r0], -r5
    15f4:	00006714 	andeq	r6, r0, r4, lsl r7
    15f8:	00391400 	eorseq	r1, r9, r0, lsl #8
    15fc:	24000000 	strcs	r0, [r0], #-0
    1600:	000004d4 	ldrdeq	r0, [r0], -r4
    1604:	0039cf08 	eorseq	ip, r9, r8, lsl #30
    1608:	16190000 	ldrne	r0, [r9], -r0
    160c:	d5140000 	ldrle	r0, [r4, #-0]
    1610:	14000014 	strne	r0, [r0], #-20
    1614:	00001619 	andeq	r1, r0, r9, lsl r6
    1618:	1f040f00 	svcne	0x00040f00
    161c:	1b000016 	blne	167c <_scanf_float+0x278>
    1620:	00000886 	andeq	r0, r0, r6, lsl #17
    1624:	0003c524 	andeq	ip, r3, r4, lsr #10
    1628:	67d10800 	ldrbvs	r0, [r1, r0, lsl #16]
    162c:	39000000 	stmdbcc	r0, {}	; <UNPREDICTABLE>
    1630:	14000016 	strne	r0, [r0], #-22
    1634:	000014d5 	ldrdeq	r1, [r0], -r5
    1638:	00012400 	andeq	r2, r1, r0, lsl #8
    163c:	bd080000 	stclt	0, cr0, [r8, #-0]
    1640:	00000039 	andeq	r0, r0, r9, lsr r0
    1644:	0000164e 	andeq	r1, r0, lr, asr #12
    1648:	0014d514 	andseq	sp, r4, r4, lsl r5
    164c:	89270000 	stmdbhi	r7!, {}	; <UNPREDICTABLE>
    1650:	08000006 	stmdaeq	r0, {r1, r2}
    1654:	000039be 			; <UNDEFINED> instruction: 0x000039be
    1658:	0b092400 	bleq	24a660 <_etext+0x2458a4>
    165c:	bf080000 	svclt	0x00080000
    1660:	000006ab 	andeq	r0, r0, fp, lsr #13
    1664:	0000166e 	andeq	r1, r0, lr, ror #12
    1668:	0006ab14 	andeq	sl, r6, r4, lsl fp
    166c:	e2260000 	eor	r0, r6, #0
    1670:	08000005 	stmdaeq	r0, {r0, r2}
    1674:	00167fd6 			; <UNDEFINED> instruction: 0x00167fd6
    1678:	06dc1400 	ldrbeq	r1, [ip], r0, lsl #8
    167c:	24000000 	strcs	r0, [r0], #-0
    1680:	00000225 	andeq	r0, r0, r5, lsr #4
    1684:	0039db08 	eorseq	sp, r9, r8, lsl #22
    1688:	16940000 	ldrne	r0, [r4], r0
    168c:	dc140000 	ldcle	0, cr0, [r4], {-0}
    1690:	00000006 	andeq	r0, r0, r6
    1694:	00064c24 	andeq	r4, r6, r4, lsr #24
    1698:	39dc0800 	ldmibcc	ip, {fp}^
    169c:	ae000000 	cdpge	0, 0, cr0, cr0, cr0, {0}
    16a0:	14000016 	strne	r0, [r0], #-22
    16a4:	000006dc 	ldrdeq	r0, [r0], -ip
    16a8:	0006dc14 	andeq	sp, r6, r4, lsl ip
    16ac:	aa260000 	bge	9816b4 <_etext+0x97c8f8>
    16b0:	08000008 	stmdaeq	r0, {r3}
    16b4:	0016bfd2 			; <UNDEFINED> instruction: 0x0016bfd2
    16b8:	14d51400 	ldrbne	r1, [r5], #1024	; 0x400
    16bc:	26000000 	strcs	r0, [r0], -r0
    16c0:	00000699 	muleq	r0, r9, r6
    16c4:	16d5a708 	ldrbne	sl, [r5], r8, lsl #14
    16c8:	d5140000 	ldrle	r0, [r4, #-0]
    16cc:	14000014 	strne	r0, [r0], #-20
    16d0:	000006ab 	andeq	r0, r0, fp, lsr #13
    16d4:	06012400 	streq	r2, [r1], -r0, lsl #8
    16d8:	a8080000 	stmdage	r8, {}	; <UNPREDICTABLE>
    16dc:	00000039 	andeq	r0, r0, r9, lsr r0
    16e0:	000016f9 	strdeq	r1, [r0], -r9
    16e4:	0014d514 	andseq	sp, r4, r4, lsl r5
    16e8:	06ab1400 	strteq	r1, [fp], r0, lsl #8
    16ec:	39140000 	ldmdbcc	r4, {}	; <UNPREDICTABLE>
    16f0:	14000000 	strne	r0, [r0], #-0
    16f4:	00000025 	andeq	r0, r0, r5, lsr #32
    16f8:	09022700 	stmdbeq	r2, {r8, r9, sl, sp}
    16fc:	a2080000 	andge	r0, r8, #0
    1700:	000014d5 	ldrdeq	r1, [r0], -r5
    1704:	0000b224 	andeq	fp, r0, r4, lsr #4
    1708:	aba30800 	blge	fe8c3710 <__StackTop+0xee8bb710>
    170c:	19000006 	stmdbne	r0, {r1, r2}
    1710:	14000017 	strne	r0, [r0], #-23
    1714:	000006ab 	andeq	r0, r0, fp, lsr #13
    1718:	09232400 	stmdbeq	r3!, {sl, sp}
    171c:	c3080000 	movwgt	r0, #32768	; 0x8000
    1720:	00000039 	andeq	r0, r0, r9, lsr r0
    1724:	00001733 	andeq	r1, r0, r3, lsr r7
    1728:	00003914 	andeq	r3, r0, r4, lsl r9
    172c:	14d51400 	ldrbne	r1, [r5], #1024	; 0x400
    1730:	2e000000 	cdpcs	0, 0, cr0, cr0, cr0, {0}
    1734:	1452370d 	ldrbne	r3, [r2], #-1805	; 0x70d
    1738:	0d2e0000 	stceq	0, cr0, [lr, #-0]
    173c:	0010ca38 	andseq	ip, r0, r8, lsr sl
    1740:	5d042f00 	stcpl	15, cr2, [r4, #-0]
    1744:	0f000014 	svceq	0x00000014
    1748:	00145d04 	andseq	r5, r4, r4, lsl #26
    174c:	14623000 	strbtne	r3, [r2], #-0
    1750:	5b030000 	blpl	c1758 <_etext+0xbc99c>
    1754:	70000017 	andvc	r0, r0, r7, lsl r0
    1758:	31000017 	tstcc	r0, r7, lsl r0
    175c:	000004b3 			; <UNDEFINED> instruction: 0x000004b3
    1760:	00001770 	andeq	r1, r0, r0, ror r7
    1764:	00001832 	andeq	r1, r0, r2, lsr r8
    1768:	395c0100 	ldmdbcc	ip, {r8}^
    176c:	00000000 	andeq	r0, r0, r0
    1770:	0017471b 	andseq	r4, r7, fp, lsl r7
    1774:	03d73300 	bicseq	r3, r7, #0, 6
    1778:	96010000 	strls	r0, [r1], -r0
    177c:	32000017 	andcc	r0, r0, #23
    1780:	000004ef 	andeq	r0, r0, pc, ror #9
    1784:	00390c02 	eorseq	r0, r9, r2, lsl #24
    1788:	52320000 	eorspl	r0, r2, #0
    178c:	02000004 	andeq	r0, r0, #4
    1790:	0000390c 	andeq	r3, r0, ip, lsl #18
    1794:	85340000 	ldrhi	r0, [r4, #-0]!
    1798:	01000014 	tsteq	r0, r4, lsl r0
    179c:	17a6021f 			; <UNDEFINED> instruction: 0x17a6021f
    17a0:	17b90000 	ldrne	r0, [r9, r0]!
    17a4:	b3310000 	teqlt	r1, #0
    17a8:	70000004 	andvc	r0, r0, r4
    17ac:	31000017 	tstcc	r0, r7, lsl r0
    17b0:	00000afe 	strdeq	r0, [r0], -lr
    17b4:	000017b9 			; <UNDEFINED> instruction: 0x000017b9
    17b8:	00391b00 	eorseq	r1, r9, r0, lsl #22
    17bc:	96350000 	ldrtls	r0, [r5], -r0
    17c0:	c9000017 	stmdbgt	r0, {r0, r1, r2, r4}
    17c4:	00000005 	andeq	r0, r0, r5
    17c8:	14000000 	strne	r0, [r0], #-0
    17cc:	01000000 	mrseq	r0, (UNDEF: 0)
    17d0:	0017d99c 	mulseq	r7, ip, r9
    17d4:	0017ef00 	andseq	lr, r7, r0, lsl #30
    17d8:	17a63600 	strne	r3, [r6, r0, lsl #12]!
    17dc:	00000000 	andeq	r0, r0, r0
    17e0:	00370000 	eorseq	r0, r7, r0
    17e4:	38000000 	stmdacc	r0, {}	; <UNPREDICTABLE>
    17e8:	74025001 	strvc	r5, [r2], #-1
    17ec:	35000000 	strcc	r0, [r0, #-0]
    17f0:	00001796 	muleq	r0, r6, r7
    17f4:	00000129 	andeq	r0, r0, r9, lsr #2
    17f8:	00000000 	andeq	r0, r0, r0
    17fc:	00000012 	andeq	r0, r0, r2, lsl r0
    1800:	180a9c01 	stmdane	sl, {r0, sl, fp, ip, pc}
    1804:	18340000 	ldmdane	r4!, {}	; <UNPREDICTABLE>
    1808:	a6360000 	ldrtge	r0, [r6], -r0
    180c:	29000017 	stmdbcs	r0, {r0, r1, r2, r4}
    1810:	39000000 	stmdbcc	r0, {}	; <UNPREDICTABLE>
    1814:	00000000 	andeq	r0, r0, r0
    1818:	00001823 	andeq	r1, r0, r3, lsr #16
    181c:	02500138 	subseq	r0, r0, #56, 2
    1820:	3a000074 	bcc	19f8 <_dtoa_r+0xf8>
    1824:	00000000 	andeq	r0, r0, r0
    1828:	000019ac 	andeq	r1, r0, ip, lsr #19
    182c:	02500138 	subseq	r0, r0, #56, 2
    1830:	00000074 	andeq	r0, r0, r4, ror r0
    1834:	0014a730 	andseq	sl, r4, r0, lsr r7
    1838:	18420300 	stmdane	r2, {r8, r9}^
    183c:	18570000 	ldmdane	r7, {}^	; <UNPREDICTABLE>
    1840:	b3310000 	teqlt	r1, #0
    1844:	70000004 	andvc	r0, r0, r4
    1848:	32000017 	andcc	r0, r0, #23
    184c:	00000018 	andeq	r0, r0, r8, lsl r0
    1850:	00393201 	eorseq	r3, r9, r1, lsl #4
    1854:	3b000000 	blcc	185c <quorem+0x80>
    1858:	0000017d 	andeq	r0, r0, sp, ror r1
    185c:	00390502 	eorseq	r0, r9, r2, lsl #10
    1860:	01400000 	mrseq	r0, (UNDEF: 64)
    1864:	00280000 	eoreq	r0, r8, r0
    1868:	9c010000 	stcls	0, cr0, [r1], {-0}
    186c:	00001913 	andeq	r1, r0, r3, lsl r9
    1870:	00174d3c 	andseq	r4, r7, ip, lsr sp
    1874:	00014200 	andeq	r4, r1, r0, lsl #4
    1878:	00000000 	andeq	r0, r0, r0
    187c:	b8070200 	stmdalt	r7, {r9}
    1880:	3d000018 	stccc	0, cr0, [r0, #-96]	; 0xffffffa0
    1884:	00001764 	andeq	r1, r0, r4, ror #14
    1888:	175b3e01 	ldrbne	r3, [fp, -r1, lsl #28]
    188c:	03060000 	movweq	r0, #24576	; 0x6000
    1890:	1000016c 	andne	r0, r0, ip, ror #2
    1894:	18343f9f 	ldmdane	r4!, {r0, r1, r2, r3, r4, r7, r8, r9, sl, fp, ip, sp}
    1898:	01420000 	mrseq	r0, (UNDEF: 66)
    189c:	00000000 	andeq	r0, r0, r0
    18a0:	5d010000 	stcpl	0, cr0, [r1, #-0]
    18a4:	00184b3d 	andseq	r4, r8, sp, lsr fp
    18a8:	423e0100 	eorsmi	r0, lr, #0, 2
    18ac:	06000018 			; <UNDEFINED> instruction: 0x06000018
    18b0:	00016c03 	andeq	r6, r1, r3, lsl #24
    18b4:	00009f10 	andeq	r9, r0, r0, lsl pc
    18b8:	00174d3c 	andseq	r4, r7, ip, lsr sp
    18bc:	00015000 	andeq	r5, r1, r0
    18c0:	00001800 	andeq	r1, r0, r0, lsl #16
    18c4:	00090200 	andeq	r0, r9, r0, lsl #4
    18c8:	3d000019 	stccc	0, cr0, [r0, #-100]	; 0xffffff9c
    18cc:	00001764 	andeq	r1, r0, r4, ror #14
    18d0:	175b3e00 	ldrbne	r3, [fp, -r0, lsl #28]
    18d4:	03060000 	movweq	r0, #24576	; 0x6000
    18d8:	1000016c 	andne	r0, r0, ip, ror #2
    18dc:	18343f9f 	ldmdane	r4!, {r0, r1, r2, r3, r4, r7, r8, r9, sl, fp, ip, sp}
    18e0:	01500000 	cmpeq	r0, r0
    18e4:	00180000 	andseq	r0, r8, r0
    18e8:	5d010000 	stcpl	0, cr0, [r1, #-0]
    18ec:	00184b3d 	andseq	r4, r8, sp, lsr fp
    18f0:	423e0000 	eorsmi	r0, lr, #0
    18f4:	06000018 			; <UNDEFINED> instruction: 0x06000018
    18f8:	00016c03 	andeq	r6, r1, r3, lsl #24
    18fc:	00009f10 	andeq	r9, r0, r0, lsl pc
    1900:	00015040 	andeq	r5, r1, r0, asr #32
    1904:	0019bf00 	andseq	fp, r9, r0, lsl #30
    1908:	015c4000 	cmpeq	ip, r0
    190c:	19bf0000 	ldmibne	pc!, {}	; <UNPREDICTABLE>
    1910:	41000000 	mrsmi	r0, (UNDEF: 0)
    1914:	0000094d 	andeq	r0, r0, sp, asr #18
    1918:	00000000 	andeq	r0, r0, r0
    191c:	0000002c 	andeq	r0, r0, ip, lsr #32
    1920:	19819c01 	stmibne	r1, {r0, sl, fp, ip, pc}
    1924:	753f0000 	ldrvc	r0, [pc, #-0]!	; 192c <_dtoa_r+0x2c>
    1928:	00000017 	andeq	r0, r0, r7, lsl r0
    192c:	30000000 	andcc	r0, r0, r0
    1930:	02000000 	andeq	r0, r0, #0
    1934:	177f3d0c 	ldrbne	r3, [pc, -ip, lsl #26]!
    1938:	42010000 	andmi	r0, r1, #0
    193c:	0000178a 	andeq	r1, r0, sl, lsl #15
    1940:	0039ffff 	ldrshteq	pc, [r9], -pc	; <UNPREDICTABLE>
    1944:	60000000 	andvs	r0, r0, r0
    1948:	38000019 	stmdacc	r0, {r0, r3, r4}
    194c:	30015201 	andcc	r5, r1, r1, lsl #4
    1950:	05510138 	ldrbeq	r0, [r1, #-312]	; 0x138
    1954:	09c0320c 	stmibeq	r0, {r2, r3, r9, ip, sp}^
    1958:	50013820 	andpl	r3, r1, r0, lsr #16
    195c:	00007402 	andeq	r7, r0, r2, lsl #8
    1960:	00000043 	andeq	r0, r0, r3, asr #32
    1964:	0019d000 	andseq	sp, r9, r0
    1968:	52014400 	andpl	r4, r1, #0, 8
    196c:	05510138 	ldrbeq	r0, [r1, #-312]	; 0x138
    1970:	00000003 	andeq	r0, r0, r3
    1974:	50013800 	andpl	r3, r1, r0, lsl #16
    1978:	016c0305 	cmneq	ip, r5, lsl #6
    197c:	00001000 	andeq	r1, r0, r0
    1980:	059d4500 	ldreq	r4, [sp, #1280]	; 0x500
    1984:	8a0e0000 	bhi	38198c <_etext+0x37cbd0>
    1988:	00198d04 	andseq	r8, r9, r4, lsl #26
    198c:	09324600 	ldmdbeq	r2!, {r9, sl, lr}
    1990:	5c470000 	marpl	acc0, r0, r7
    1994:	02000009 	andeq	r0, r0, #9
    1998:	00145d03 	andseq	r5, r4, r3, lsl #26
    199c:	6c030500 	cfstr32vs	mvfx0, [r3], {-0}
    19a0:	48100001 	ldmdami	r0, {r0}
    19a4:	00000997 	muleq	r0, r7, r9
    19a8:	00000037 	andeq	r0, r0, r7, lsr r0
    19ac:	00067949 	andeq	r7, r6, r9, asr #18
    19b0:	00094600 	andeq	r4, r9, r0, lsl #12
    19b4:	0019bf00 	andseq	fp, r9, r0, lsl #30
    19b8:	00371400 	eorseq	r1, r7, r0, lsl #8
    19bc:	26000000 	strcs	r0, [r0], -r0
    19c0:	000005b6 			; <UNDEFINED> instruction: 0x000005b6
    19c4:	19d0270f 	ldmibne	r0, {r0, r1, r2, r3, r8, r9, sl, sp}^
    19c8:	24140000 	ldrcs	r0, [r4], #-0
    19cc:	00000009 	andeq	r0, r0, r9
    19d0:	0004014a 	andeq	r0, r4, sl, asr #2
    19d4:	00003900 	andeq	r3, r0, r0, lsl #18
    19d8:	0019ed00 	andseq	lr, r9, r0, lsl #26
    19dc:	00371400 	eorseq	r1, r7, r0, lsl #8
    19e0:	ed140000 	ldc	0, cr0, [r4, #-0]
    19e4:	14000019 	strne	r0, [r0], #-25
    19e8:	00000037 	andeq	r0, r0, r7, lsr r0
    19ec:	f3040f00 	vpmax.f32	d0, d4, d0
    19f0:	4b000019 	blmi	1a5c <_dtoa_r+0x15c>
    19f4:	00003714 	andeq	r3, r0, r4, lsl r7
    19f8:	Address 0x00000000000019f8 is out of bounds.


Disassembly of section .debug_abbrev:

00000000 <.debug_abbrev>:
   0:	25011101 	strcs	r1, [r1, #-257]	; 0x101
   4:	030b130e 	movweq	r1, #45838	; 0xb30e
   8:	550e1b0e 	strpl	r1, [lr, #-2830]	; 0xb0e
   c:	10011117 	andne	r1, r1, r7, lsl r1
  10:	02000017 	andeq	r0, r0, #23
  14:	0e030016 	mcreq	0, 0, r0, cr3, cr6, {0}
  18:	0b3b0b3a 	bleq	ec2d08 <_etext+0xebdf4c>
  1c:	00001349 	andeq	r1, r0, r9, asr #6
  20:	0b002403 	bleq	9034 <_etext+0x4278>
  24:	030b3e0b 	movweq	r3, #48651	; 0xbe0b
  28:	0400000e 	streq	r0, [r0], #-14
  2c:	0b0b000f 	bleq	2c0070 <_etext+0x2bb2b4>
  30:	24050000 	strcs	r0, [r5], #-0
  34:	3e0b0b00 	vmlacc.f64	d0, d11, d0
  38:	0008030b 	andeq	r0, r8, fp, lsl #6
  3c:	00160600 	andseq	r0, r6, r0, lsl #12
  40:	0b3a0e03 	bleq	e83854 <_etext+0xe7ea98>
  44:	1349053b 	movtne	r0, #38203	; 0x953b
  48:	13070000 	movwne	r0, #28672	; 0x7000
  4c:	3a0b0b01 	bcc	2c2c58 <_etext+0x2bde9c>
  50:	6e0b3b0b 	vmlavs.f64	d3, d11, d11
  54:	0013010e 	andseq	r0, r3, lr, lsl #2
  58:	01170800 	tsteq	r7, r0, lsl #16
  5c:	0b3a0b0b 	bleq	e82c90 <_etext+0xe7ded4>
  60:	13010b3b 	movwne	r0, #6971	; 0x1b3b
  64:	0d090000 	stceq	0, cr0, [r9, #-0]
  68:	3a0e0300 	bcc	380c70 <_etext+0x37beb4>
  6c:	490b3b0b 	stmdbmi	fp, {r0, r1, r3, r8, r9, fp, ip, sp}
  70:	0a000013 	beq	c4 <Heap_Size+0x44>
  74:	0e03000d 	cdpeq	0, 0, cr0, cr3, cr13, {0}
  78:	0b3b0b3a 	bleq	ec2d68 <_etext+0xebdfac>
  7c:	0b381349 	bleq	e04da8 <_etext+0xdfffec>
  80:	010b0000 	mrseq	r0, (UNDEF: 11)
  84:	01134901 	tsteq	r3, r1, lsl #18
  88:	0c000013 	stceq	0, cr0, [r0], {19}
  8c:	13490021 	movtne	r0, #36897	; 0x9021
  90:	00000b2f 	andeq	r0, r0, pc, lsr #22
  94:	0301130d 	movweq	r1, #4877	; 0x130d
  98:	3a0b0b0e 	bcc	2c2cd8 <_etext+0x2bdf1c>
  9c:	010b3b0b 	tsteq	fp, fp, lsl #22
  a0:	0e000013 	mcreq	0, 0, r0, cr0, cr3, {0}
  a4:	0803000d 	stmdaeq	r3, {r0, r2, r3}
  a8:	0b3b0b3a 	bleq	ec2d98 <_etext+0xebdfdc>
  ac:	0b381349 	bleq	e04dd8 <_etext+0xe0001c>
  b0:	0f0f0000 	svceq	0x000f0000
  b4:	490b0b00 	stmdbmi	fp, {r8, r9, fp}
  b8:	10000013 	andne	r0, r0, r3, lsl r0
  bc:	0e030113 	mcreq	1, 0, r0, cr3, cr3, {0}
  c0:	0b3a050b 	bleq	e814f4 <_etext+0xe7c738>
  c4:	13010b3b 	movwne	r0, #6971	; 0x1b3b
  c8:	0d110000 	ldceq	0, cr0, [r1, #-0]
  cc:	3a0e0300 	bcc	380cd4 <_etext+0x37bf18>
  d0:	490b3b0b 	stmdbmi	fp, {r0, r1, r3, r8, r9, fp, ip, sp}
  d4:	00053813 	andeq	r3, r5, r3, lsl r8
  d8:	00151200 	andseq	r1, r5, r0, lsl #4
  dc:	15130000 	ldrne	r0, [r3, #-0]
  e0:	01134901 	tsteq	r3, r1, lsl #18
  e4:	14000013 	strne	r0, [r0], #-19
  e8:	13490005 	movtne	r0, #36869	; 0x9005
  ec:	13150000 	tstne	r5, #0
  f0:	0b0e0301 	bleq	380cfc <_etext+0x37bf40>
  f4:	3b0b3a05 	blcc	2ce910 <_etext+0x2c9b54>
  f8:	00130105 	andseq	r0, r3, r5, lsl #2
  fc:	01171600 	tsteq	r7, r0, lsl #12
 100:	0b3a0b0b 	bleq	e82d34 <_etext+0xe7df78>
 104:	1301053b 	movwne	r0, #5435	; 0x153b
 108:	13170000 	tstne	r7, #0
 10c:	3a0b0b01 	bcc	2c2d18 <_etext+0x2bdf5c>
 110:	01053b0b 	tsteq	r5, fp, lsl #22
 114:	18000013 	stmdane	r0, {r0, r1, r4}
 118:	0e03000d 	cdpeq	0, 0, cr0, cr3, cr13, {0}
 11c:	053b0b3a 	ldreq	r0, [fp, #-2874]!	; 0xb3a
 120:	0b381349 	bleq	e04e4c <_etext+0xe00090>
 124:	0d190000 	ldceq	0, cr0, [r9, #-0]
 128:	3a0e0300 	bcc	380d30 <_etext+0x37bf74>
 12c:	49053b0b 	stmdbmi	r5, {r0, r1, r3, r8, r9, fp, ip, sp}
 130:	1a000013 	bne	184 <SystemInit+0x1c>
 134:	0e03000d 	cdpeq	0, 0, cr0, cr3, cr13, {0}
 138:	053b0b3a 	ldreq	r0, [fp, #-2874]!	; 0xb3a
 13c:	05381349 	ldreq	r1, [r8, #-841]!	; 0x349
 140:	261b0000 	ldrcs	r0, [fp], -r0
 144:	00134900 	andseq	r4, r3, r0, lsl #18
 148:	01131c00 	tsteq	r3, r0, lsl #24
 14c:	0b0b0e03 	bleq	2c3960 <_etext+0x2beba4>
 150:	053b0b3a 	ldreq	r0, [fp, #-2874]!	; 0xb3a
 154:	00001301 	andeq	r1, r0, r1, lsl #6
 158:	0101151d 	tsteq	r1, sp, lsl r5
 15c:	1e000013 	mcrne	0, 0, r0, cr0, cr3, {0}
 160:	00000026 	andeq	r0, r0, r6, lsr #32
 164:	0301041f 	movweq	r0, #5151	; 0x141f
 168:	3a0b0b0e 	bcc	2c2da8 <_etext+0x2bdfec>
 16c:	010b3b0b 	tsteq	fp, fp, lsl #22
 170:	20000013 	andcs	r0, r0, r3, lsl r0
 174:	0e030028 	cdpeq	0, 0, cr0, cr3, cr8, {1}
 178:	00000d1c 	andeq	r0, r0, ip, lsl sp
 17c:	03002821 	movweq	r2, #2081	; 0x821
 180:	000d1c08 	andeq	r1, sp, r8, lsl #24
 184:	01392200 	teqeq	r9, r0, lsl #4
 188:	0b3a0803 	bleq	e8219c <_etext+0xe7d3e0>
 18c:	13010b3b 	movwne	r0, #6971	; 0x1b3b
 190:	08230000 	stmdaeq	r3!, {}	; <UNPREDICTABLE>
 194:	3b0b3a00 	blcc	2ce99c <_etext+0x2c9be0>
 198:	0013180b 	andseq	r1, r3, fp, lsl #16
 19c:	012e2400 	teqeq	lr, r0, lsl #8
 1a0:	0e03193f 	mcreq	9, 0, r1, cr3, cr15, {1}
 1a4:	0b3b0b3a 	bleq	ec2e94 <_etext+0xebe0d8>
 1a8:	193c1349 	ldmdbne	ip!, {r0, r3, r6, r8, r9, ip}
 1ac:	00001301 	andeq	r1, r0, r1, lsl #6
 1b0:	3f012e25 	svccc	0x00012e25
 1b4:	3a080319 	bcc	200e20 <_etext+0x1fc064>
 1b8:	490b3b0b 	stmdbmi	fp, {r0, r1, r3, r8, r9, fp, ip, sp}
 1bc:	01193c13 	tsteq	r9, r3, lsl ip
 1c0:	26000013 			; <UNDEFINED> instruction: 0x26000013
 1c4:	193f012e 	ldmdbne	pc!, {r1, r2, r3, r5, r8}	; <UNPREDICTABLE>
 1c8:	0b3a0e03 	bleq	e839dc <_etext+0xe7ec20>
 1cc:	193c0b3b 	ldmdbne	ip!, {r0, r1, r3, r4, r5, r8, r9, fp}
 1d0:	00001301 	andeq	r1, r0, r1, lsl #6
 1d4:	3f002e27 	svccc	0x00002e27
 1d8:	3a0e0319 	bcc	380e44 <_etext+0x37c088>
 1dc:	490b3b0b 	stmdbmi	fp, {r0, r1, r3, r8, r9, fp, ip, sp}
 1e0:	00193c13 	andseq	r3, r9, r3, lsl ip
 1e4:	01392800 	teqeq	r9, r0, lsl #16
 1e8:	0b3a0e03 	bleq	e839fc <_etext+0xe7ec40>
 1ec:	13010b3b 	movwne	r0, #6971	; 0x1b3b
 1f0:	02290000 	eoreq	r0, r9, #0
 1f4:	3c0e0301 	stccc	3, cr0, [lr], {1}
 1f8:	2a000019 	bcs	264 <EINT2_IRQHandler>
 1fc:	193f012e 	ldmdbne	pc!, {r1, r2, r3, r5, r8}	; <UNPREDICTABLE>
 200:	0b3a0e03 	bleq	e83a14 <_etext+0xe7ec58>
 204:	0e6e0b3b 	vmoveq.8	d14[5], r0
 208:	0b321349 	bleq	c84f34 <_etext+0xc80178>
 20c:	1364193c 	cmnne	r4, #60, 18	; 0xf0000
 210:	00001301 	andeq	r1, r0, r1, lsl #6
 214:	4900052b 	stmdbmi	r0, {r0, r1, r3, r5, r8, sl}
 218:	00193413 	andseq	r3, r9, r3, lsl r4
 21c:	012e2c00 	teqeq	lr, r0, lsl #24
 220:	0e03193f 	mcreq	9, 0, r1, cr3, cr15, {1}
 224:	0b4c1349 	bleq	1304f50 <_etext+0x1300194>
 228:	1934131d 	ldmdbne	r4!, {r0, r2, r3, r4, r8, r9, ip}
 22c:	193c0b32 	ldmdbne	ip!, {r1, r4, r5, r8, r9, fp}
 230:	13011364 	movwne	r1, #4964	; 0x1364
 234:	2e2d0000 	cdpcs	0, 2, cr0, cr13, cr0, {0}
 238:	03193f01 	tsteq	r9, #1, 30
 23c:	3b0b3a0e 	blcc	2cea7c <_etext+0x2c9cc0>
 240:	320e6e0b 	andcc	r6, lr, #11, 28	; 0xb0
 244:	64193c0b 	ldrvs	r3, [r9], #-3083	; 0xc0b
 248:	2e000013 	mcrcs	0, 0, r0, cr0, cr3, {0}
 24c:	0b3a003a 	bleq	e8033c <_etext+0xe7b580>
 250:	13180b3b 	tstne	r8, #60416	; 0xec00
 254:	102f0000 	eorne	r0, pc, r0
 258:	490b0b00 	stmdbmi	fp, {r8, r9, fp}
 25c:	30000013 	andcc	r0, r0, r3, lsl r0
 260:	1347012e 	movtne	r0, #28974	; 0x712e
 264:	13640b20 	cmnne	r4, #32, 22	; 0x8000
 268:	00001301 	andeq	r1, r0, r1, lsl #6
 26c:	03000531 	movweq	r0, #1329	; 0x531
 270:	3413490e 	ldrcc	r4, [r3], #-2318	; 0x90e
 274:	32000019 	andcc	r0, r0, #25
 278:	0e030005 	cdpeq	0, 0, cr0, cr3, cr5, {0}
 27c:	0b3b0b3a 	bleq	ec2f6c <_etext+0xebe1b0>
 280:	00001349 	andeq	r1, r0, r9, asr #6
 284:	03012e33 	movweq	r2, #7731	; 0x1e33
 288:	2019340e 	andscs	r3, r9, lr, lsl #8
 28c:	0013010b 	andseq	r0, r3, fp, lsl #2
 290:	012e3400 	teqeq	lr, r0, lsl #8
 294:	0b3a1347 	bleq	e84fb8 <_etext+0xe801fc>
 298:	0b200b3b 	bleq	802f8c <_etext+0x7fe1d0>
 29c:	13011364 	movwne	r1, #4964	; 0x1364
 2a0:	2e350000 	cdpcs	0, 3, cr0, cr5, cr0, {0}
 2a4:	6e133101 	mufvss	f3, f3, f1
 2a8:	1201110e 	andne	r1, r1, #-2147483645	; 0x80000003
 2ac:	64184006 	ldrvs	r4, [r8], #-6
 2b0:	19429713 	stmdbne	r2, {r0, r1, r4, r8, r9, sl, ip, pc}^
 2b4:	00001301 	andeq	r1, r0, r1, lsl #6
 2b8:	31000536 	tstcc	r0, r6, lsr r5
 2bc:	00170213 	andseq	r0, r7, r3, lsl r2
 2c0:	82893700 	addhi	r3, r9, #0, 14
 2c4:	01110101 	tsteq	r1, r1, lsl #2
 2c8:	8a380000 	bhi	e002d0 <_etext+0xdfb514>
 2cc:	02000182 	andeq	r0, r0, #-2147483616	; 0x80000020
 2d0:	18429118 	stmdane	r2, {r3, r4, r8, ip, pc}^
 2d4:	89390000 	ldmdbhi	r9!, {}	; <UNPREDICTABLE>
 2d8:	11010182 	smlabbne	r1, r2, r1, r0
 2dc:	00130101 	andseq	r0, r3, r1, lsl #2
 2e0:	82893a00 	addhi	r3, r9, #0, 20
 2e4:	01110101 	tsteq	r1, r1, lsl #2
 2e8:	00001331 	andeq	r1, r0, r1, lsr r3
 2ec:	3f012e3b 	svccc	0x00012e3b
 2f0:	3a0e0319 	bcc	380f5c <_etext+0x37c1a0>
 2f4:	490b3b0b 	stmdbmi	fp, {r0, r1, r3, r8, r9, fp, ip, sp}
 2f8:	12011113 	andne	r1, r1, #-1073741820	; 0xc0000004
 2fc:	97184006 	ldrls	r4, [r8, -r6]
 300:	13011942 	movwne	r1, #6466	; 0x1942
 304:	1d3c0000 	ldcne	0, cr0, [ip, #-0]
 308:	52133101 	andspl	r3, r3, #1073741824	; 0x40000000
 30c:	58175501 	ldmdapl	r7, {r0, r8, sl, ip, lr}
 310:	010b590b 	tsteq	fp, fp, lsl #18
 314:	3d000013 	stccc	0, cr0, [r0, #-76]	; 0xffffffb4
 318:	13310005 	teqne	r1, #5
 31c:	00000b1c 	andeq	r0, r0, ip, lsl fp
 320:	3100053e 	tstcc	r0, lr, lsr r5
 324:	00180213 	andseq	r0, r8, r3, lsl r2
 328:	011d3f00 	tsteq	sp, r0, lsl #30
 32c:	01521331 	cmpeq	r2, r1, lsr r3
 330:	0b581755 	bleq	160608c <_etext+0x16012d0>
 334:	00000b59 	andeq	r0, r0, r9, asr fp
 338:	01828940 	orreq	r8, r2, r0, asr #18
 33c:	31011100 	mrscc	r1, (UNDEF: 17)
 340:	41000013 	tstmi	r0, r3, lsl r0
 344:	0e03012e 	adfeqsp	f0, f3, #0.5
 348:	01111934 	tsteq	r1, r4, lsr r9
 34c:	18400612 	stmdane	r0, {r1, r4, r9, sl}^
 350:	01194297 			; <UNDEFINED> instruction: 0x01194297
 354:	42000013 	andmi	r0, r0, #19
 358:	13310005 	teqne	r1, #5
 35c:	0000051c 	andeq	r0, r0, ip, lsl r5
 360:	01828943 	orreq	r8, r2, r3, asr #18
 364:	95011101 	strls	r1, [r1, #-257]	; 0x101
 368:	13311942 	teqne	r1, #1081344	; 0x108000
 36c:	8a440000 	bhi	1100374 <_etext+0x10fb5b8>
 370:	02000182 	andeq	r0, r0, #-2147483616	; 0x80000020
 374:	45000018 	strmi	r0, [r0, #-24]
 378:	0e030034 	mcreq	0, 0, r0, cr3, cr4, {1}
 37c:	053b0b3a 	ldreq	r0, [fp, #-2874]!	; 0xb3a
 380:	193f1349 	ldmdbne	pc!, {r0, r3, r6, r8, r9, ip}	; <UNPREDICTABLE>
 384:	0000193c 	andeq	r1, r0, ip, lsr r9
 388:	49003546 	stmdbmi	r0, {r1, r2, r6, r8, sl, ip, sp}
 38c:	47000013 	smladmi	r0, r3, r0, r0
 390:	0e030034 	mcreq	0, 0, r0, cr3, cr4, {1}
 394:	0b3b0b3a 	bleq	ec3084 <_etext+0xebe2c8>
 398:	193f1349 	ldmdbne	pc!, {r0, r3, r6, r8, r9, ip}	; <UNPREDICTABLE>
 39c:	00001802 	andeq	r1, r0, r2, lsl #16
 3a0:	03003448 	movweq	r3, #1096	; 0x448
 3a4:	3f13490e 	svccc	0x0013490e
 3a8:	3c193419 	cfldrscc	mvf3, [r9], {25}
 3ac:	49000019 	stmdbmi	r0, {r0, r3, r4}
 3b0:	193f012e 	ldmdbne	pc!, {r1, r2, r3, r5, r8}	; <UNPREDICTABLE>
 3b4:	0e6e0e03 	cdpeq	14, 6, cr0, cr14, cr3, {0}
 3b8:	193c1934 	ldmdbne	ip!, {r2, r4, r5, r8, fp, ip}
 3bc:	00001301 	andeq	r1, r0, r1, lsl #6
 3c0:	3f012e4a 	svccc	0x00012e4a
 3c4:	490e0319 	stmdbmi	lr, {r0, r3, r4, r8, r9}
 3c8:	3c193413 	cfldrscc	mvf3, [r9], {19}
 3cc:	00130119 	andseq	r0, r3, r9, lsl r1
 3d0:	01154b00 	tsteq	r5, r0, lsl #22
 3d4:	Address 0x00000000000003d4 is out of bounds.


Disassembly of section .debug_loc:

00000000 <.debug_loc>:
	...
   8:	00500001 	subseq	r0, r0, r1
   c:	00000000 	andeq	r0, r0, r0
  10:	01000000 	mrseq	r0, (UNDEF: 0)
  14:	00005400 	andeq	r5, r0, r0, lsl #8
  18:	00000000 	andeq	r0, r0, r0
  1c:	00010000 	andeq	r0, r1, r0
  20:	00000050 	andeq	r0, r0, r0, asr r0
	...
  30:	50000100 	andpl	r0, r0, r0, lsl #2
	...
  3c:	00540001 	subseq	r0, r4, r1
  40:	00000000 	andeq	r0, r0, r0
  44:	Address 0x0000000000000044 is out of bounds.


Disassembly of section .debug_aranges:

00000000 <.debug_aranges>:
   0:	00000034 	andeq	r0, r0, r4, lsr r0
   4:	00000002 	andeq	r0, r0, r2
   8:	00040000 	andeq	r0, r4, r0
	...
  14:	00000014 	andeq	r0, r0, r4, lsl r0
  18:	00000000 	andeq	r0, r0, r0
  1c:	00000012 	andeq	r0, r0, r2, lsl r0
  20:	00000140 	andeq	r0, r0, r0, asr #2
  24:	00000028 	andeq	r0, r0, r8, lsr #32
  28:	00000000 	andeq	r0, r0, r0
  2c:	0000002c 	andeq	r0, r0, ip, lsr #32
	...

Disassembly of section .debug_ranges:

00000000 <.debug_ranges>:
   0:	00000142 	andeq	r0, r0, r2, asr #2
   4:	00000144 	andeq	r0, r0, r4, asr #2
   8:	00000146 	andeq	r0, r0, r6, asr #2
   c:	0000014c 	andeq	r0, r0, ip, asr #2
	...
  18:	00000150 	andeq	r0, r0, r0, asr r1
  1c:	00000154 	andeq	r0, r0, r4, asr r1
  20:	00000156 	andeq	r0, r0, r6, asr r1
  24:	00000158 	andeq	r0, r0, r8, asr r1
	...
  30:	00000001 	andeq	r0, r0, r1
  34:	00000001 	andeq	r0, r0, r1
  38:	00000001 	andeq	r0, r0, r1
  3c:	00000001 	andeq	r0, r0, r1
	...
  48:	00000001 	andeq	r0, r0, r1
  4c:	00000001 	andeq	r0, r0, r1
  50:	00000001 	andeq	r0, r0, r1
  54:	00000001 	andeq	r0, r0, r1
  58:	00000140 	andeq	r0, r0, r0, asr #2
  5c:	00000168 	andeq	r0, r0, r8, ror #2
  60:	00000001 	andeq	r0, r0, r1
  64:	00000001 	andeq	r0, r0, r1
	...

Disassembly of section .debug_line:

00000000 <.debug_line>:
   0:	0000033b 	andeq	r0, r0, fp, lsr r3
   4:	02a40002 	adceq	r0, r4, #2
   8:	01020000 	mrseq	r0, (UNDEF: 2)
   c:	000d0efb 	strdeq	r0, [sp], -fp
  10:	01010101 	tsteq	r1, r1, lsl #2
  14:	01000000 	mrseq	r0, (UNDEF: 0)
  18:	2e010000 	cdpcs	0, 0, cr0, cr1, cr0, {0}
  1c:	65626d2f 	strbvs	r6, [r2, #-3375]!	; 0xd2f
  20:	552f0064 	strpl	r0, [pc, #-100]!	; ffffffc4 <__StackTop+0xefff7fc4>
  24:	73726573 	cmnvc	r2, #482344960	; 0x1cc00000
  28:	6c73732f 	ldclvs	3, cr7, [r3], #-188	; 0xffffff44
  2c:	776f442f 	strbvc	r4, [pc, -pc, lsr #8]!
  30:	616f6c6e 	cmnvs	pc, lr, ror #24
  34:	672f7364 	strvs	r7, [pc, -r4, ror #6]!
  38:	612d6363 	teqvs	sp, r3, ror #6
  3c:	6e2d6d72 	mcrvs	13, 1, r6, cr13, cr2, {3}
  40:	2d656e6f 	stclcs	14, cr6, [r5, #-444]!	; 0xfffffe44
  44:	69626165 	stmdbvs	r2!, {r0, r2, r5, r6, r8, sp, lr}^
  48:	385f342d 	ldmdacc	pc, {r0, r2, r3, r5, sl, ip, sp}^	; <UNPREDICTABLE>
  4c:	3130322d 	teqcc	r0, sp, lsr #4
  50:	2f337134 	svccs	0x00337134
  54:	2f62696c 	svccs	0x0062696c
  58:	2f636367 	svccs	0x00636367
  5c:	2d6d7261 	sfmcs	f7, 2, [sp, #-388]!	; 0xfffffe7c
  60:	656e6f6e 	strbvs	r6, [lr, #-3950]!	; 0xf6e
  64:	6261652d 	rsbvs	r6, r1, #188743680	; 0xb400000
  68:	2e342f69 	cdpcs	15, 3, cr2, cr4, cr9, {3}
  6c:	2f342e38 	svccs	0x00342e38
  70:	6c636e69 	stclvs	14, cr6, [r3], #-420	; 0xfffffe5c
  74:	00656475 	rsbeq	r6, r5, r5, ror r4
  78:	6573552f 	ldrbvs	r5, [r3, #-1327]!	; 0x52f
  7c:	732f7372 	teqvc	pc, #-939524095	; 0xc8000001
  80:	442f6c73 	strtmi	r6, [pc], #-3187	; 88 <Heap_Size+0x8>
  84:	6c6e776f 	stclvs	7, cr7, [lr], #-444	; 0xfffffe44
  88:	7364616f 	cmnvc	r4, #-1073741797	; 0xc000001b
  8c:	6363672f 	cmnvs	r3, #12320768	; 0xbc0000
  90:	6d72612d 	ldfvse	f6, [r2, #-180]!	; 0xffffff4c
  94:	6e6f6e2d 	cdpvs	14, 6, cr6, cr15, cr13, {1}
  98:	61652d65 	cmnvs	r5, r5, ror #26
  9c:	342d6962 	strtcc	r6, [sp], #-2402	; 0x962
  a0:	322d385f 	eorcc	r3, sp, #6225920	; 0x5f0000
  a4:	71343130 	teqvc	r4, r0, lsr r1
  a8:	72612f33 	rsbvc	r2, r1, #51, 30	; 0xcc
  ac:	6f6e2d6d 	svcvs	0x006e2d6d
  b0:	652d656e 	strvs	r6, [sp, #-1390]!	; 0x56e
  b4:	2f696261 	svccs	0x00696261
  b8:	6c636e69 	stclvs	14, cr6, [r3], #-420	; 0xfffffe5c
  bc:	2f656475 	svccs	0x00656475
  c0:	6863616d 	stmdavs	r3!, {r0, r2, r3, r5, r6, r8, sp, lr}^
  c4:	00656e69 	rsbeq	r6, r5, r9, ror #28
  c8:	6573552f 	ldrbvs	r5, [r3, #-1327]!	; 0x52f
  cc:	732f7372 	teqvc	pc, #-939524095	; 0xc8000001
  d0:	442f6c73 	strtmi	r6, [pc], #-3187	; d8 <_mainCRTStartup+0xc>
  d4:	6c6e776f 	stclvs	7, cr7, [lr], #-444	; 0xfffffe44
  d8:	7364616f 	cmnvc	r4, #-1073741797	; 0xc000001b
  dc:	6363672f 	cmnvs	r3, #12320768	; 0xbc0000
  e0:	6d72612d 	ldfvse	f6, [r2, #-180]!	; 0xffffff4c
  e4:	6e6f6e2d 	cdpvs	14, 6, cr6, cr15, cr13, {1}
  e8:	61652d65 	cmnvs	r5, r5, ror #26
  ec:	342d6962 	strtcc	r6, [sp], #-2402	; 0x962
  f0:	322d385f 	eorcc	r3, sp, #6225920	; 0x5f0000
  f4:	71343130 	teqvc	r4, r0, lsr r1
  f8:	72612f33 	rsbvc	r2, r1, #51, 30	; 0xcc
  fc:	6f6e2d6d 	svcvs	0x006e2d6d
 100:	652d656e 	strvs	r6, [sp, #-1390]!	; 0x56e
 104:	2f696261 	svccs	0x00696261
 108:	6c636e69 	stclvs	14, cr6, [r3], #-420	; 0xfffffe5c
 10c:	2f656475 	svccs	0x00656475
 110:	00737973 	rsbseq	r7, r3, r3, ror r9
 114:	6573552f 	ldrbvs	r5, [r3, #-1327]!	; 0x52f
 118:	732f7372 	teqvc	pc, #-939524095	; 0xc8000001
 11c:	442f6c73 	strtmi	r6, [pc], #-3187	; 124 <_mainCRTStartup+0x58>
 120:	6c6e776f 	stclvs	7, cr7, [lr], #-444	; 0xfffffe44
 124:	7364616f 	cmnvc	r4, #-1073741797	; 0xc000001b
 128:	6363672f 	cmnvs	r3, #12320768	; 0xbc0000
 12c:	6d72612d 	ldfvse	f6, [r2, #-180]!	; 0xffffff4c
 130:	6e6f6e2d 	cdpvs	14, 6, cr6, cr15, cr13, {1}
 134:	61652d65 	cmnvs	r5, r5, ror #26
 138:	342d6962 	strtcc	r6, [sp], #-2402	; 0x962
 13c:	322d385f 	eorcc	r3, sp, #6225920	; 0x5f0000
 140:	71343130 	teqvc	r4, r0, lsr r1
 144:	72612f33 	rsbvc	r2, r1, #51, 30	; 0xcc
 148:	6f6e2d6d 	svcvs	0x006e2d6d
 14c:	652d656e 	strvs	r6, [sp, #-1390]!	; 0x56e
 150:	2f696261 	svccs	0x00696261
 154:	6c636e69 	stclvs	14, cr6, [r3], #-420	; 0xfffffe5c
 158:	00656475 	rsbeq	r6, r5, r5, ror r4
 15c:	6573552f 	ldrbvs	r5, [r3, #-1327]!	; 0x52f
 160:	732f7372 	teqvc	pc, #-939524095	; 0xc8000001
 164:	442f6c73 	strtmi	r6, [pc], #-3187	; 16c <SystemInit+0x4>
 168:	6c6e776f 	stclvs	7, cr7, [lr], #-444	; 0xfffffe44
 16c:	7364616f 	cmnvc	r4, #-1073741797	; 0xc000001b
 170:	6363672f 	cmnvs	r3, #12320768	; 0xbc0000
 174:	6d72612d 	ldfvse	f6, [r2, #-180]!	; 0xffffff4c
 178:	6e6f6e2d 	cdpvs	14, 6, cr6, cr15, cr13, {1}
 17c:	61652d65 	cmnvs	r5, r5, ror #26
 180:	342d6962 	strtcc	r6, [sp], #-2402	; 0x962
 184:	322d385f 	eorcc	r3, sp, #6225920	; 0x5f0000
 188:	71343130 	teqvc	r4, r0, lsr r1
 18c:	72612f33 	rsbvc	r2, r1, #51, 30	; 0xcc
 190:	6f6e2d6d 	svcvs	0x006e2d6d
 194:	652d656e 	strvs	r6, [sp, #-1390]!	; 0x56e
 198:	2f696261 	svccs	0x00696261
 19c:	6c636e69 	stclvs	14, cr6, [r3], #-420	; 0xfffffe5c
 1a0:	2f656475 	svccs	0x00656475
 1a4:	2f2b2b63 	svccs	0x002b2b63
 1a8:	2e382e34 	mrccs	14, 1, r2, cr8, cr4, {1}
 1ac:	2f2e0034 	svccs	0x002e0034
 1b0:	6465626d 	strbtvs	r6, [r5], #-621	; 0x26d
 1b4:	43504c2f 	cmpmi	r0, #12032	; 0x2f00
 1b8:	38363731 	ldmdacc	r6!, {r0, r4, r5, r8, r9, sl, ip, sp}
 1bc:	4343472f 	movtmi	r4, #14127	; 0x372f
 1c0:	4d52415f 	ldfmie	f4, [r2, #-380]	; 0xfffffe84
 1c4:	69440000 	stmdbvs	r4, {}^	; <UNPREDICTABLE>
 1c8:	61746967 	cmnvs	r4, r7, ror #18
 1cc:	74754f6c 	ldrbtvc	r4, [r5], #-3948	; 0xf6c
 1d0:	0100682e 	tsteq	r0, lr, lsr #16
 1d4:	616d0000 	cmnvs	sp, r0
 1d8:	632e6e69 	teqvs	lr, #1680	; 0x690
 1dc:	00007070 	andeq	r7, r0, r0, ror r0
 1e0:	74730000 	ldrbtvc	r0, [r3], #-0
 1e4:	66656464 	strbtvs	r6, [r5], -r4, ror #8
 1e8:	0200682e 	andeq	r6, r0, #3014656	; 0x2e0000
 1ec:	645f0000 	ldrbvs	r0, [pc], #-0	; 1f4 <Reset_Handler>
 1f0:	75616665 	strbvc	r6, [r1, #-1637]!	; 0x665
 1f4:	745f746c 	ldrbvc	r7, [pc], #-1132	; 1fc <.flash_to_ram_loop+0x2>
 1f8:	73657079 	cmnvc	r5, #121	; 0x79
 1fc:	0300682e 	movweq	r6, #2094	; 0x82e
 200:	6f6c0000 	svcvs	0x006c0000
 204:	682e6b63 	stmdavs	lr!, {r0, r1, r5, r6, r8, r9, fp, sp, lr}
 208:	00000400 	andeq	r0, r0, r0, lsl #8
 20c:	7079745f 	rsbsvc	r7, r9, pc, asr r4
 210:	682e7365 	stmdavs	lr!, {r0, r2, r5, r6, r8, r9, ip, sp, lr}
 214:	00000400 	andeq	r0, r0, r0, lsl #8
 218:	6e656572 	mcrvs	5, 3, r6, cr5, cr2, {3}
 21c:	00682e74 	rsbeq	r2, r8, r4, ror lr
 220:	73000004 	movwvc	r0, #4
 224:	6f696474 	svcvs	0x00696474
 228:	0500682e 	streq	r6, [r0, #-2094]	; 0x82e
 22c:	74730000 	ldrbtvc	r0, [r3], #-0
 230:	62696c64 	rsbvs	r6, r9, #100, 24	; 0x6400
 234:	0500682e 	streq	r6, [r0, #-2094]	; 0x82e
 238:	74730000 	ldrbtvc	r0, [r3], #-0
 23c:	746e6964 	strbtvc	r6, [lr], #-2404	; 0x964
 240:	0500682e 	streq	r6, [r0, #-2094]	; 0x82e
 244:	73630000 	cmnvc	r3, #0
 248:	696c6474 	stmdbvs	ip!, {r2, r4, r5, r6, sl, sp, lr}^
 24c:	00060062 	andeq	r0, r6, r2, rrx
 250:	74736300 	ldrbtvc	r6, [r3], #-768	; 0x300
 254:	006f6964 	rsbeq	r6, pc, r4, ror #18
 258:	6d000006 	stcvs	0, cr0, [r0, #-24]	; 0xffffffe8
 25c:	2e646562 	cdpcs	5, 6, cr6, cr4, cr2, {3}
 260:	00010068 	andeq	r0, r1, r8, rrx
 264:	726f6300 	rsbvc	r6, pc, #0, 6
 268:	6d635f65 	stclvs	15, cr5, [r3, #-404]!	; 0xfffffe6c
 26c:	00682e33 	rsbeq	r2, r8, r3, lsr lr
 270:	77000007 	strvc	r0, [r0, -r7]
 274:	5f746961 	svcpl	0x00746961
 278:	2e697061 	cdpcs	0, 6, cr7, cr9, cr1, {3}
 27c:	00010068 	andeq	r0, r1, r8, rrx
 280:	6e695000 	cdpvs	0, 6, cr5, cr9, cr0, {0}
 284:	656d614e 	strbvs	r6, [sp, #-334]!	; 0x14e
 288:	00682e73 	rsbeq	r2, r8, r3, ror lr
 28c:	3c000001 	stccc	0, cr0, [r0], {1}
 290:	6c697562 	cfstr64vs	mvdx7, [r9], #-392	; 0xfffffe78
 294:	6e692d74 	mcrvs	13, 3, r2, cr9, cr4, {3}
 298:	0000003e 	andeq	r0, r0, lr, lsr r0
 29c:	6c694600 	stclvs	6, cr4, [r9], #-0
 2a0:	6e614865 	cdpvs	8, 6, cr4, cr1, cr5, {3}
 2a4:	2e656c64 	cdpcs	12, 6, cr6, cr5, cr4, {3}
 2a8:	00010068 	andeq	r0, r1, r8, rrx
 2ac:	05000000 	streq	r0, [r0, #-0]
 2b0:	00000002 	andeq	r0, r0, r2
 2b4:	011e0300 	tsteq	lr, r0, lsl #6
 2b8:	00090220 	andeq	r0, r9, r0, lsr #4
 2bc:	05000101 	streq	r0, [r0, #-257]	; 0x101
 2c0:	00000002 	andeq	r0, r0, r2
 2c4:	011e0300 	tsteq	lr, r0, lsl #6
 2c8:	00080220 	andeq	r0, r8, r0, lsr #4
 2cc:	02040101 	andeq	r0, r4, #1073741824	; 0x40000000
 2d0:	40020500 	andmi	r0, r2, r0, lsl #10
 2d4:	16000001 	strne	r0, [r0], -r1
 2d8:	02000104 	andeq	r0, r0, #4, 2
 2dc:	32030104 	andcc	r0, r3, #4, 2
 2e0:	00020420 	andeq	r0, r2, r0, lsr #8
 2e4:	03010402 	movweq	r0, #5122	; 0x1402
 2e8:	01042051 	qaddeq	r2, r1, r4
 2ec:	01040200 	mrseq	r0, R12_usr
 2f0:	04202f03 	strteq	r2, [r0], #-3843	; 0xf03
 2f4:	04020002 	streq	r0, [r2], #-2
 2f8:	3c510301 	mrrccc	3, 0, r0, r1, cr1
 2fc:	02000104 	andeq	r0, r0, #4, 2
 300:	31030104 	tstcc	r3, r4, lsl #2
 304:	0002042e 	andeq	r0, r2, lr, lsr #8
 308:	03010402 	movweq	r0, #5122	; 0x1402
 30c:	01042e51 	tsteq	r4, r1, asr lr
 310:	01040200 	mrseq	r0, R12_usr
 314:	04202f03 	strteq	r2, [r0], #-3843	; 0xf03
 318:	04020002 	streq	r0, [r2], #-2
 31c:	20510301 	subscs	r0, r1, r1, lsl #6
 320:	01000802 	tsteq	r0, r2, lsl #16
 324:	00020401 	andeq	r0, r2, r1, lsl #8
 328:	00000205 	andeq	r0, r0, r5, lsl #4
 32c:	0b030000 	bleq	c0334 <_etext+0xbb578>
 330:	20770301 	rsbscs	r0, r7, r1, lsl #6
 334:	03900903 	orrseq	r0, r0, #49152	; 0xc000
 338:	0a022e77 	beq	8bd1c <_etext+0x86f60>
 33c:	Address 0x000000000000033c is out of bounds.


Disassembly of section .debug_str:

00000000 <.debug_str>:
   0:	74656766 	strbtvc	r6, [r5], #-1894	; 0x766
   4:	69730063 	ldmdbvs	r3!, {r0, r1, r5, r6}^
   8:	745f657a 	ldrbvc	r6, [pc], #-1402	; 10 <__isr_vector+0x10>
   c:	7a697300 	bvc	1a5cc14 <_etext+0x1a57e58>
  10:	70797465 	rsbsvc	r7, r9, r5, ror #8
  14:	5f5f0065 	svcpl	0x005f0065
  18:	756c6176 	strbvc	r6, [ip, #-374]!	; 0x176
  1c:	33500065 	cmpcc	r0, #101	; 0x65
  20:	5f00375f 	svcpl	0x0000375f
  24:	0066735f 	rsbeq	r7, r6, pc, asr r3
  28:	344e5a5f 	strbcc	r5, [lr], #-2655	; 0xa5f
  2c:	6465626d 	strbtvs	r6, [r5], #-621	; 0x26d
  30:	69443031 	stmdbvs	r4, {r0, r4, r5, ip, sp}^
  34:	61746967 	cmnvs	r4, r7, ror #18
  38:	74754f6c 	ldrbtvc	r4, [r5], #-3948	; 0xf6c
  3c:	69727735 	ldmdbvs	r2!, {r0, r2, r4, r5, r8, r9, sl, ip, sp, lr}^
  40:	69456574 	stmdbvs	r5, {r2, r4, r5, r6, r8, sl, sp, lr}^
  44:	65725f00 	ldrbvs	r5, [r2, #-3840]!	; 0xf00
  48:	5f006461 	svcpl	0x00006461
  4c:	74697277 	strbtvc	r7, [r9], #-631	; 0x277
  50:	31500065 	cmpcc	r0, r5, rrx
  54:	0034315f 	eorseq	r3, r4, pc, asr r1
  58:	6373615f 	cmnvs	r3, #-1073741801	; 0xc0000017
  5c:	656d6974 	strbvs	r6, [sp, #-2420]!	; 0x974
  60:	6675625f 			; <UNDEFINED> instruction: 0x6675625f
  64:	76635f00 	strbtvc	r5, [r3], -r0, lsl #30
  68:	6e656c74 	mcrvs	12, 3, r6, cr5, cr4, {3}
  6c:	73626d00 	cmnvc	r2, #0, 26
  70:	63776f74 	cmnvs	r7, #116, 30	; 0x1d0
  74:	755f0073 	ldrbvc	r0, [pc, #-115]	; 9 <__isr_vector+0x9>
  78:	6573756e 	ldrbvs	r7, [r3, #-1390]!	; 0x56e
  7c:	5f5f0064 	svcpl	0x005f0064
  80:	5f006d74 	svcpl	0x00006d74
  84:	72736377 	rsbsvc	r6, r3, #-603979775	; 0xdc000001
  88:	626d6f74 	rsbvs	r6, sp, #116, 30	; 0x1d0
  8c:	74735f73 	ldrbtvc	r5, [r3], #-3955	; 0xf73
  90:	00657461 	rsbeq	r7, r5, r1, ror #8
  94:	75626e5f 	strbvc	r6, [r2, #-3679]!	; 0xe5f
  98:	5f5f0066 	svcpl	0x005f0066
  9c:	735f6d74 	cmpvc	pc, #116, 26	; 0x1d00
  a0:	5f006365 	svcpl	0x00006365
  a4:	6134366c 	teqvs	r4, ip, ror #12
  a8:	6675625f 			; <UNDEFINED> instruction: 0x6675625f
  ac:	6f746100 	svcvs	0x00746100
  b0:	6d740069 	ldclvs	0, cr0, [r4, #-420]!	; 0xfffffe5c
  b4:	6d616e70 	stclvs	14, cr6, [r1, #-448]!	; 0xfffffe40
  b8:	69735f00 	ldmdbvs	r3!, {r8, r9, sl, fp, ip, lr}^
  bc:	5f00657a 	svcpl	0x0000657a
  c0:	6b636f6c 	blvs	18dbe78 <_etext+0x18d70bc>
  c4:	5f345000 	svcpl	0x00345000
  c8:	6d5f0030 	ldclvs	0, cr0, [pc, #-192]	; 10 <__isr_vector+0x10>
  cc:	00746c75 	rsbseq	r6, r4, r5, ror ip
  d0:	345f3450 	ldrbcc	r3, [pc], #-1104	; d8 <_mainCRTStartup+0xc>
  d4:	5f345000 	svcpl	0x00345000
  d8:	34500035 	ldrbcc	r0, [r0], #-53	; 0x35
  dc:	5000365f 	andpl	r3, r0, pc, asr r6
  e0:	00375f34 	eorseq	r5, r7, r4, lsr pc
  e4:	385f3450 	ldmdacc	pc, {r4, r6, sl, ip, sp}^	; <UNPREDICTABLE>
  e8:	5f345000 	svcpl	0x00345000
  ec:	31500039 	cmpcc	r0, r9, lsr r0
  f0:	0035325f 	eorseq	r3, r5, pc, asr r2
  f4:	74656766 	strbtvc	r6, [r5], #-1894	; 0x766
  f8:	00736f70 	rsbseq	r6, r3, r0, ror pc
  fc:	61656c63 	cmnvs	r5, r3, ror #24
 100:	72726572 	rsbsvc	r6, r2, #478150656	; 0x1c800000
 104:	775f5f00 	ldrbvc	r5, [pc, -r0, lsl #30]
 108:	5f006863 	svcpl	0x00006863
 10c:	656c6966 	strbvs	r6, [ip, #-2406]!	; 0x966
 110:	6f746100 	svcvs	0x00746100
 114:	6f5f0066 	svcvs	0x005f0066
 118:	78655f6e 	stmdavc	r5!, {r1, r2, r3, r5, r6, r8, r9, sl, fp, ip, lr}^
 11c:	615f7469 	cmpvs	pc, r9, ror #8
 120:	00736772 	rsbseq	r6, r3, r2, ror r7
 124:	6c6f7461 	cfstrdvs	mvd7, [pc], #-388	; ffffffa8 <__StackTop+0xefff7fa8>
 128:	4e5a5f00 	cdpmi	15, 5, cr5, cr10, cr0, {0}
 12c:	65626d34 	strbvs	r6, [r2, #-3380]!	; 0xd34
 130:	44303164 	ldrtmi	r3, [r0], #-356	; 0x164
 134:	74696769 	strbtvc	r6, [r9], #-1897	; 0x769
 138:	754f6c61 	strbvc	r6, [pc, #-3169]	; fffff4df <__StackTop+0xefff74df>
 13c:	45304474 	ldrmi	r4, [r0, #-1140]!	; 0x474
 140:	6d5f0076 	ldclvs	0, cr0, [pc, #-472]	; ffffff70 <__StackTop+0xefff7f70>
 144:	656c7262 	strbvs	r7, [ip, #-610]!	; 0x262
 148:	74735f6e 	ldrbtvc	r5, [r3], #-3950	; 0xf6e
 14c:	00657461 	rsbeq	r7, r5, r1, ror #8
 150:	7365725f 	cmnvc	r5, #-268435451	; 0xf0000005
 154:	5f746c75 	svcpl	0x00746c75
 158:	3031006b 	eorscc	r0, r1, fp, rrx
 15c:	73626d5f 	cmnvc	r2, #6080	; 0x17c0
 160:	65746174 	ldrbvs	r6, [r4, #-372]!	; 0x174
 164:	5f00745f 	svcpl	0x0000745f
 168:	61636f6c 	cmnvs	r3, ip, ror #30
 16c:	6d69746c 	cfstrdvs	mvd7, [r9, #-432]!	; 0xfffffe50
 170:	75625f65 	strbvc	r5, [r2, #-3941]!	; 0xf65
 174:	63770066 	cmnvs	r7, #102	; 0x66
 178:	626d6f74 	rsbvs	r6, sp, #116, 30	; 0x1d0
 17c:	69616d00 	stmdbvs	r1!, {r8, sl, fp, sp, lr}^
 180:	5f5f006e 	svcpl	0x005f006e
 184:	6d5f6d74 	ldclvs	13, cr6, [pc, #-464]	; ffffffbc <__StackTop+0xefff7fbc>
 188:	50006e6f 	andpl	r6, r0, pc, ror #28
 18c:	30315f30 	eorscc	r5, r1, r0, lsr pc
 190:	5f305000 	svcpl	0x00305000
 194:	5f003131 	svcpl	0x00003131
 198:	72727563 	rsbsvc	r7, r2, #415236096	; 0x18c00000
 19c:	5f746e65 	svcpl	0x00746e65
 1a0:	65746163 	ldrbvs	r6, [r4, #-355]!	; 0x163
 1a4:	79726f67 	ldmdbvc	r2!, {r0, r1, r2, r5, r6, r8, r9, sl, fp, sp, lr}^
 1a8:	5f305000 	svcpl	0x00305000
 1ac:	50003331 	andpl	r3, r0, r1, lsr r3
 1b0:	34315f30 	ldrtcc	r5, [r1], #-3888	; 0xf30
 1b4:	5f305000 	svcpl	0x00305000
 1b8:	50003531 	andpl	r3, r0, r1, lsr r5
 1bc:	36315f30 	shasxcc	r5, r1, r0
 1c0:	5f305000 	svcpl	0x00305000
 1c4:	50003731 	andpl	r3, r0, r1, lsr r7
 1c8:	38315f30 	ldmdacc	r1!, {r4, r5, r8, r9, sl, fp, ip, lr}
 1cc:	5f305000 	svcpl	0x00305000
 1d0:	6d003931 	stcvs	9, cr3, [r0, #-196]	; 0xffffff3c
 1d4:	2e6e6961 	cdpcs	9, 6, cr6, cr14, cr1, {3}
 1d8:	00707063 	rsbseq	r7, r0, r3, rrx
 1dc:	756e755f 	strbvc	r7, [lr, #-1375]!	; 0x55f
 1e0:	5f646573 	svcpl	0x00646573
 1e4:	646e6172 	strbtvs	r6, [lr], #-370	; 0x172
 1e8:	5f325000 	svcpl	0x00325000
 1ec:	50003031 	andpl	r3, r0, r1, lsr r0
 1f0:	31315f32 	teqcc	r1, r2, lsr pc
 1f4:	5f325000 	svcpl	0x00325000
 1f8:	50003231 	andpl	r3, r0, r1, lsr r2
 1fc:	33315f32 	teqcc	r1, #50, 30	; 0xc8
 200:	5f325000 	svcpl	0x00325000
 204:	50003431 	andpl	r3, r0, r1, lsr r4
 208:	35315f32 	ldrcc	r5, [r1, #-3890]!	; 0xf32
 20c:	5f325000 	svcpl	0x00325000
 210:	50003631 	andpl	r3, r0, r1, lsr r6
 214:	37315f32 			; <UNDEFINED> instruction: 0x37315f32
 218:	5f325000 	svcpl	0x00325000
 21c:	50003831 	andpl	r3, r0, r1, lsr r8
 220:	39315f32 	ldmdbcc	r1!, {r1, r4, r5, r8, r9, sl, fp, ip, lr}
 224:	6d657200 	sfmvs	f7, 2, [r5, #-0]
 228:	0065766f 	rsbeq	r7, r5, pc, ror #12
 22c:	74737973 	ldrbtvc	r7, [r3], #-2419	; 0x973
 230:	6f006d65 	svcvs	0x00006d65
 234:	61726570 	cmnvs	r2, r0, ror r5
 238:	3d726f74 	ldclcc	15, cr6, [r2, #-464]!	; 0xfffffe30
 23c:	5f345000 	svcpl	0x00345000
 240:	50003031 	andpl	r3, r0, r1, lsr r0
 244:	31315f34 	teqcc	r1, r4, lsr pc
 248:	5f345000 	svcpl	0x00345000
 24c:	50003231 	andpl	r3, r0, r1, lsr r2
 250:	33315f34 	teqcc	r1, #52, 30	; 0xd0
 254:	5f345000 	svcpl	0x00345000
 258:	50003431 	andpl	r3, r0, r1, lsr r4
 25c:	35315f34 	ldrcc	r5, [r1, #-3892]!	; 0xf34
 260:	5f345000 	svcpl	0x00345000
 264:	50003631 	andpl	r3, r0, r1, lsr r6
 268:	37315f34 			; <UNDEFINED> instruction: 0x37315f34
 26c:	5f345000 	svcpl	0x00345000
 270:	50003831 	andpl	r3, r0, r1, lsr r8
 274:	39315f34 	ldmdbcc	r1!, {r2, r4, r5, r8, r9, sl, fp, ip, lr}
 278:	736e7500 	cmnvc	lr, #0, 10
 27c:	656e6769 	strbvs	r6, [lr, #-1897]!	; 0x769
 280:	68632064 	stmdavs	r3!, {r2, r5, r6, sp}^
 284:	50007261 	andpl	r7, r0, r1, ror #4
 288:	30325f30 	eorscc	r5, r2, r0, lsr pc
 28c:	5f305000 	svcpl	0x00305000
 290:	50003132 	andpl	r3, r0, r2, lsr r1
 294:	32325f30 	eorscc	r5, r2, #48, 30	; 0xc0
 298:	5f305000 	svcpl	0x00305000
 29c:	50003332 	andpl	r3, r0, r2, lsr r3
 2a0:	34325f30 	ldrtcc	r5, [r2], #-3888	; 0xf30
 2a4:	5f305000 	svcpl	0x00305000
 2a8:	50003532 	andpl	r3, r0, r2, lsr r5
 2ac:	36325f30 	shasxcc	r5, r2, r0
 2b0:	5f305000 	svcpl	0x00305000
 2b4:	50003732 	andpl	r3, r0, r2, lsr r7
 2b8:	38325f30 	ldmdacc	r2!, {r4, r5, r8, r9, sl, fp, ip, lr}
 2bc:	5f305000 	svcpl	0x00305000
 2c0:	50003932 	andpl	r3, r0, r2, lsr r9
 2c4:	614e6e69 	cmpvs	lr, r9, ror #28
 2c8:	6d00656d 	cfstr32vs	mvfx6, [r0, #-436]	; 0xfffffe4c
 2cc:	00646562 	rsbeq	r6, r4, r2, ror #10
 2d0:	6f6c6366 	svcvs	0x006c6366
 2d4:	50006573 	andpl	r6, r0, r3, ror r5
 2d8:	30325f32 	eorscc	r5, r2, r2, lsr pc
 2dc:	5f325000 	svcpl	0x00325000
 2e0:	50003132 	andpl	r3, r0, r2, lsr r1
 2e4:	32325f32 	eorscc	r5, r2, #50, 30	; 0xc8
 2e8:	5f325000 	svcpl	0x00325000
 2ec:	50003332 	andpl	r3, r0, r2, lsr r3
 2f0:	34325f32 	ldrtcc	r5, [r2], #-3890	; 0xf32
 2f4:	5f325000 	svcpl	0x00325000
 2f8:	50003532 	andpl	r3, r0, r2, lsr r5
 2fc:	36325f32 	shasxcc	r5, r2, r2
 300:	5f325000 	svcpl	0x00325000
 304:	50003732 	andpl	r3, r0, r2, lsr r7
 308:	38325f32 	ldmdacc	r2!, {r1, r4, r5, r8, r9, sl, fp, ip, lr}
 30c:	5f325000 	svcpl	0x00325000
 310:	5f003932 	svcpl	0x00003932
 314:	6e656572 	mcrvs	5, 3, r6, cr5, cr2, {3}
 318:	34500074 	ldrbcc	r0, [r0], #-116	; 0x74
 31c:	0030325f 	eorseq	r3, r0, pc, asr r2
 320:	325f3450 	subscc	r3, pc, #80, 8	; 0x50000000
 324:	34500031 	ldrbcc	r0, [r0], #-49	; 0x31
 328:	0032325f 	eorseq	r3, r2, pc, asr r2
 32c:	325f3450 	subscc	r3, pc, #80, 8	; 0x50000000
 330:	34500033 	ldrbcc	r0, [r0], #-51	; 0x33
 334:	0034325f 	eorseq	r3, r4, pc, asr r2
 338:	325f3450 	subscc	r3, pc, #80, 8	; 0x50000000
 33c:	34500035 	ldrbcc	r0, [r0], #-53	; 0x35
 340:	0036325f 	eorseq	r3, r6, pc, asr r2
 344:	325f3450 	subscc	r3, pc, #80, 8	; 0x50000000
 348:	34500037 	ldrbcc	r0, [r0], #-55	; 0x37
 34c:	0038325f 	eorseq	r3, r8, pc, asr r2
 350:	325f3450 	subscc	r3, pc, #80, 8	; 0x50000000
 354:	30500039 	subscc	r0, r0, r9, lsr r0
 358:	0030335f 	eorseq	r3, r0, pc, asr r3
 35c:	335f3050 	cmpcc	pc, #80	; 0x50
 360:	665f0031 			; <UNDEFINED> instruction: 0x665f0031
 364:	5000736e 	andpl	r7, r0, lr, ror #6
 368:	31335f32 	teqcc	r3, r2, lsr pc
 36c:	69646c00 	stmdbvs	r4!, {sl, fp, sp, lr}^
 370:	635f0076 	cmpvs	pc, #118	; 0x76
 374:	65736f6c 	ldrbvs	r6, [r3, #-3948]!	; 0xf6c
 378:	5f345000 	svcpl	0x00345000
 37c:	50003033 	andpl	r3, r0, r3, lsr r0
 380:	31335f34 	teqcc	r3, r4, lsr pc
 384:	5f305000 	svcpl	0x00305000
 388:	30500030 	subscc	r0, r0, r0, lsr r0
 38c:	5000315f 	andpl	r3, r0, pc, asr r1
 390:	00325f30 	eorseq	r5, r2, r0, lsr pc
 394:	335f3050 	cmpcc	pc, #80	; 0x50
 398:	5f305000 	svcpl	0x00305000
 39c:	30500034 	subscc	r0, r0, r4, lsr r0
 3a0:	5000355f 	andpl	r3, r0, pc, asr r5
 3a4:	00365f30 	eorseq	r5, r6, r0, lsr pc
 3a8:	375f3050 			; <UNDEFINED> instruction: 0x375f3050
 3ac:	5f305000 	svcpl	0x00305000
 3b0:	30500038 	subscc	r0, r0, r8, lsr r0
 3b4:	5f00395f 	svcpl	0x0000395f
 3b8:	69647473 	stmdbvs	r4!, {r0, r1, r4, r5, r6, sl, ip, sp, lr}^
 3bc:	6435006e 	ldrtvs	r0, [r5], #-110	; 0x6e
 3c0:	745f7669 	ldrbvc	r7, [pc], #-1641	; 3c8 <wait_us+0xc>
 3c4:	65746600 	ldrbvs	r6, [r4, #-1536]!	; 0x600
 3c8:	50006c6c 	andpl	r6, r0, ip, ror #24
 3cc:	30335f32 	eorscc	r5, r3, r2, lsr pc
 3d0:	6c626d00 	stclvs	13, cr6, [r2], #-0
 3d4:	5f006e65 	svcpl	0x00006e65
 3d8:	6174735f 	cmnvs	r4, pc, asr r3
 3dc:	5f636974 	svcpl	0x00636974
 3e0:	74696e69 	strbtvc	r6, [r9], #-3689	; 0xe69
 3e4:	696c6169 	stmdbvs	ip!, {r0, r3, r5, r6, r8, sp, lr}^
 3e8:	6974617a 	ldmdbvs	r4!, {r1, r3, r4, r5, r6, r8, sp, lr}^
 3ec:	615f6e6f 	cmpvs	pc, pc, ror #28
 3f0:	645f646e 	ldrbvs	r6, [pc], #-1134	; 3f8 <wait+0x18>
 3f4:	72747365 	rsbsvc	r7, r4, #-1811939327	; 0x94000001
 3f8:	69746375 	ldmdbvs	r4!, {r0, r2, r4, r5, r6, r8, r9, sp, lr}^
 3fc:	305f6e6f 	subscc	r6, pc, pc, ror #28
 400:	615f5f00 	cmpvs	pc, r0, lsl #30
 404:	69626165 	stmdbvs	r2!, {r0, r2, r5, r6, r8, sp, lr}^
 408:	6574615f 	ldrbvs	r6, [r4, #-351]!	; 0x15f
 40c:	00746978 	rsbseq	r6, r4, r8, ror r9
 410:	74727473 	ldrbtvc	r7, [r2], #-1139	; 0x473
 414:	006c756f 	rsbeq	r7, ip, pc, ror #10
 418:	52425355 	subpl	r5, r2, #1409286145	; 0x54000001
 41c:	635f0058 	cmpvs	pc, #88	; 0x58
 420:	696b6f6f 	stmdbvs	fp!, {r0, r1, r2, r3, r5, r6, r8, r9, sl, fp, sp, lr}^
 424:	775f0065 	ldrbvc	r0, [pc, -r5, rrx]
 428:	5f007364 	svcpl	0x00007364
 42c:	5f676973 	svcpl	0x00676973
 430:	636e7566 	cmnvs	lr, #427819008	; 0x19800000
 434:	666f5f00 	strbtvs	r5, [pc], -r0, lsl #30
 438:	74657366 	strbtvc	r7, [r5], #-870	; 0x366
 43c:	76635f00 	strbtvc	r5, [r3], -r0, lsl #30
 440:	66756274 			; <UNDEFINED> instruction: 0x66756274
 444:	5f335000 	svcpl	0x00335000
 448:	67003132 	smladxvs	r0, r2, r1, r3
 44c:	6e657465 	cdpvs	4, 6, cr7, cr5, cr5, {3}
 450:	5f5f0076 	svcpl	0x005f0076
 454:	6f697270 	svcvs	0x00697270
 458:	79746972 	ldmdbvc	r4!, {r1, r4, r5, r6, r8, fp, sp, lr}^
 45c:	35705f00 	ldrbcc	r5, [r0, #-3840]!	; 0xf00
 460:	34500073 	ldrbcc	r0, [r0], #-115	; 0x73
 464:	5000315f 	andpl	r3, r0, pc, asr r1
 468:	00325f34 	eorseq	r5, r2, r4, lsr pc
 46c:	335f3450 	cmpcc	pc, #80, 8	; 0x50000000
 470:	735f5f00 	cmpvc	pc, #0, 30
 474:	454c4946 	strbmi	r4, [ip, #-2374]	; 0x946
 478:	735f5f00 	cmpvc	pc, #0, 30
 47c:	69646964 	stmdbvs	r4!, {r2, r5, r6, r8, fp, sp, lr}^
 480:	0074696e 	rsbseq	r6, r4, lr, ror #18
 484:	616c665f 	cmnvs	ip, pc, asr r6
 488:	00327367 	eorseq	r7, r2, r7, ror #6
 48c:	54425355 	strbpl	r5, [r2], #-853	; 0x355
 490:	6c360058 	ldcvs	0, cr0, [r6], #-352	; 0xfffffea0
 494:	5f766964 	svcpl	0x00766964
 498:	65660074 	strbvs	r0, [r6, #-116]!	; 0x74
 49c:	726f7272 	rsbvc	r7, pc, #536870919	; 0x20000007
 4a0:	4f4c5f00 	svcmi	0x004c5f00
 4a4:	525f4b43 	subspl	r4, pc, #68608	; 0x10c00
 4a8:	52554345 	subspl	r4, r5, #335544321	; 0x14000001
 4ac:	45564953 	ldrbmi	r4, [r6, #-2387]	; 0x953
 4b0:	7400545f 	strvc	r5, [r0], #-1119	; 0x45f
 4b4:	00736968 	rsbseq	r6, r3, r8, ror #18
 4b8:	6769735f 			; <UNDEFINED> instruction: 0x6769735f
 4bc:	5f6c616e 	svcpl	0x006c616e
 4c0:	00667562 	rsbeq	r7, r6, r2, ror #10
 4c4:	6769425f 			; <UNDEFINED> instruction: 0x6769425f
 4c8:	00746e69 	rsbseq	r6, r4, r9, ror #28
 4cc:	78616d5f 	stmdavc	r1!, {r0, r1, r2, r3, r4, r6, r8, sl, fp, sp, lr}^
 4d0:	00736477 	rsbseq	r6, r3, r7, ror r4
 4d4:	74657366 	strbtvc	r7, [r5], #-870	; 0x366
 4d8:	00736f70 	rsbseq	r6, r3, r0, ror pc
 4dc:	6c635f5f 	stclvs	15, cr5, [r3], #-380	; 0xfffffe84
 4e0:	756e6165 	strbvc	r6, [lr, #-357]!	; 0x165
 4e4:	615f0070 	cmpvs	pc, r0, ror r0	; <UNPREDICTABLE>
 4e8:	69786574 	ldmdbvs	r8!, {r2, r4, r5, r6, r8, sl, sp, lr}^
 4ec:	5f003074 	svcpl	0x00003074
 4f0:	696e695f 	stmdbvs	lr!, {r0, r1, r2, r3, r4, r6, r8, fp, sp, lr}^
 4f4:	6c616974 	stclvs	9, cr6, [r1], #-464	; 0xfffffe30
 4f8:	5f657a69 	svcpl	0x00657a69
 4fc:	31500070 	cmpcc	r0, r0, ror r0
 500:	5000305f 	andpl	r3, r0, pc, asr r0
 504:	00315f31 	eorseq	r5, r1, r1, lsr pc
 508:	325f3150 	subscc	r3, pc, #80, 2
 50c:	5f315000 	svcpl	0x00315000
 510:	31500033 	cmpcc	r0, r3, lsr r0
 514:	5000345f 	andpl	r3, r0, pc, asr r4
 518:	00355f31 	eorseq	r5, r5, r1, lsr pc
 51c:	365f3150 			; <UNDEFINED> instruction: 0x365f3150
 520:	5f315000 	svcpl	0x00315000
 524:	31500037 	cmpcc	r0, r7, lsr r0
 528:	5000385f 	andpl	r3, r0, pc, asr r8
 52c:	00395f31 	eorseq	r5, r9, r1, lsr pc
 530:	656d655f 	strbvs	r6, [sp, #-1375]!	; 0x55f
 534:	6e656772 	mcrvs	7, 3, r6, cr5, cr2, {3}
 538:	6c007963 	stcvs	9, cr7, [r0], {99}	; 0x63
 53c:	20676e6f 	rsbcs	r6, r7, pc, ror #28
 540:	676e6f6c 	strbvs	r6, [lr, -ip, ror #30]!
 544:	746e6920 	strbtvc	r6, [lr], #-2336	; 0x920
 548:	696e5f00 	stmdbvs	lr!, {r8, r9, sl, fp, ip, lr}^
 54c:	0073626f 	rsbseq	r6, r3, pc, ror #4
 550:	67735f5f 			; <UNDEFINED> instruction: 0x67735f5f
 554:	0065756c 	rsbeq	r7, r5, ip, ror #10
 558:	616d6e5f 	cmnvs	sp, pc, asr lr
 55c:	636f6c6c 	cmnvs	pc, #108, 24	; 0x6c00
 560:	61675f00 	cmnvs	r7, r0, lsl #30
 564:	5f616d6d 	svcpl	0x00616d6d
 568:	6e676973 	mcrvs	9, 3, r6, cr7, cr3, {3}
 56c:	006d6167 	rsbeq	r6, sp, r7, ror #2
 570:	6f74626d 	svcvs	0x0074626d
 574:	5f006377 	svcpl	0x00006377
 578:	72727563 	rsbsvc	r7, r2, #415236096	; 0x18c00000
 57c:	5f746e65 	svcpl	0x00746e65
 580:	61636f6c 	cmnvs	r3, ip, ror #30
 584:	5f00656c 	svcpl	0x0000656c
 588:	65657266 	strbvs	r7, [r5, #-614]!	; 0x266
 58c:	7473696c 	ldrbtvc	r6, [r3], #-2412	; 0x96c
 590:	6f695f00 	svcvs	0x00695f00
 594:	5f007362 	svcpl	0x00007362
 598:	65756c67 	ldrbvs	r6, [r5, #-3175]!	; 0xc67
 59c:	4d544900 	ldclmi	9, cr4, [r4, #-0]
 5a0:	4278525f 	rsbsmi	r5, r8, #-268435451	; 0xf0000005
 5a4:	65666675 	strbvs	r6, [r6, #-1653]!	; 0x675
 5a8:	735f0072 	cmpvc	pc, #114	; 0x72
 5ac:	006e6769 	rsbeq	r6, lr, r9, ror #14
 5b0:	616f6c66 	cmnvs	pc, r6, ror #24
 5b4:	61770074 	cmnvs	r7, r4, ror r0
 5b8:	5f007469 	svcpl	0x00007469
 5bc:	6d6f635f 	stclvs	3, cr6, [pc, #-380]!	; 448 <us_ticker_read+0x40>
 5c0:	5f726170 	svcpl	0x00726170
 5c4:	745f6e66 	ldrbvc	r6, [pc], #-3686	; 5cc <__libc_init_array>
 5c8:	4e5a5f00 	cdpmi	15, 5, cr5, cr10, cr0, {0}
 5cc:	65626d34 	strbvs	r6, [r2, #-3380]!	; 0xd34
 5d0:	44303164 	ldrtmi	r3, [r0], #-356	; 0x164
 5d4:	74696769 	strbtvc	r6, [r9], #-1897	; 0x769
 5d8:	754f6c61 	strbvc	r6, [pc, #-3169]	; fffff97f <__StackTop+0xefff797f>
 5dc:	45324474 	ldrmi	r4, [r2, #-1140]!	; 0x474
 5e0:	65700076 	ldrbvs	r0, [r0, #-118]!	; 0x76
 5e4:	726f7272 	rsbvc	r7, pc, #536870919	; 0x20000007
 5e8:	5f685f00 	svcpl	0x00685f00
 5ec:	6e727265 	cdpvs	2, 7, cr7, cr2, cr5, {3}
 5f0:	7366006f 	cmnvc	r6, #111	; 0x6f
 5f4:	006b6565 	rsbeq	r6, fp, r5, ror #10
 5f8:	74736377 	ldrbtvc	r6, [r3], #-887	; 0x377
 5fc:	73626d6f 	cmnvc	r2, #7104	; 0x1bc0
 600:	74657300 	strbtvc	r7, [r5], #-768	; 0x300
 604:	66756276 			; <UNDEFINED> instruction: 0x66756276
 608:	63775f00 	cmnvs	r7, #0, 30
 60c:	6d6f7472 	cfstrdvs	mvd7, [pc, #-456]!	; 44c <us_ticker_read+0x44>
 610:	74735f62 	ldrbtvc	r5, [r3], #-3938	; 0xf62
 614:	00657461 	rsbeq	r7, r5, r1, ror #8
 618:	6d745f5f 	ldclvs	15, cr5, [r4, #-380]!	; 0xfffffe84
 61c:	61646d5f 	cmnvs	r4, pc, asr sp
 620:	6e5f0079 	mrcvs	0, 2, r0, cr15, cr9, {3}
 624:	5f007765 	svcpl	0x00007765
 628:	66756275 			; <UNDEFINED> instruction: 0x66756275
 62c:	74735f00 	ldrbtvc	r5, [r3], #-3840	; 0xf00
 630:	72726564 	rsbsvc	r6, r2, #100, 10	; 0x19000000
 634:	63775f00 	cmnvs	r7, #0, 30
 638:	626d6f74 	rsbvs	r6, sp, #116, 30	; 0x1d0
 63c:	6174735f 	cmnvs	r4, pc, asr r3
 640:	5f006574 	svcpl	0x00006574
 644:	7473626d 	ldrbtvc	r6, [r3], #-621	; 0x26d
 648:	00657461 	rsbeq	r7, r5, r1, ror #8
 64c:	616e6572 	smcvs	58962	; 0xe652
 650:	5f00656d 	svcpl	0x0000656d
 654:	646e6172 	strbtvs	r6, [lr], #-370	; 0x172
 658:	78656e5f 	stmdavc	r5!, {r0, r1, r2, r3, r4, r6, r9, sl, fp, sp, lr}^
 65c:	665f0074 			; <UNDEFINED> instruction: 0x665f0074
 660:	7367616c 	cmnvc	r7, #108, 2
 664:	44454c00 	strbmi	r4, [r5], #-3072	; 0xc00
 668:	454c0031 	strbmi	r0, [ip, #-49]	; 0x31
 66c:	4c003244 	sfmmi	f3, 4, [r0], {68}	; 0x44
 670:	00344445 	eorseq	r4, r4, r5, asr #8
 674:	375f3250 			; <UNDEFINED> instruction: 0x375f3250
 678:	65706f00 	ldrbvs	r6, [r0, #-3840]!	; 0xf00
 67c:	6f746172 	svcvs	0x00746172
 680:	65642072 	strbvs	r2, [r4, #-114]!	; 0x72
 684:	6574656c 	ldrbvs	r6, [r4, #-1388]!	; 0x56c
 688:	74656700 	strbtvc	r6, [r5], #-1792	; 0x700
 68c:	72616863 	rsbvc	r6, r1, #6488064	; 0x630000
 690:	635f5f00 	cmpvs	pc, #0, 30
 694:	746e756f 	strbtvc	r7, [lr], #-1391	; 0x56f
 698:	74657300 	strbtvc	r7, [r5], #-768	; 0x300
 69c:	00667562 	rsbeq	r7, r6, r2, ror #10
 6a0:	666f6566 	strbtvs	r6, [pc], -r6, ror #10
 6a4:	745f5f00 	ldrbvc	r5, [pc], #-3840	; 6ac <_free_r+0x60>
 6a8:	64775f6d 	ldrbtvs	r5, [r7], #-3949	; 0xf6d
 6ac:	71007961 	tstvc	r0, r1, ror #18
 6b0:	74726f73 	ldrbtvc	r6, [r2], #-3955	; 0xf73
 6b4:	6e6f6c00 	cdpvs	12, 6, cr6, cr15, cr0, {0}
 6b8:	6f642067 	svcvs	0x00642067
 6bc:	656c6275 	strbvs	r6, [ip, #-629]!	; 0x275
 6c0:	745f5f00 	ldrbvc	r5, [pc], #-3840	; 6c8 <_free_r+0x7c>
 6c4:	64795f6d 	ldrbtvs	r5, [r9], #-3949	; 0xf6d
 6c8:	5f007961 	svcpl	0x00007961
 6cc:	64656573 	strbtvs	r6, [r5], #-1395	; 0x573
 6d0:	65735f00 	ldrbvs	r5, [r3, #-3840]!	; 0xf00
 6d4:	5f006b65 	svcpl	0x00006b65
 6d8:	736f7066 	cmnvc	pc, #102	; 0x66
 6dc:	5f00745f 	svcpl	0x0000745f
 6e0:	6863775f 	stmdavs	r3!, {r0, r1, r2, r3, r4, r6, r8, r9, sl, ip, sp, lr}^
 6e4:	73620062 	cmnvc	r2, #98	; 0x62
 6e8:	63726165 	cmnvs	r2, #1073741849	; 0x40000019
 6ec:	447e0068 	ldrbtmi	r0, [lr], #-104	; 0x68
 6f0:	74696769 	strbtvc	r6, [r9], #-1897	; 0x769
 6f4:	754f6c61 	strbvc	r6, [pc, #-3169]	; fffffa9b <__StackTop+0xefff7a9b>
 6f8:	6d5f0074 	ldclvs	0, cr0, [pc, #-464]	; 530 <timer_init+0x30>
 6fc:	776f7462 	strbvc	r7, [pc, -r2, ror #8]!
 700:	74735f63 	ldrbtvc	r5, [r3], #-3939	; 0xf63
 704:	00657461 	rsbeq	r7, r5, r1, ror #8
 708:	305f3250 	subscc	r3, pc, r0, asr r2	; <UNPREDICTABLE>
 70c:	5f325000 	svcpl	0x00325000
 710:	32500031 	subscc	r0, r0, #49	; 0x31
 714:	5000325f 	andpl	r3, r0, pc, asr r2
 718:	00335f32 	eorseq	r5, r3, r2, lsr pc
 71c:	345f3250 	ldrbcc	r3, [pc], #-592	; 724 <_malloc_r+0x50>
 720:	5f325000 	svcpl	0x00325000
 724:	32500035 	subscc	r0, r0, #53	; 0x35
 728:	6c00365f 	stcvs	6, cr3, [r0], {95}	; 0x5f
 72c:	20676e6f 	rsbcs	r6, r7, pc, ror #28
 730:	676e6f6c 	strbvs	r6, [lr, -ip, ror #30]!
 734:	736e7520 	cmnvc	lr, #32, 10	; 0x8000000
 738:	656e6769 	strbvs	r6, [lr, #-1897]!	; 0x769
 73c:	6e692064 	cdpvs	0, 6, cr2, cr9, cr4, {3}
 740:	32500074 	subscc	r0, r0, #116	; 0x74
 744:	5000385f 	andpl	r3, r0, pc, asr r8
 748:	00395f32 	eorseq	r5, r9, r2, lsr pc
 74c:	315f3150 	cmpcc	pc, r0, asr r1	; <UNPREDICTABLE>
 750:	31500030 	cmpcc	r0, r0, lsr r0
 754:	0031315f 	eorseq	r3, r1, pc, asr r1
 758:	315f3150 	cmpcc	pc, r0, asr r1	; <UNPREDICTABLE>
 75c:	31500032 	cmpcc	r0, r2, lsr r0
 760:	0033315f 	eorseq	r3, r3, pc, asr r1
 764:	315f3150 	cmpcc	pc, r0, asr r1	; <UNPREDICTABLE>
 768:	31500035 	cmpcc	r0, r5, lsr r0
 76c:	0036315f 	eorseq	r3, r6, pc, asr r1
 770:	315f3150 	cmpcc	pc, r0, asr r1	; <UNPREDICTABLE>
 774:	31500037 	cmpcc	r0, r7, lsr r0
 778:	0038315f 	eorseq	r3, r8, pc, asr r1
 77c:	315f3150 	cmpcc	pc, r0, asr r1	; <UNPREDICTABLE>
 780:	725f0039 	subsvc	r0, pc, #57	; 0x39
 784:	34646e61 	strbtcc	r6, [r4], #-3681	; 0xe61
 788:	735f0038 	cmpvc	pc, #56	; 0x38
 78c:	756f6474 	strbvc	r6, [pc, #-1140]!	; 320 <mbed_die+0x58>
 790:	33500074 	cmpcc	r0, #116	; 0x74
 794:	0030315f 	eorseq	r3, r0, pc, asr r1
 798:	315f3350 	cmpcc	pc, r0, asr r3	; <UNPREDICTABLE>
 79c:	33500031 	cmpcc	r0, #49	; 0x31
 7a0:	0032315f 	eorseq	r3, r2, pc, asr r1
 7a4:	315f3350 	cmpcc	pc, r0, asr r3	; <UNPREDICTABLE>
 7a8:	33500033 	cmpcc	r0, #51	; 0x33
 7ac:	0034315f 	eorseq	r3, r4, pc, asr r1
 7b0:	315f3350 	cmpcc	pc, r0, asr r3	; <UNPREDICTABLE>
 7b4:	33500035 	cmpcc	r0, #53	; 0x35
 7b8:	0036315f 	eorseq	r3, r6, pc, asr r1
 7bc:	315f3350 	cmpcc	pc, r0, asr r3	; <UNPREDICTABLE>
 7c0:	33500037 	cmpcc	r0, #55	; 0x37
 7c4:	0038315f 	eorseq	r3, r8, pc, asr r1
 7c8:	315f3350 	cmpcc	pc, r0, asr r3	; <UNPREDICTABLE>
 7cc:	625f0039 	subsvs	r0, pc, #57	; 0x39
 7d0:	69736b6c 	ldmdbvs	r3!, {r2, r3, r5, r6, r8, r9, fp, sp, lr}^
 7d4:	5f00657a 	svcpl	0x0000657a
 7d8:	65736162 	ldrbvs	r6, [r3, #-354]!	; 0x162
 7dc:	74735f00 	ldrbtvc	r5, [r3], #-3840	; 0xf00
 7e0:	6b6f7472 	blvs	1bdd9b0 <_etext+0x1bd8bf4>
 7e4:	73616c5f 	cmnvc	r1, #24320	; 0x5f00
 7e8:	31500074 	cmpcc	r0, r4, ror r0
 7ec:	0030325f 	eorseq	r3, r0, pc, asr r2
 7f0:	325f3150 	subscc	r3, pc, #80, 2
 7f4:	31500031 	cmpcc	r0, r1, lsr r0
 7f8:	0032325f 	eorseq	r3, r2, pc, asr r2
 7fc:	325f3150 	subscc	r3, pc, #80, 2
 800:	31500033 	cmpcc	r0, r3, lsr r0
 804:	0034325f 	eorseq	r3, r4, pc, asr r2
 808:	72626d5f 	rsbvc	r6, r2, #6080	; 0x17c0
 80c:	63776f74 	cmnvs	r7, #116, 30	; 0x1d0
 810:	6174735f 	cmnvs	r4, pc, asr r3
 814:	50006574 	andpl	r6, r0, r4, ror r5
 818:	36325f31 	shasxcc	r5, r2, r1
 81c:	5f315000 	svcpl	0x00315000
 820:	50003732 	andpl	r3, r0, r2, lsr r7
 824:	38325f31 	ldmdacc	r2!, {r0, r4, r5, r8, r9, sl, fp, ip, lr}
 828:	5f315000 	svcpl	0x00315000
 82c:	5f003932 	svcpl	0x00003932
 830:	636f6c66 	cmnvs	pc, #26112	; 0x6600
 834:	00745f6b 	rsbseq	r5, r4, fp, ror #30
 838:	746f7571 	strbtvc	r7, [pc], #-1393	; 840 <_strtol_r+0x20>
 83c:	5f335000 	svcpl	0x00335000
 840:	5f003032 	svcpl	0x00003032
 844:	4c49465f 	mcrrmi	6, 5, r4, r9, cr15
 848:	33500045 	cmpcc	r0, #69	; 0x45
 84c:	0032325f 	eorseq	r3, r2, pc, asr r2
 850:	325f3350 	subscc	r3, pc, #80, 6	; 0x40000001
 854:	33500033 	cmpcc	r0, #51	; 0x33
 858:	0034325f 	eorseq	r3, r4, pc, asr r2
 85c:	325f3350 	subscc	r3, pc, #80, 6	; 0x40000001
 860:	33500035 	cmpcc	r0, #53	; 0x35
 864:	0036325f 	eorseq	r3, r6, pc, asr r2
 868:	325f3350 	subscc	r3, pc, #80, 6	; 0x40000001
 86c:	33500037 	cmpcc	r0, #55	; 0x37
 870:	0038325f 	eorseq	r3, r8, pc, asr r2
 874:	325f3350 	subscc	r3, pc, #80, 6	; 0x40000001
 878:	725f0039 	subsvc	r0, pc, #57	; 0x39
 87c:	77003834 	smladxvc	r0, r4, r8, r3
 880:	5f746e69 	svcpl	0x00746e69
 884:	31500074 	cmpcc	r0, r4, ror r0
 888:	0030335f 	eorseq	r3, r0, pc, asr r3
 88c:	335f3150 	cmpcc	pc, #80, 2
 890:	645f0031 	ldrbvs	r0, [pc], #-49	; 898 <_strtol_r+0x78>
 894:	00617461 	rsbeq	r7, r1, r1, ror #8
 898:	65706f66 	ldrbvs	r6, [r0, #-3942]!	; 0xf66
 89c:	3350006e 	cmpcc	r0, #110	; 0x6e
 8a0:	0030335f 	eorseq	r3, r0, pc, asr r3
 8a4:	335f3350 	cmpcc	pc, #80, 6	; 0x40000001
 8a8:	65720031 	ldrbvs	r0, [r2, #-49]!	; 0x31
 8ac:	646e6977 	strbtvs	r6, [lr], #-2423	; 0x977
 8b0:	72747300 	rsbsvc	r7, r4, #0, 6
 8b4:	00646f74 	rsbeq	r6, r4, r4, ror pc
 8b8:	74727473 	ldrbtvc	r7, [r2], #-1139	; 0x473
 8bc:	5f006c6f 	svcpl	0x00006c6f
 8c0:	656c626d 	strbvs	r6, [ip, #-621]!	; 0x26d
 8c4:	74735f6e 	ldrbtvc	r5, [r3], #-3950	; 0xf6e
 8c8:	00657461 	rsbeq	r7, r5, r1, ror #8
 8cc:	726f6873 	rsbvc	r6, pc, #7536640	; 0x730000
 8d0:	6e692074 	mcrvs	0, 3, r2, cr9, cr4, {3}
 8d4:	665f0074 			; <UNDEFINED> instruction: 0x665f0074
 8d8:	7079746e 	rsbsvc	r7, r9, lr, ror #8
 8dc:	5f007365 	svcpl	0x00007365
 8e0:	6d344e5a 	ldcvs	14, cr4, [r4, #-360]!	; 0xfffffe98
 8e4:	31646562 	cmncc	r4, r2, ror #10
 8e8:	67694430 			; <UNDEFINED> instruction: 0x67694430
 8ec:	6c617469 	cfstrdvs	mvd7, [r1], #-420	; 0xfffffe5c
 8f0:	6174754f 	cmnvs	r4, pc, asr #10
 8f4:	00694553 	rsbeq	r4, r9, r3, asr r5
 8f8:	6d745f5f 	ldclvs	15, cr5, [r4, #-380]!	; 0xfffffe84
 8fc:	6165795f 	cmnvs	r5, pc, asr r9
 900:	6d740072 	ldclvs	0, cr0, [r4, #-456]!	; 0xfffffe38
 904:	6c696670 	stclvs	6, cr6, [r9], #-448	; 0xfffffe40
 908:	72730065 	rsbsvc	r0, r3, #101	; 0x65
 90c:	00646e61 	rsbeq	r6, r4, r1, ror #28
 910:	66626c5f 			; <UNDEFINED> instruction: 0x66626c5f
 914:	657a6973 	ldrbvs	r6, [sl, #-2419]!	; 0x973
 918:	6e695f00 	cdpvs	15, 6, cr5, cr9, cr0, {0}
 91c:	695f0063 	ldmdbvs	pc, {r0, r1, r5, r6}^	; <UNPREDICTABLE>
 920:	7500646e 	strvc	r6, [r0, #-1134]	; 0x46e
 924:	7465676e 	strbtvc	r6, [r5], #-1902	; 0x76e
 928:	30500063 	subscc	r0, r0, r3, rrx
 92c:	0032315f 	eorseq	r3, r2, pc, asr r1
 930:	62735f5f 	rsbsvs	r5, r3, #380	; 0x17c
 934:	5f006675 	svcpl	0x00006675
 938:	635f7369 	cmpvs	pc, #-1543503871	; 0xa4000001
 93c:	5f006178 	svcpl	0x00006178
 940:	7478656e 	ldrbtvc	r6, [r8], #-1390	; 0x56e
 944:	5a5f0066 	bpl	17c0ae4 <_etext+0x17bbd28>
 948:	76506c64 	ldrbvc	r6, [r0], -r4, ror #24
 94c:	4c475f00 	mcrrmi	15, 0, r5, r7, cr0
 950:	4c41424f 	sfmmi	f4, 2, [r1], {79}	; 0x4f
 954:	75735f5f 	ldrbvc	r5, [r3, #-3935]!	; 0xf5f
 958:	5f495f62 	svcpl	0x00495f62
 95c:	656c796d 	strbvs	r7, [ip, #-2413]!	; 0x96d
 960:	33500064 	cmpcc	r0, #100	; 0x64
 964:	5000305f 	andpl	r3, r0, pc, asr r0
 968:	00315f33 	eorseq	r5, r1, r3, lsr pc
 96c:	325f3350 	subscc	r3, pc, #80, 6	; 0x40000001
 970:	5f335000 	svcpl	0x00335000
 974:	33500033 	cmpcc	r0, #51	; 0x33
 978:	5000345f 	andpl	r3, r0, pc, asr r4
 97c:	00355f33 	eorseq	r5, r5, r3, lsr pc
 980:	365f3350 			; <UNDEFINED> instruction: 0x365f3350
 984:	5f335000 	svcpl	0x00335000
 988:	33500038 	cmpcc	r0, #56	; 0x38
 98c:	5f00395f 	svcpl	0x0000395f
 990:	6f4c555f 	svcvs	0x004c555f
 994:	5f00676e 	svcpl	0x0000676e
 998:	6f73645f 	svcvs	0x0073645f
 99c:	6e61685f 	mcrvs	8, 3, r6, cr1, cr15, {2}
 9a0:	00656c64 	rsbeq	r6, r5, r4, ror #24
 9a4:	7365725f 	cmnvc	r5, #-268435451	; 0xf0000005
 9a8:	00746c75 	rsbseq	r6, r4, r5, ror ip
 9ac:	3344454c 	movtcc	r4, #17740	; 0x454c
 9b0:	666f5f00 	strbtvs	r5, [pc], -r0, lsl #30
 9b4:	00745f66 	rsbseq	r5, r4, r6, ror #30
 9b8:	20554e47 	subscs	r4, r5, r7, asr #28
 9bc:	202b2b43 	eorcs	r2, fp, r3, asr #22
 9c0:	2e382e34 	mrccs	14, 1, r2, cr8, cr4, {1}
 9c4:	30322034 	eorscc	r2, r2, r4, lsr r0
 9c8:	37303431 			; <UNDEFINED> instruction: 0x37303431
 9cc:	28203532 	stmdacs	r0!, {r1, r4, r5, r8, sl, ip, sp}
 9d0:	656c6572 	strbvs	r6, [ip, #-1394]!	; 0x572
 9d4:	29657361 	stmdbcs	r5!, {r0, r5, r6, r8, r9, ip, sp, lr}^
 9d8:	52415b20 	subpl	r5, r1, #32, 22	; 0x8000
 9dc:	6d652f4d 	stclvs	15, cr2, [r5, #-308]!	; 0xfffffecc
 9e0:	64646562 	strbtvs	r6, [r4], #-1378	; 0x562
 9e4:	342d6465 	strtcc	r6, [sp], #-1125	; 0x465
 9e8:	622d385f 	eorvs	r3, sp, #6225920	; 0x5f0000
 9ec:	636e6172 	cmnvs	lr, #-2147483620	; 0x8000001c
 9f0:	65722068 	ldrbvs	r2, [r2, #-104]!	; 0x68
 9f4:	69736976 	ldmdbvs	r3!, {r1, r2, r4, r5, r6, r8, fp, sp, lr}^
 9f8:	32206e6f 	eorcc	r6, r0, #1776	; 0x6f0
 9fc:	34313331 	ldrtcc	r3, [r1], #-817	; 0x331
 a00:	2d205d37 	stccs	13, cr5, [r0, #-220]!	; 0xffffff24
 a04:	7570636d 	ldrbvc	r6, [r0, #-877]!	; 0x36d
 a08:	726f633d 	rsbvc	r6, pc, #-201326592	; 0xf4000000
 a0c:	2d786574 	cfldr64cs	mvdx6, [r8, #-464]!	; 0xfffffe30
 a10:	2d20336d 	stccs	3, cr3, [r0, #-436]!	; 0xfffffe4c
 a14:	7568746d 	strbvc	r7, [r8, #-1133]!	; 0x46d
 a18:	2d20626d 	sfmcs	f6, 4, [r0, #-436]!	; 0xfffffe4c
 a1c:	4f2d2067 	svcmi	0x002d2067
 a20:	732d2073 	teqvc	sp, #115	; 0x73
 a24:	673d6474 			; <UNDEFINED> instruction: 0x673d6474
 a28:	2b2b756e 	blcs	addfe8 <_etext+0xad922c>
 a2c:	2d203839 	stccs	8, cr3, [r0, #-228]!	; 0xffffff1c
 a30:	2d6f6e66 	stclcs	14, cr6, [pc, #-408]!	; 8a0 <_strtol_r+0x80>
 a34:	6d6d6f63 	stclvs	15, cr6, [sp, #-396]!	; 0xfffffe74
 a38:	2d206e6f 	stccs	14, cr6, [r0, #-444]!	; 0xfffffe44
 a3c:	73656d66 	cmnvc	r5, #6528	; 0x1980
 a40:	65676173 	strbvs	r6, [r7, #-371]!	; 0x173
 a44:	6e656c2d 	cdpvs	12, 6, cr6, cr5, cr13, {1}
 a48:	3d687467 	cfstrdcc	mvd7, [r8, #-412]!	; 0xfffffe64
 a4c:	662d2030 			; <UNDEFINED> instruction: 0x662d2030
 a50:	652d6f6e 	strvs	r6, [sp, #-3950]!	; 0xf6e
 a54:	70656378 	rsbvc	r6, r5, r8, ror r3
 a58:	6e6f6974 	mcrvs	9, 3, r6, cr15, cr4, {3}
 a5c:	662d2073 			; <UNDEFINED> instruction: 0x662d2073
 a60:	636e7566 	cmnvs	lr, #427819008	; 0x19800000
 a64:	6e6f6974 	mcrvs	9, 3, r6, cr15, cr4, {3}
 a68:	6365732d 	cmnvs	r5, #-1275068416	; 0xb4000000
 a6c:	6e6f6974 	mcrvs	9, 3, r6, cr15, cr4, {3}
 a70:	662d2073 			; <UNDEFINED> instruction: 0x662d2073
 a74:	61746164 	cmnvs	r4, r4, ror #2
 a78:	6365732d 	cmnvs	r5, #-1275068416	; 0xb4000000
 a7c:	6e6f6974 	mcrvs	9, 3, r6, cr15, cr4, {3}
 a80:	662d2073 			; <UNDEFINED> instruction: 0x662d2073
 a84:	74696d6f 	strbtvc	r6, [r9], #-3439	; 0xd6f
 a88:	6172662d 	cmnvs	r2, sp, lsr #12
 a8c:	702d656d 	eorvc	r6, sp, sp, ror #10
 a90:	746e696f 	strbtvc	r6, [lr], #-2415	; 0x96f
 a94:	5f007265 	svcpl	0x00007265
 a98:	00646461 	rsbeq	r6, r4, r1, ror #8
 a9c:	726f6873 	rsbvc	r6, pc, #7536640	; 0x730000
 aa0:	6e752074 	mrcvs	0, 3, r2, cr5, cr4, {3}
 aa4:	6e676973 	mcrvs	9, 3, r6, cr7, cr3, {3}
 aa8:	69206465 	stmdbvs	r0!, {r0, r2, r5, r6, sl, sp, lr}
 aac:	5f00746e 	svcpl	0x0000746e
 ab0:	5f6d745f 	svcpl	0x006d745f
 ab4:	72756f68 	rsbsvc	r6, r5, #104, 30	; 0x1a0
 ab8:	65726600 	ldrbvs	r6, [r2, #-1536]!	; 0x600
 abc:	5f006461 	svcpl	0x00006461
 ac0:	7273626d 	rsbsvc	r6, r3, #-805306362	; 0xd0000006
 ac4:	63776f74 	cmnvs	r7, #116, 30	; 0x1d0
 ac8:	74735f73 	ldrbtvc	r5, [r3], #-3955	; 0xf73
 acc:	00657461 	rsbeq	r7, r5, r1, ror #8
 ad0:	6e695f5f 	mcrvs	15, 3, r5, cr9, cr15, {2}
 ad4:	5f323374 	svcpl	0x00323374
 ad8:	552f0074 	strpl	r0, [pc, #-116]!	; a6c <_svfiprintf_r+0x90>
 adc:	73726573 	cmnvc	r2, #482344960	; 0x1cc00000
 ae0:	6c73732f 	ldclvs	3, cr7, [r3], #-188	; 0xffffff44
 ae4:	3334652f 	teqcc	r4, #197132288	; 0xbc00000
 ae8:	682f3735 	stmdavs	pc!, {r0, r2, r4, r5, r8, r9, sl, ip, sp}	; <UNPREDICTABLE>
 aec:	672f3277 			; <UNDEFINED> instruction: 0x672f3277
 af0:	482f6363 	stmdami	pc!, {r0, r1, r5, r6, r8, r9, sp, lr}	; <UNPREDICTABLE>
 af4:	6f6c6c65 	svcvs	0x006c6c65
 af8:	6c726f57 	ldclvs	15, cr6, [r2], #-348	; 0xfffffea4
 afc:	5f5f0064 	svcpl	0x005f0064
 b00:	635f6e69 	cmpvs	pc, #1680	; 0x690
 b04:	00677268 	rsbeq	r7, r7, r8, ror #4
 b08:	74656766 	strbtvc	r6, [r5], #-1894	; 0x766
 b0c:	665f0073 			; <UNDEFINED> instruction: 0x665f0073
 b10:	6772616e 	ldrbvs	r6, [r2, -lr, ror #2]!
 b14:	5f5f0073 	svcpl	0x005f0073
 b18:	695f6d74 	ldmdbvs	pc, {r2, r4, r5, r6, r8, sl, fp, sp, lr}^	; <UNPREDICTABLE>
 b1c:	74736473 	ldrbtvc	r6, [r3], #-1139	; 0x473
 b20:	6c666600 	stclvs	6, cr6, [r6], #-0
 b24:	00687375 	rsbeq	r7, r8, r5, ror r3
 b28:	6d745f5f 	ldclvs	15, cr5, [r4, #-380]!	; 0xfffffe84
 b2c:	6e696d5f 	mcrvs	13, 3, r6, cr9, cr15, {2}
 b30:	65675f00 	strbvs	r5, [r7, #-3840]!	; 0xf00
 b34:	74616474 	strbtvc	r6, [r1], #-1140	; 0x474
 b38:	72655f65 	rsbvc	r5, r5, #404	; 0x194
 b3c:	63770072 	cmnvs	r7, #114	; 0x72
 b40:	5f726168 	svcpl	0x00726168
 b44:	72660074 	rsbvc	r0, r6, #116	; 0x74
 b48:	65706f65 	ldrbvs	r6, [r0, #-3941]!	; 0xf65
 b4c:	Address 0x0000000000000b4c is out of bounds.


Disassembly of section .debug_frame:

00000000 <.debug_frame>:
   0:	0000000c 	andeq	r0, r0, ip
   4:	ffffffff 			; <UNDEFINED> instruction: 0xffffffff
   8:	7c020001 	stcvc	0, cr0, [r2], {1}
   c:	000d0c0e 	andeq	r0, sp, lr, lsl #24
  10:	00000014 	andeq	r0, r0, r4, lsl r0
	...
  1c:	00000014 	andeq	r0, r0, r4, lsl r0
  20:	84080e41 	strhi	r0, [r8], #-3649	; 0xe41
  24:	00018e02 	andeq	r8, r1, r2, lsl #28
  28:	00000014 	andeq	r0, r0, r4, lsl r0
	...
  34:	00000012 	andeq	r0, r0, r2, lsl r0
  38:	84080e41 	strhi	r0, [r8], #-3649	; 0xe41
  3c:	00018e02 	andeq	r8, r1, r2, lsl #28
  40:	00000014 	andeq	r0, r0, r4, lsl r0
  44:	00000000 	andeq	r0, r0, r0
  48:	00000140 	andeq	r0, r0, r0, asr #2
  4c:	00000028 	andeq	r0, r0, r8, lsr #32
  50:	83080e41 	movwhi	r0, #36417	; 0x8e41
  54:	00018e02 	andeq	r8, r1, r2, lsl #28
  58:	00000014 	andeq	r0, r0, r4, lsl r0
	...
  64:	0000002c 	andeq	r0, r0, ip, lsr #32
  68:	84080e41 	strhi	r0, [r8], #-3649	; 0xe41
  6c:	00018e02 	andeq	r8, r1, r2, lsl #28
  70:	0000000c 	andeq	r0, r0, ip
  74:	ffffffff 			; <UNDEFINED> instruction: 0xffffffff
  78:	7c020001 	stcvc	0, cr0, [r2], {1}
  7c:	000d0c0e 	andeq	r0, sp, lr, lsl #24
  80:	00000018 	andeq	r0, r0, r8, lsl r0
  84:	00000070 	andeq	r0, r0, r0, ror r0
  88:	000005cc 	andeq	r0, r0, ip, asr #11
  8c:	0000004c 	andeq	r0, r0, ip, asr #32
  90:	84100e41 	ldrhi	r0, [r0], #-3649	; 0xe41
  94:	86038504 	strhi	r8, [r3], -r4, lsl #10
  98:	00018e02 	andeq	r8, r1, r2, lsl #28
  9c:	0000000c 	andeq	r0, r0, ip
  a0:	ffffffff 			; <UNDEFINED> instruction: 0xffffffff
  a4:	7c020001 	stcvc	0, cr0, [r2], {1}
  a8:	000d0c0e 	andeq	r0, sp, lr, lsl #24
  ac:	0000000c 	andeq	r0, r0, ip
  b0:	0000009c 	muleq	r0, ip, r0
  b4:	00000618 	andeq	r0, r0, r8, lsl r6
  b8:	00000010 	andeq	r0, r0, r0, lsl r0
  bc:	0000000c 	andeq	r0, r0, ip
  c0:	0000009c 	muleq	r0, ip, r0
  c4:	00000000 	andeq	r0, r0, r0
  c8:	00000010 	andeq	r0, r0, r0, lsl r0
  cc:	0000000c 	andeq	r0, r0, ip
  d0:	ffffffff 			; <UNDEFINED> instruction: 0xffffffff
  d4:	7c020001 	stcvc	0, cr0, [r2], {1}
  d8:	000d0c0e 	andeq	r0, sp, lr, lsl #24
  dc:	00000014 	andeq	r0, r0, r4, lsl r0
  e0:	000000cc 	andeq	r0, r0, ip, asr #1
  e4:	00000628 	andeq	r0, r0, r8, lsr #12
  e8:	00000012 	andeq	r0, r0, r2, lsl r0
  ec:	84080e41 	strhi	r0, [r8], #-3649	; 0xe41
  f0:	00018e02 	andeq	r8, r1, r2, lsl #28
  f4:	0000000c 	andeq	r0, r0, ip
  f8:	ffffffff 			; <UNDEFINED> instruction: 0xffffffff
  fc:	7c020001 	stcvc	0, cr0, [r2], {1}
 100:	000d0c0e 	andeq	r0, sp, lr, lsl #24
 104:	0000000c 	andeq	r0, r0, ip
 108:	000000f4 	strdeq	r0, [r0], -r4
 10c:	0000063a 	andeq	r0, r0, sl, lsr r6
 110:	00000010 	andeq	r0, r0, r0, lsl r0
 114:	0000000c 	andeq	r0, r0, ip
 118:	ffffffff 			; <UNDEFINED> instruction: 0xffffffff
 11c:	7c020001 	stcvc	0, cr0, [r2], {1}
 120:	000d0c0e 	andeq	r0, sp, lr, lsl #24
 124:	00000018 	andeq	r0, r0, r8, lsl r0
 128:	00000114 	andeq	r0, r0, r4, lsl r1
 12c:	0000064c 	andeq	r0, r0, ip, asr #12
 130:	00000088 	andeq	r0, r0, r8, lsl #1
 134:	840c0e41 	strhi	r0, [ip], #-3649	; 0xe41
 138:	8e028503 	cfsh32hi	mvfx8, mvfx2, #3
 13c:	00000001 	andeq	r0, r0, r1
 140:	0000000c 	andeq	r0, r0, ip
 144:	ffffffff 			; <UNDEFINED> instruction: 0xffffffff
 148:	7c020001 	stcvc	0, cr0, [r2], {1}
 14c:	000d0c0e 	andeq	r0, sp, lr, lsl #24
 150:	00000018 	andeq	r0, r0, r8, lsl r0
 154:	00000140 	andeq	r0, r0, r0, asr #2
 158:	000006d4 	ldrdeq	r0, [r0], -r4
 15c:	000000a8 	andeq	r0, r0, r8, lsr #1
 160:	84100e41 	ldrhi	r0, [r0], #-3649	; 0xe41
 164:	86038504 	strhi	r8, [r3], -r4, lsl #10
 168:	00018e02 	andeq	r8, r1, r2, lsl #28
 16c:	0000000c 	andeq	r0, r0, ip
 170:	ffffffff 			; <UNDEFINED> instruction: 0xffffffff
 174:	7c020001 	stcvc	0, cr0, [r2], {1}
 178:	000d0c0e 	andeq	r0, sp, lr, lsl #24
 17c:	00000018 	andeq	r0, r0, r8, lsl r0
 180:	0000016c 	andeq	r0, r0, ip, ror #2
 184:	0000077c 	andeq	r0, r0, ip, ror r7
 188:	00000020 	andeq	r0, r0, r0, lsr #32
 18c:	83100e41 	tsthi	r0, #1040	; 0x410
 190:	85038404 	strhi	r8, [r3, #-1028]	; 0x404
 194:	00018e02 	andeq	r8, r1, r2, lsl #28
 198:	0000000c 	andeq	r0, r0, ip
 19c:	ffffffff 			; <UNDEFINED> instruction: 0xffffffff
 1a0:	7c020001 	stcvc	0, cr0, [r2], {1}
 1a4:	000d0c0e 	andeq	r0, sp, lr, lsl #24
 1a8:	00000020 	andeq	r0, r0, r0, lsr #32
 1ac:	00000198 	muleq	r0, r8, r1
 1b0:	00000000 	andeq	r0, r0, r0
 1b4:	00000040 	andeq	r0, r0, r0, asr #32
 1b8:	82080e41 	andhi	r0, r8, #1040	; 0x410
 1bc:	41018302 	tstmi	r1, r2, lsl #6
 1c0:	0484100e 	streq	r1, [r4], #14
 1c4:	0e41038e 	cdpeq	3, 4, cr0, cr1, cr14, {4}
 1c8:	00000180 	andeq	r0, r0, r0, lsl #3
 1cc:	00000020 	andeq	r0, r0, r0, lsr #32
 1d0:	00000198 	muleq	r0, r8, r1
 1d4:	0000079c 	muleq	r0, ip, r7
 1d8:	00000048 	andeq	r0, r0, r8, asr #32
 1dc:	810c0e41 	tsthi	ip, r1, asr #28
 1e0:	83028203 	movwhi	r8, #8707	; 0x2203
 1e4:	100e4101 	andne	r4, lr, r1, lsl #2
 1e8:	0e43048e 	cdpeq	4, 4, cr0, cr3, cr14, {4}
 1ec:	00000180 	andeq	r0, r0, r0, lsl #3
 1f0:	0000000c 	andeq	r0, r0, ip
 1f4:	ffffffff 			; <UNDEFINED> instruction: 0xffffffff
 1f8:	7c020001 	stcvc	0, cr0, [r2], {1}
 1fc:	000d0c0e 	andeq	r0, sp, lr, lsl #24
 200:	0000000c 	andeq	r0, r0, ip
 204:	000001f0 	strdeq	r0, [r0], -r0	; <UNPREDICTABLE>
 208:	000007e4 	andeq	r0, r0, r4, ror #15
 20c:	00000010 	andeq	r0, r0, r0, lsl r0
 210:	0000000c 	andeq	r0, r0, ip
 214:	ffffffff 			; <UNDEFINED> instruction: 0xffffffff
 218:	7c020001 	stcvc	0, cr0, [r2], {1}
 21c:	000d0c0e 	andeq	r0, sp, lr, lsl #24
 220:	00000018 	andeq	r0, r0, r8, lsl r0
 224:	00000210 	andeq	r0, r0, r0, lsl r2
 228:	000007f4 	strdeq	r0, [r0], -r4
 22c:	0000002c 	andeq	r0, r0, ip, lsr #32
 230:	84100e41 	ldrhi	r0, [r0], #-3649	; 0xe41
 234:	86038504 	strhi	r8, [r3], -r4, lsl #10
 238:	00018e02 	andeq	r8, r1, r2, lsl #28
 23c:	0000000c 	andeq	r0, r0, ip
 240:	ffffffff 			; <UNDEFINED> instruction: 0xffffffff
 244:	7c020001 	stcvc	0, cr0, [r2], {1}
 248:	000d0c0e 	andeq	r0, sp, lr, lsl #24
 24c:	00000024 	andeq	r0, r0, r4, lsr #32
 250:	0000023c 	andeq	r0, r0, ip, lsr r2
 254:	00000820 	andeq	r0, r0, r0, lsr #16
 258:	00000104 	andeq	r0, r0, r4, lsl #2
 25c:	84240e44 	strthi	r0, [r4], #-3652	; 0xe44
 260:	86088509 	strhi	r8, [r8], -r9, lsl #10
 264:	88068707 	stmdahi	r6, {r0, r1, r2, r8, r9, sl, pc}
 268:	8a048905 	bhi	122684 <_etext+0x11d8c8>
 26c:	8e028b03 	vmlahi.f64	d8, d2, d3
 270:	00000001 	andeq	r0, r0, r1
 274:	00000018 	andeq	r0, r0, r8, lsl r0
 278:	0000023c 	andeq	r0, r0, ip, lsr r2
 27c:	00000000 	andeq	r0, r0, r0
 280:	0000001c 	andeq	r0, r0, ip, lsl r0
 284:	840c0e41 	strhi	r0, [ip], #-3649	; 0xe41
 288:	8e028503 	cfsh32hi	mvfx8, mvfx2, #3
 28c:	00000001 	andeq	r0, r0, r1
 290:	0000000c 	andeq	r0, r0, ip
 294:	ffffffff 			; <UNDEFINED> instruction: 0xffffffff
 298:	7c020001 	stcvc	0, cr0, [r2], {1}
 29c:	000d0c0e 	andeq	r0, sp, lr, lsl #24
 2a0:	00000020 	andeq	r0, r0, r0, lsr #32
 2a4:	00000290 	muleq	r0, r0, r2
 2a8:	00000924 	andeq	r0, r0, r4, lsr #18
 2ac:	000000b8 	strheq	r0, [r0], -r8
 2b0:	84200e42 	strthi	r0, [r0], #-3650	; 0xe42
 2b4:	86078508 	strhi	r8, [r7], -r8, lsl #10
 2b8:	88058706 	stmdahi	r5, {r1, r2, r8, r9, sl, pc}
 2bc:	8a038904 	bhi	e26d4 <_etext+0xdd918>
 2c0:	00018e02 	andeq	r8, r1, r2, lsl #28
 2c4:	00000028 	andeq	r0, r0, r8, lsr #32
 2c8:	00000290 	muleq	r0, r0, r2
 2cc:	00000000 	andeq	r0, r0, r0
 2d0:	000000f2 	strdeq	r0, [r0], -r2
 2d4:	80300e42 	eorshi	r0, r0, r2, asr #28
 2d8:	820b810c 	andhi	r8, fp, #12, 2
 2dc:	8509840a 	strhi	r8, [r9, #-1034]	; 0x40a
 2e0:	87078608 	strhi	r8, [r7, -r8, lsl #12]
 2e4:	89058806 	stmdbhi	r5, {r1, r2, fp, pc}
 2e8:	8b038a04 	blhi	e2b00 <_etext+0xddd44>
 2ec:	00018e02 	andeq	r8, r1, r2, lsl #28
 2f0:	00000024 	andeq	r0, r0, r4, lsr #32
 2f4:	00000290 	muleq	r0, r0, r2
 2f8:	000009dc 	ldrdeq	r0, [r0], -ip
 2fc:	000001d8 	ldrdeq	r0, [r0], -r8
 300:	841c0e42 	ldrhi	r0, [ip], #-3650	; 0xe42
 304:	86068507 	strhi	r8, [r6], -r7, lsl #10
 308:	88048705 	stmdahi	r4, {r0, r2, r8, r9, sl, pc}
 30c:	8e028903 	cdphi	9, 0, cr8, cr2, cr3, {0}
 310:	900e4101 	andls	r4, lr, r1, lsl #2
 314:	00000001 	andeq	r0, r0, r1
 318:	0000000c 	andeq	r0, r0, ip
 31c:	ffffffff 			; <UNDEFINED> instruction: 0xffffffff
 320:	7c020001 	stcvc	0, cr0, [r2], {1}
 324:	000d0c0e 	andeq	r0, sp, lr, lsl #24
 328:	00000024 	andeq	r0, r0, r4, lsr #32
 32c:	00000318 	andeq	r0, r0, r8, lsl r3
 330:	00000bb4 			; <UNDEFINED> instruction: 0x00000bb4
 334:	000000c0 	andeq	r0, r0, r0, asr #1
 338:	84200e42 	strthi	r0, [r0], #-3650	; 0xe42
 33c:	86078508 	strhi	r8, [r7], -r8, lsl #10
 340:	88058706 	stmdahi	r5, {r1, r2, r8, r9, sl, pc}
 344:	8a038904 	bhi	e275c <_etext+0xdd9a0>
 348:	42018e02 	andmi	r8, r1, #2, 28
 34c:	0000400e 	andeq	r4, r0, lr
 350:	0000001c 	andeq	r0, r0, ip, lsl r0
 354:	00000318 	andeq	r0, r0, r8, lsl r3
 358:	00000c74 	andeq	r0, r0, r4, ror ip
 35c:	00000068 	andeq	r0, r0, r8, rrx
 360:	80180e41 	andshi	r0, r8, r1, asr #28
 364:	84058106 	strhi	r8, [r5], #-262	; 0x106
 368:	86038504 	strhi	r8, [r3], -r4, lsl #10
 36c:	00018e02 	andeq	r8, r1, r2, lsl #28
 370:	00000024 	andeq	r0, r0, r4, lsr #32
 374:	00000318 	andeq	r0, r0, r8, lsl r3
 378:	00000cdc 	ldrdeq	r0, [r0], -ip
 37c:	0000041a 	andeq	r0, r0, sl, lsl r4
 380:	84240e42 	strthi	r0, [r4], #-3650	; 0xe42
 384:	86088509 	strhi	r8, [r8], -r9, lsl #10
 388:	88068707 	stmdahi	r6, {r0, r1, r2, r8, r9, sl, pc}
 38c:	8a048905 	bhi	1227a8 <_etext+0x11d9ec>
 390:	8e028b03 	vmlahi.f64	d8, d2, d3
 394:	600e4101 	andvs	r4, lr, r1, lsl #2
 398:	0000000c 	andeq	r0, r0, ip
 39c:	ffffffff 			; <UNDEFINED> instruction: 0xffffffff
 3a0:	7c020001 	stcvc	0, cr0, [r2], {1}
 3a4:	000d0c0e 	andeq	r0, sp, lr, lsl #24
 3a8:	00000020 	andeq	r0, r0, r0, lsr #32
 3ac:	00000398 	muleq	r0, r8, r3
 3b0:	000010f8 	strdeq	r1, [r0], -r8
 3b4:	000000e4 	andeq	r0, r0, r4, ror #1
 3b8:	83200e42 	teqhi	r0, #1056	; 0x420
 3bc:	85078408 	strhi	r8, [r7, #-1032]	; 0x408
 3c0:	87058606 	strhi	r8, [r5, -r6, lsl #12]
 3c4:	89038804 	stmdbhi	r3, {r2, fp, pc}
 3c8:	00018e02 	andeq	r8, r1, r2, lsl #28
 3cc:	00000028 	andeq	r0, r0, r8, lsr #32
 3d0:	00000398 	muleq	r0, r8, r3
 3d4:	000011dc 	ldrdeq	r1, [r0], -ip
 3d8:	00000228 	andeq	r0, r0, r8, lsr #4
 3dc:	80300e42 	eorshi	r0, r0, r2, asr #28
 3e0:	820b810c 	andhi	r8, fp, #12, 2
 3e4:	8409830a 	strhi	r8, [r9], #-778	; 0x30a
 3e8:	86078508 	strhi	r8, [r7], -r8, lsl #10
 3ec:	88058706 	stmdahi	r5, {r1, r2, r8, r9, sl, pc}
 3f0:	8a038904 	bhi	e2808 <_etext+0xdda4c>
 3f4:	00018e02 	andeq	r8, r1, r2, lsl #28
 3f8:	0000000c 	andeq	r0, r0, ip
 3fc:	ffffffff 			; <UNDEFINED> instruction: 0xffffffff
 400:	7c020001 	stcvc	0, cr0, [r2], {1}
 404:	000d0c0e 	andeq	r0, sp, lr, lsl #24
 408:	00000024 	andeq	r0, r0, r4, lsr #32
 40c:	000003f8 	strdeq	r0, [r0], -r8
 410:	00001404 	andeq	r1, r0, r4, lsl #8
 414:	000003d8 	ldrdeq	r0, [r0], -r8
 418:	84240e42 	strthi	r0, [r4], #-3650	; 0xe42
 41c:	86088509 	strhi	r8, [r8], -r9, lsl #10
 420:	88068707 	stmdahi	r6, {r0, r1, r2, r8, r9, sl, pc}
 424:	8a048905 	bhi	122840 <_etext+0x11da84>
 428:	8e028b03 	vmlahi.f64	d8, d2, d3
 42c:	400e4301 	andmi	r4, lr, r1, lsl #6
 430:	0000000c 	andeq	r0, r0, ip
 434:	ffffffff 			; <UNDEFINED> instruction: 0xffffffff
 438:	7c020001 	stcvc	0, cr0, [r2], {1}
 43c:	000d0c0e 	andeq	r0, sp, lr, lsl #24
 440:	00000028 	andeq	r0, r0, r8, lsr #32
 444:	00000430 	andeq	r0, r0, r0, lsr r4
 448:	000017dc 	ldrdeq	r1, [r0], -ip
 44c:	0000011e 	andeq	r0, r0, lr, lsl r1
 450:	80300e42 	eorshi	r0, r0, r2, asr #28
 454:	820b810c 	andhi	r8, fp, #12, 2
 458:	8509840a 	strhi	r8, [r9, #-1034]	; 0x40a
 45c:	87078608 	strhi	r8, [r7, -r8, lsl #12]
 460:	89058806 	stmdbhi	r5, {r1, r2, fp, pc}
 464:	8b038a04 	blhi	e2c7c <_etext+0xddec0>
 468:	00018e02 	andeq	r8, r1, r2, lsl #28
 46c:	00000028 	andeq	r0, r0, r8, lsr #32
 470:	00000430 	andeq	r0, r0, r0, lsr r4
 474:	00001900 	andeq	r1, r0, r0, lsl #18
 478:	00000b80 	andeq	r0, r0, r0, lsl #23
 47c:	84240e42 	strthi	r0, [r4], #-3650	; 0xe42
 480:	86088509 	strhi	r8, [r8], -r9, lsl #10
 484:	88068707 	stmdahi	r6, {r0, r1, r2, r8, r9, sl, pc}
 488:	8a048905 	bhi	1228a4 <_etext+0x11dae8>
 48c:	8e028b03 	vmlahi.f64	d8, d2, d3
 490:	900e4201 	andls	r4, lr, r1, lsl #4
 494:	00000001 	andeq	r0, r0, r1
 498:	0000000c 	andeq	r0, r0, ip
 49c:	ffffffff 			; <UNDEFINED> instruction: 0xffffffff
 4a0:	7c020001 	stcvc	0, cr0, [r2], {1}
 4a4:	000d0c0e 	andeq	r0, sp, lr, lsl #24
 4a8:	0000000c 	andeq	r0, r0, ip
 4ac:	00000498 	muleq	r0, r8, r4
 4b0:	00000000 	andeq	r0, r0, r0
 4b4:	00000004 	andeq	r0, r0, r4
 4b8:	0000000c 	andeq	r0, r0, ip
 4bc:	00000498 	muleq	r0, r8, r4
 4c0:	00000000 	andeq	r0, r0, r0
 4c4:	00000004 	andeq	r0, r0, r4
 4c8:	0000001c 	andeq	r0, r0, ip, lsl r0
 4cc:	00000498 	muleq	r0, r8, r4
 4d0:	00000000 	andeq	r0, r0, r0
 4d4:	00000032 	andeq	r0, r0, r2, lsr r0
 4d8:	83180e41 	tsthi	r8, #1040	; 0x410
 4dc:	85058406 	strhi	r8, [r5, #-1030]	; 0x406
 4e0:	87038604 	strhi	r8, [r3, -r4, lsl #12]
 4e4:	00018e02 	andeq	r8, r1, r2, lsl #28
 4e8:	00000014 	andeq	r0, r0, r4, lsl r0
 4ec:	00000498 	muleq	r0, r8, r4
 4f0:	00000000 	andeq	r0, r0, r0
 4f4:	00000048 	andeq	r0, r0, r8, asr #32
 4f8:	84080e42 	strhi	r0, [r8], #-3650	; 0xe42
 4fc:	00018e02 	andeq	r8, r1, r2, lsl #28
 500:	00000018 	andeq	r0, r0, r8, lsl r0
 504:	00000498 	muleq	r0, r8, r4
 508:	00000000 	andeq	r0, r0, r0
 50c:	0000002c 	andeq	r0, r0, ip, lsr #32
 510:	84100e41 	ldrhi	r0, [r0], #-3649	; 0xe41
 514:	86038504 	strhi	r8, [r3], -r4, lsl #10
 518:	00018e02 	andeq	r8, r1, r2, lsl #28
 51c:	0000000c 	andeq	r0, r0, ip
 520:	00000498 	muleq	r0, r8, r4
 524:	00000000 	andeq	r0, r0, r0
 528:	0000000c 	andeq	r0, r0, ip
 52c:	00000014 	andeq	r0, r0, r4, lsl r0
 530:	00000498 	muleq	r0, r8, r4
 534:	00000000 	andeq	r0, r0, r0
 538:	00000060 	andeq	r0, r0, r0, rrx
 53c:	84080e42 	strhi	r0, [r8], #-3650	; 0xe42
 540:	00018e02 	andeq	r8, r1, r2, lsl #28
 544:	0000001c 	andeq	r0, r0, ip, lsl r0
 548:	00000498 	muleq	r0, r8, r4
 54c:	00000000 	andeq	r0, r0, r0
 550:	00000074 	andeq	r0, r0, r4, ror r0
 554:	83180e41 	tsthi	r8, #1040	; 0x410
 558:	85058406 	strhi	r8, [r5, #-1030]	; 0x406
 55c:	87038604 	strhi	r8, [r3, -r4, lsl #12]
 560:	00018e02 	andeq	r8, r1, r2, lsl #28
 564:	0000000c 	andeq	r0, r0, ip
 568:	00000498 	muleq	r0, r8, r4
 56c:	00000000 	andeq	r0, r0, r0
 570:	00000002 	andeq	r0, r0, r2
 574:	0000000c 	andeq	r0, r0, ip
 578:	00000498 	muleq	r0, r8, r4
 57c:	00000000 	andeq	r0, r0, r0
 580:	00000002 	andeq	r0, r0, r2
 584:	0000000c 	andeq	r0, r0, ip
 588:	00000498 	muleq	r0, r8, r4
 58c:	00000000 	andeq	r0, r0, r0
 590:	00000002 	andeq	r0, r0, r2
 594:	0000000c 	andeq	r0, r0, ip
 598:	00000498 	muleq	r0, r8, r4
 59c:	00000000 	andeq	r0, r0, r0
 5a0:	00000002 	andeq	r0, r0, r2
 5a4:	0000000c 	andeq	r0, r0, ip
 5a8:	00000498 	muleq	r0, r8, r4
 5ac:	00000000 	andeq	r0, r0, r0
 5b0:	00000014 	andeq	r0, r0, r4, lsl r0
 5b4:	0000000c 	andeq	r0, r0, ip
 5b8:	00000498 	muleq	r0, r8, r4
 5bc:	00000000 	andeq	r0, r0, r0
 5c0:	00000014 	andeq	r0, r0, r4, lsl r0
 5c4:	0000000c 	andeq	r0, r0, ip
 5c8:	ffffffff 			; <UNDEFINED> instruction: 0xffffffff
 5cc:	7c020001 	stcvc	0, cr0, [r2], {1}
 5d0:	000d0c0e 	andeq	r0, sp, lr, lsl #24
 5d4:	00000014 	andeq	r0, r0, r4, lsl r0
 5d8:	000005c4 	andeq	r0, r0, r4, asr #11
 5dc:	00000000 	andeq	r0, r0, r0
 5e0:	00000040 	andeq	r0, r0, r0, asr #32
 5e4:	84080e41 	strhi	r0, [r8], #-3649	; 0xe41
 5e8:	00018e02 	andeq	r8, r1, r2, lsl #28
 5ec:	0000000c 	andeq	r0, r0, ip
 5f0:	000005c4 	andeq	r0, r0, r4, asr #11
 5f4:	00000000 	andeq	r0, r0, r0
 5f8:	00000008 	andeq	r0, r0, r8
 5fc:	0000000c 	andeq	r0, r0, ip
 600:	000005c4 	andeq	r0, r0, r4, asr #11
 604:	00000000 	andeq	r0, r0, r0
 608:	0000000c 	andeq	r0, r0, ip
 60c:	0000000c 	andeq	r0, r0, ip
 610:	000005c4 	andeq	r0, r0, r4, asr #11
 614:	00000000 	andeq	r0, r0, r0
 618:	00000008 	andeq	r0, r0, r8
 61c:	0000000c 	andeq	r0, r0, ip
 620:	000005c4 	andeq	r0, r0, r4, asr #11
 624:	00000000 	andeq	r0, r0, r0
 628:	00000004 	andeq	r0, r0, r4
 62c:	0000000c 	andeq	r0, r0, ip
 630:	000005c4 	andeq	r0, r0, r4, asr #11
 634:	00002480 	andeq	r2, r0, r0, lsl #9
 638:	00000008 	andeq	r0, r0, r8
 63c:	0000000c 	andeq	r0, r0, ip
 640:	000005c4 	andeq	r0, r0, r4, asr #11
 644:	00000000 	andeq	r0, r0, r0
 648:	00000014 	andeq	r0, r0, r4, lsl r0
 64c:	0000000c 	andeq	r0, r0, ip
 650:	000005c4 	andeq	r0, r0, r4, asr #11
 654:	00000000 	andeq	r0, r0, r0
 658:	00000008 	andeq	r0, r0, r8
 65c:	0000000c 	andeq	r0, r0, ip
 660:	ffffffff 			; <UNDEFINED> instruction: 0xffffffff
 664:	7c020001 	stcvc	0, cr0, [r2], {1}
 668:	000d0c0e 	andeq	r0, sp, lr, lsl #24
 66c:	00000014 	andeq	r0, r0, r4, lsl r0
 670:	0000065c 	andeq	r0, r0, ip, asr r6
 674:	00002488 	andeq	r2, r0, r8, lsl #9
 678:	0000001c 	andeq	r0, r0, ip, lsl r0
 67c:	84080e41 	strhi	r0, [r8], #-3649	; 0xe41
 680:	00018e02 	andeq	r8, r1, r2, lsl #28
 684:	0000000c 	andeq	r0, r0, ip
 688:	ffffffff 			; <UNDEFINED> instruction: 0xffffffff
 68c:	7c020001 	stcvc	0, cr0, [r2], {1}
 690:	000d0c0e 	andeq	r0, sp, lr, lsl #24
 694:	00000018 	andeq	r0, r0, r8, lsl r0
 698:	00000684 	andeq	r0, r0, r4, lsl #13
 69c:	000024a4 	andeq	r2, r0, r4, lsr #9
 6a0:	00000036 	andeq	r0, r0, r6, lsr r0
 6a4:	84100e42 	ldrhi	r0, [r0], #-3650	; 0xe42
 6a8:	86038504 	strhi	r8, [r3], -r4, lsl #10
 6ac:	00018e02 	andeq	r8, r1, r2, lsl #28
 6b0:	0000000c 	andeq	r0, r0, ip
 6b4:	ffffffff 			; <UNDEFINED> instruction: 0xffffffff
 6b8:	7c020001 	stcvc	0, cr0, [r2], {1}
 6bc:	000d0c0e 	andeq	r0, sp, lr, lsl #24
 6c0:	00000018 	andeq	r0, r0, r8, lsl r0
 6c4:	000006b0 			; <UNDEFINED> instruction: 0x000006b0
 6c8:	000024da 	ldrdeq	r2, [r0], -sl
 6cc:	0000006a 	andeq	r0, r0, sl, rrx
 6d0:	84100e41 	ldrhi	r0, [r0], #-3649	; 0xe41
 6d4:	86038504 	strhi	r8, [r3], -r4, lsl #10
 6d8:	00018e02 	andeq	r8, r1, r2, lsl #28
 6dc:	00000018 	andeq	r0, r0, r8, lsl r0
 6e0:	000006b0 			; <UNDEFINED> instruction: 0x000006b0
 6e4:	00002544 	andeq	r2, r0, r4, asr #10
 6e8:	0000002e 	andeq	r0, r0, lr, lsr #32
 6ec:	84100e41 	ldrhi	r0, [r0], #-3649	; 0xe41
 6f0:	86038504 	strhi	r8, [r3], -r4, lsl #10
 6f4:	00018e02 	andeq	r8, r1, r2, lsl #28
 6f8:	0000001c 	andeq	r0, r0, ip, lsl r0
 6fc:	000006b0 			; <UNDEFINED> instruction: 0x000006b0
 700:	00002572 	andeq	r2, r0, r2, ror r5
 704:	00000074 	andeq	r0, r0, r4, ror r0
 708:	84180e42 	ldrhi	r0, [r8], #-3650	; 0xe42
 70c:	86058506 	strhi	r8, [r5], -r6, lsl #10
 710:	88038704 	stmdahi	r3, {r2, r8, r9, sl, pc}
 714:	00018e02 	andeq	r8, r1, r2, lsl #28
 718:	00000020 	andeq	r0, r0, r0, lsr #32
 71c:	000006b0 			; <UNDEFINED> instruction: 0x000006b0
 720:	000025e6 	andeq	r2, r0, r6, ror #11
 724:	00000084 	andeq	r0, r0, r4, lsl #1
 728:	83200e42 	teqhi	r0, #1056	; 0x420
 72c:	85078408 	strhi	r8, [r7, #-1032]	; 0x408
 730:	87058606 	strhi	r8, [r5, -r6, lsl #12]
 734:	89038804 	stmdbhi	r3, {r2, fp, pc}
 738:	00018e02 	andeq	r8, r1, r2, lsl #28
 73c:	0000000c 	andeq	r0, r0, ip
 740:	000006b0 			; <UNDEFINED> instruction: 0x000006b0
 744:	0000266a 	andeq	r2, r0, sl, ror #12
 748:	00000040 	andeq	r0, r0, r0, asr #32
 74c:	0000000c 	andeq	r0, r0, ip
 750:	000006b0 			; <UNDEFINED> instruction: 0x000006b0
 754:	000026aa 	andeq	r2, r0, sl, lsr #13
 758:	0000005a 	andeq	r0, r0, sl, asr r0
 75c:	00000014 	andeq	r0, r0, r4, lsl r0
 760:	000006b0 			; <UNDEFINED> instruction: 0x000006b0
 764:	00002704 	andeq	r2, r0, r4, lsl #14
 768:	00000012 	andeq	r0, r0, r2, lsl r0
 76c:	84080e41 	strhi	r0, [r8], #-3649	; 0xe41
 770:	00018e02 	andeq	r8, r1, r2, lsl #28
 774:	00000024 	andeq	r0, r0, r4, lsr #32
 778:	000006b0 			; <UNDEFINED> instruction: 0x000006b0
 77c:	00002716 	andeq	r2, r0, r6, lsl r7
 780:	00000130 	andeq	r0, r0, r0, lsr r1
 784:	84240e42 	strthi	r0, [r4], #-3650	; 0xe42
 788:	86088509 	strhi	r8, [r8], -r9, lsl #10
 78c:	88068707 	stmdahi	r6, {r0, r1, r2, r8, r9, sl, pc}
 790:	8a048905 	bhi	122bac <_etext+0x11ddf0>
 794:	8e028b03 	vmlahi.f64	d8, d2, d3
 798:	380e4401 	stmdacc	lr, {r0, sl, lr}
 79c:	0000001c 	andeq	r0, r0, ip, lsl r0
 7a0:	000006b0 			; <UNDEFINED> instruction: 0x000006b0
 7a4:	00002848 	andeq	r2, r0, r8, asr #16
 7a8:	0000009c 	muleq	r0, ip, r0
 7ac:	84180e44 	ldrhi	r0, [r8], #-3652	; 0xe44
 7b0:	86058506 	strhi	r8, [r5], -r6, lsl #10
 7b4:	88038704 	stmdahi	r3, {r2, r8, r9, sl, pc}
 7b8:	00018e02 	andeq	r8, r1, r2, lsl #28
 7bc:	00000020 	andeq	r0, r0, r0, lsr #32
 7c0:	000006b0 			; <UNDEFINED> instruction: 0x000006b0
 7c4:	000028e4 	andeq	r2, r0, r4, ror #17
 7c8:	000000a6 	andeq	r0, r0, r6, lsr #1
 7cc:	84200e42 	strthi	r0, [r0], #-3650	; 0xe42
 7d0:	86078508 	strhi	r8, [r7], -r8, lsl #10
 7d4:	88058706 	stmdahi	r5, {r1, r2, r8, r9, sl, pc}
 7d8:	8a038904 	bhi	e2bf0 <_etext+0xdde34>
 7dc:	00018e02 	andeq	r8, r1, r2, lsl #28
 7e0:	00000014 	andeq	r0, r0, r4, lsl r0
 7e4:	000006b0 			; <UNDEFINED> instruction: 0x000006b0
 7e8:	0000298a 	andeq	r2, r0, sl, lsl #19
 7ec:	0000003a 	andeq	r0, r0, sl, lsr r0
 7f0:	84080e43 	strhi	r0, [r8], #-3651	; 0xe43
 7f4:	00018e02 	andeq	r8, r1, r2, lsl #28
 7f8:	00000020 	andeq	r0, r0, r0, lsr #32
 7fc:	000006b0 			; <UNDEFINED> instruction: 0x000006b0
 800:	000029c4 	andeq	r2, r0, r4, asr #19
 804:	000000be 	strheq	r0, [r0], -lr
 808:	84200e42 	strthi	r0, [r0], #-3650	; 0xe42
 80c:	86078508 	strhi	r8, [r7], -r8, lsl #10
 810:	88058706 	stmdahi	r5, {r1, r2, r8, r9, sl, pc}
 814:	8a038904 	bhi	e2c2c <_etext+0xdde70>
 818:	00018e02 	andeq	r8, r1, r2, lsl #28
 81c:	0000000c 	andeq	r0, r0, ip
 820:	000006b0 			; <UNDEFINED> instruction: 0x000006b0
 824:	00002a84 	andeq	r2, r0, r4, lsl #21
 828:	00000044 	andeq	r0, r0, r4, asr #32
 82c:	0000001c 	andeq	r0, r0, ip, lsl r0
 830:	000006b0 			; <UNDEFINED> instruction: 0x000006b0
 834:	00002ac8 	andeq	r2, r0, r8, asr #21
 838:	000000a6 	andeq	r0, r0, r6, lsr #1
 83c:	84180e42 	ldrhi	r0, [r8], #-3650	; 0xe42
 840:	86058506 	strhi	r8, [r5], -r6, lsl #10
 844:	88038704 	stmdahi	r3, {r2, r8, r9, sl, pc}
 848:	00018e02 	andeq	r8, r1, r2, lsl #28
 84c:	00000024 	andeq	r0, r0, r4, lsr #32
 850:	000006b0 			; <UNDEFINED> instruction: 0x000006b0
 854:	00002b6e 	andeq	r2, r0, lr, ror #22
 858:	000000a4 	andeq	r0, r0, r4, lsr #1
 85c:	80280e42 	eorhi	r0, r8, r2, asr #28
 860:	8209810a 	andhi	r8, r9, #-2147483646	; 0x80000002
 864:	85078408 	strhi	r8, [r7, #-1032]	; 0x408
 868:	87058606 	strhi	r8, [r5, -r6, lsl #12]
 86c:	89038804 	stmdbhi	r3, {r2, fp, pc}
 870:	00018e02 	andeq	r8, r1, r2, lsl #28
 874:	00000020 	andeq	r0, r0, r0, lsr #32
 878:	000006b0 			; <UNDEFINED> instruction: 0x000006b0
 87c:	00002c12 	andeq	r2, r0, r2, lsl ip
 880:	0000004a 	andeq	r0, r0, sl, asr #32
 884:	80200e42 	eorhi	r0, r0, r2, asr #28
 888:	84078108 	strhi	r8, [r7], #-264	; 0x108
 88c:	86058506 	strhi	r8, [r5], -r6, lsl #10
 890:	88038704 	stmdahi	r3, {r2, r8, r9, sl, pc}
 894:	00018e02 	andeq	r8, r1, r2, lsl #28
 898:	00000014 	andeq	r0, r0, r4, lsl r0
 89c:	000006b0 			; <UNDEFINED> instruction: 0x000006b0
 8a0:	00000000 	andeq	r0, r0, r0
 8a4:	00000034 	andeq	r0, r0, r4, lsr r0
 8a8:	84080e42 	strhi	r0, [r8], #-3650	; 0xe42
 8ac:	00018e02 	andeq	r8, r1, r2, lsl #28
 8b0:	00000014 	andeq	r0, r0, r4, lsl r0
 8b4:	000006b0 			; <UNDEFINED> instruction: 0x000006b0
 8b8:	00002c5c 	andeq	r2, r0, ip, asr ip
 8bc:	00000032 	andeq	r0, r0, r2, lsr r0
 8c0:	84080e41 	strhi	r0, [r8], #-3649	; 0xe41
 8c4:	00018e02 	andeq	r8, r1, r2, lsl #28
 8c8:	00000014 	andeq	r0, r0, r4, lsl r0
 8cc:	000006b0 			; <UNDEFINED> instruction: 0x000006b0
 8d0:	00002c8e 	andeq	r2, r0, lr, lsl #25
 8d4:	00000048 	andeq	r0, r0, r8, asr #32
 8d8:	84080e46 	strhi	r0, [r8], #-3654	; 0xe46
 8dc:	00018e02 	andeq	r8, r1, r2, lsl #28
 8e0:	0000000c 	andeq	r0, r0, ip
 8e4:	ffffffff 			; <UNDEFINED> instruction: 0xffffffff
 8e8:	7c020001 	stcvc	0, cr0, [r2], {1}
 8ec:	000d0c0e 	andeq	r0, sp, lr, lsl #24
 8f0:	00000018 	andeq	r0, r0, r8, lsl r0
 8f4:	000008e0 	andeq	r0, r0, r0, ror #17
 8f8:	00002cd6 	ldrdeq	r2, [r0], -r6
 8fc:	0000001c 	andeq	r0, r0, ip, lsl r0
 900:	83100e41 	tsthi	r0, #1040	; 0x410
 904:	85038404 	strhi	r8, [r3, #-1028]	; 0x404
 908:	00018e02 	andeq	r8, r1, r2, lsl #28
 90c:	0000000c 	andeq	r0, r0, ip
 910:	ffffffff 			; <UNDEFINED> instruction: 0xffffffff
 914:	7c020001 	stcvc	0, cr0, [r2], {1}
 918:	000d0c0e 	andeq	r0, sp, lr, lsl #24
 91c:	0000001c 	andeq	r0, r0, ip, lsl r0
 920:	0000090c 	andeq	r0, r0, ip, lsl #18
 924:	00002cf2 	strdeq	r2, [r0], -r2	; <UNPREDICTABLE>
 928:	0000004c 	andeq	r0, r0, ip, asr #32
 92c:	83180e41 	tsthi	r8, #1040	; 0x410
 930:	85058406 	strhi	r8, [r5, #-1030]	; 0x406
 934:	87038604 	strhi	r8, [r3, -r4, lsl #12]
 938:	00018e02 	andeq	r8, r1, r2, lsl #28
 93c:	0000000c 	andeq	r0, r0, ip
 940:	ffffffff 			; <UNDEFINED> instruction: 0xffffffff
 944:	7c020001 	stcvc	0, cr0, [r2], {1}
 948:	000d0c0e 	andeq	r0, sp, lr, lsl #24
 94c:	00000018 	andeq	r0, r0, r8, lsl r0
 950:	0000093c 	andeq	r0, r0, ip, lsr r9
 954:	00000000 	andeq	r0, r0, r0
 958:	0000001a 	andeq	r0, r0, sl, lsl r0
 95c:	83100e41 	tsthi	r0, #1040	; 0x410
 960:	85038404 	strhi	r8, [r3, #-1028]	; 0x404
 964:	00018e02 	andeq	r8, r1, r2, lsl #28
 968:	00000018 	andeq	r0, r0, r8, lsl r0
 96c:	0000093c 	andeq	r0, r0, ip, lsr r9
 970:	00000000 	andeq	r0, r0, r0
 974:	000000bc 	strheq	r0, [r0], -ip
 978:	84100e42 	ldrhi	r0, [r0], #-3650	; 0xe42
 97c:	86038504 	strhi	r8, [r3], -r4, lsl #10
 980:	00018e02 	andeq	r8, r1, r2, lsl #28
 984:	0000000c 	andeq	r0, r0, ip
 988:	ffffffff 			; <UNDEFINED> instruction: 0xffffffff
 98c:	7c020001 	stcvc	0, cr0, [r2], {1}
 990:	000d0c0e 	andeq	r0, sp, lr, lsl #24
 994:	00000014 	andeq	r0, r0, r4, lsl r0
 998:	00000984 	andeq	r0, r0, r4, lsl #19
 99c:	00002d40 	andeq	r2, r0, r0, asr #26
 9a0:	00000044 	andeq	r0, r0, r4, asr #32
 9a4:	84080e43 	strhi	r0, [r8], #-3651	; 0xe43
 9a8:	00018e02 	andeq	r8, r1, r2, lsl #28
 9ac:	0000000c 	andeq	r0, r0, ip
 9b0:	ffffffff 			; <UNDEFINED> instruction: 0xffffffff
 9b4:	7c020001 	stcvc	0, cr0, [r2], {1}
 9b8:	000d0c0e 	andeq	r0, sp, lr, lsl #24
 9bc:	0000000c 	andeq	r0, r0, ip
 9c0:	000009ac 	andeq	r0, r0, ip, lsr #19
 9c4:	00002d84 	andeq	r2, r0, r4, lsl #27
 9c8:	00000008 	andeq	r0, r0, r8
 9cc:	0000000c 	andeq	r0, r0, ip
 9d0:	ffffffff 			; <UNDEFINED> instruction: 0xffffffff
 9d4:	7c020001 	stcvc	0, cr0, [r2], {1}
 9d8:	000d0c0e 	andeq	r0, sp, lr, lsl #24
 9dc:	00000018 	andeq	r0, r0, r8, lsl r0
 9e0:	000009cc 	andeq	r0, r0, ip, asr #19
 9e4:	00002d8c 	andeq	r2, r0, ip, lsl #27
 9e8:	00000028 	andeq	r0, r0, r8, lsr #32
 9ec:	840c0e41 	strhi	r0, [ip], #-3649	; 0xe41
 9f0:	8e028503 	cfsh32hi	mvfx8, mvfx2, #3
 9f4:	00000001 	andeq	r0, r0, r1
 9f8:	0000001c 	andeq	r0, r0, ip, lsl r0
 9fc:	000009cc 	andeq	r0, r0, ip, asr #19
 a00:	00002db4 			; <UNDEFINED> instruction: 0x00002db4
 a04:	0000003e 	andeq	r0, r0, lr, lsr r0
 a08:	84180e42 	ldrhi	r0, [r8], #-3650	; 0xe42
 a0c:	86058506 	strhi	r8, [r5], -r6, lsl #10
 a10:	88038704 	stmdahi	r3, {r2, r8, r9, sl, pc}
 a14:	00018e02 	andeq	r8, r1, r2, lsl #28
 a18:	00000028 	andeq	r0, r0, r8, lsr #32
 a1c:	000009cc 	andeq	r0, r0, ip, asr #19
 a20:	00002df8 	strdeq	r2, [r0], -r8
 a24:	00000c38 	andeq	r0, r0, r8, lsr ip
 a28:	84240e42 	strthi	r0, [r4], #-3650	; 0xe42
 a2c:	86088509 	strhi	r8, [r8], -r9, lsl #10
 a30:	88068707 	stmdahi	r6, {r0, r1, r2, r8, r9, sl, pc}
 a34:	8a048905 	bhi	122e50 <_etext+0x11e094>
 a38:	8e028b03 	vmlahi.f64	d8, d2, d3
 a3c:	a00e4201 	andge	r4, lr, r1, lsl #4
 a40:	00000001 	andeq	r0, r0, r1
 a44:	0000000c 	andeq	r0, r0, ip
 a48:	000009cc 	andeq	r0, r0, ip, asr #19
 a4c:	00000000 	andeq	r0, r0, r0
 a50:	00000014 	andeq	r0, r0, r4, lsl r0
 a54:	00000018 	andeq	r0, r0, r8, lsl r0
 a58:	000009cc 	andeq	r0, r0, ip, asr #19
 a5c:	00000000 	andeq	r0, r0, r0
 a60:	00000030 	andeq	r0, r0, r0, lsr r0
 a64:	83100e43 	tsthi	r0, #1072	; 0x430
 a68:	85038404 	strhi	r8, [r3, #-1028]	; 0x404
 a6c:	00018e02 	andeq	r8, r1, r2, lsl #28
 a70:	0000000c 	andeq	r0, r0, ip
 a74:	ffffffff 			; <UNDEFINED> instruction: 0xffffffff
 a78:	7c020001 	stcvc	0, cr0, [r2], {1}
 a7c:	000d0c0e 	andeq	r0, sp, lr, lsl #24
 a80:	0000001c 	andeq	r0, r0, ip, lsl r0
 a84:	00000a70 	andeq	r0, r0, r0, ror sl
 a88:	00003a30 	andeq	r3, r0, r0, lsr sl
 a8c:	0000006a 	andeq	r0, r0, sl, rrx
 a90:	84140e41 	ldrhi	r0, [r4], #-3649	; 0xe41
 a94:	86048505 	strhi	r8, [r4], -r5, lsl #10
 a98:	8e028703 	cdphi	7, 0, cr8, cr2, cr3, {0}
 a9c:	00000001 	andeq	r0, r0, r1
 aa0:	0000000c 	andeq	r0, r0, ip
 aa4:	00000a70 	andeq	r0, r0, r0, ror sl
 aa8:	00003a9a 	muleq	r0, sl, sl
 aac:	0000002a 	andeq	r0, r0, sl, lsr #32
 ab0:	00000024 	andeq	r0, r0, r4, lsr #32
 ab4:	00000a70 	andeq	r0, r0, r0, ror sl
 ab8:	00003ac4 	andeq	r3, r0, r4, asr #21
 abc:	0000045e 	andeq	r0, r0, lr, asr r4
 ac0:	84240e42 	strthi	r0, [r4], #-3650	; 0xe42
 ac4:	86088509 	strhi	r8, [r8], -r9, lsl #10
 ac8:	88068707 	stmdahi	r6, {r0, r1, r2, r8, r9, sl, pc}
 acc:	8a048905 	bhi	122ee8 <_etext+0x11e12c>
 ad0:	8e028b03 	vmlahi.f64	d8, d2, d3
 ad4:	480e4101 	stmdami	lr, {r0, r8, lr}
 ad8:	0000000c 	andeq	r0, r0, ip
 adc:	ffffffff 			; <UNDEFINED> instruction: 0xffffffff
 ae0:	7c020001 	stcvc	0, cr0, [r2], {1}
 ae4:	000d0c0e 	andeq	r0, sp, lr, lsl #24
 ae8:	00000018 	andeq	r0, r0, r8, lsl r0
 aec:	00000ad8 	ldrdeq	r0, [r0], -r8
 af0:	00003f22 	andeq	r3, r0, r2, lsr #30
 af4:	00000026 	andeq	r0, r0, r6, lsr #32
 af8:	84100e44 	ldrhi	r0, [r0], #-3652	; 0xe44
 afc:	86038504 	strhi	r8, [r3], -r4, lsl #10
 b00:	00018e02 	andeq	r8, r1, r2, lsl #28
 b04:	00000024 	andeq	r0, r0, r4, lsr #32
 b08:	00000ad8 	ldrdeq	r0, [r0], -r8
 b0c:	00003f48 	andeq	r3, r0, r8, asr #30
 b10:	00000120 	andeq	r0, r0, r0, lsr #2
 b14:	84240e42 	strthi	r0, [r4], #-3650	; 0xe42
 b18:	86088509 	strhi	r8, [r8], -r9, lsl #10
 b1c:	88068707 	stmdahi	r6, {r0, r1, r2, r8, r9, sl, pc}
 b20:	8a048905 	bhi	122f3c <_etext+0x11e180>
 b24:	8e028b03 	vmlahi.f64	d8, d2, d3
 b28:	380e4201 	stmdacc	lr, {r0, r9, lr}
 b2c:	0000000c 	andeq	r0, r0, ip
 b30:	ffffffff 			; <UNDEFINED> instruction: 0xffffffff
 b34:	7c020001 	stcvc	0, cr0, [r2], {1}
 b38:	000d0c0e 	andeq	r0, sp, lr, lsl #24
 b3c:	0000000c 	andeq	r0, r0, ip
 b40:	00000b2c 	andeq	r0, r0, ip, lsr #22
 b44:	00004068 	andeq	r4, r0, r8, rrx
 b48:	00000012 	andeq	r0, r0, r2, lsl r0
 b4c:	0000000c 	andeq	r0, r0, ip
 b50:	ffffffff 			; <UNDEFINED> instruction: 0xffffffff
 b54:	7c020001 	stcvc	0, cr0, [r2], {1}
 b58:	000d0c0e 	andeq	r0, sp, lr, lsl #24
 b5c:	0000000c 	andeq	r0, r0, ip
 b60:	00000b4c 	andeq	r0, r0, ip, asr #22
 b64:	00004a50 	andeq	r4, r0, r0, asr sl
 b68:	00000034 	andeq	r0, r0, r4, lsr r0

Disassembly of section .stabstr:

00000000 <.stabstr>:
   0:	74656700 	strbtvc	r6, [r5], #-1792	; 0x700
   4:	2e646970 	mcrcs	9, 3, r6, cr4, cr0, {3}
   8:	675f0063 	ldrbvs	r0, [pc, -r3, rrx]
   c:	69707465 	ldmdbvs	r0!, {r0, r2, r5, r6, sl, ip, sp, lr}^
  10:	73692064 	cmnvc	r9, #100	; 0x64
  14:	746f6e20 	strbtvc	r6, [pc], #-3616	; 1c <__isr_vector+0x1c>
  18:	706d6920 	rsbvc	r6, sp, r0, lsr #18
  1c:	656d656c 	strbvs	r6, [sp, #-1388]!	; 0x56c
  20:	6465746e 	strbtvs	r7, [r5], #-1134	; 0x46e
  24:	646e6120 	strbtvs	r6, [lr], #-288	; 0x120
  28:	6c697720 	stclvs	7, cr7, [r9], #-128	; 0xffffff80
  2c:	6c61206c 	stclvs	0, cr2, [r1], #-432	; 0xfffffe50
  30:	73796177 	cmnvc	r9, #-1073741795	; 0xc000001d
  34:	69616620 	stmdbvs	r1!, {r5, r9, sl, sp, lr}^
  38:	675f006c 	ldrbvs	r0, [pc, -ip, rrx]
  3c:	69707465 	ldmdbvs	r0!, {r0, r2, r5, r6, sl, ip, sp, lr}^
  40:	695f0064 	ldmdbvs	pc, {r2, r5, r6}^	; <UNPREDICTABLE>
  44:	74746173 	ldrbtvc	r6, [r4], #-371	; 0x173
  48:	73692079 	cmnvc	r9, #121	; 0x79
  4c:	746f6e20 	strbtvc	r6, [pc], #-3616	; 54 <__isr_vector+0x54>
  50:	706d6920 	rsbvc	r6, sp, r0, lsr #18
  54:	656d656c 	strbvs	r6, [sp, #-1388]!	; 0x56c
  58:	6465746e 	strbtvs	r7, [r5], #-1134	; 0x46e
  5c:	646e6120 	strbtvs	r6, [lr], #-288	; 0x120
  60:	6c697720 	stclvs	7, cr7, [r9], #-128	; 0xffffff80
  64:	6c61206c 	stclvs	0, cr2, [r1], #-432	; 0xfffffe50
  68:	73796177 	cmnvc	r9, #-1073741795	; 0xc000001d
  6c:	69616620 	stmdbvs	r1!, {r5, r9, sl, sp, lr}^
  70:	695f006c 	ldmdbvs	pc, {r2, r3, r5, r6}^	; <UNPREDICTABLE>
  74:	74746173 	ldrbtvc	r6, [r4], #-371	; 0x173
  78:	6b5f0079 	blvs	17c0264 <_etext+0x17bb4a8>
  7c:	206c6c69 	rsbcs	r6, ip, r9, ror #24
  80:	6e207369 	cdpvs	3, 2, cr7, cr0, cr9, {3}
  84:	6920746f 	stmdbvs	r0!, {r0, r1, r2, r3, r5, r6, sl, ip, sp, lr}
  88:	656c706d 	strbvs	r7, [ip, #-109]!	; 0x6d
  8c:	746e656d 	strbtvc	r6, [lr], #-1389	; 0x56d
  90:	61206465 	teqvs	r0, r5, ror #8
  94:	7720646e 	strvc	r6, [r0, -lr, ror #8]!
  98:	206c6c69 	rsbcs	r6, ip, r9, ror #24
  9c:	61776c61 	cmnvs	r7, r1, ror #24
  a0:	66207379 			; <UNDEFINED> instruction: 0x66207379
  a4:	006c6961 	rsbeq	r6, ip, r1, ror #18
  a8:	6c696b5f 	stclvs	11, cr6, [r9], #-380	; 0xfffffe84
  ac:	Address 0x00000000000000ac is out of bounds.

