
HelloWorld.elf:     file format elf32-littlearm


Disassembly of section .text:

00000000 <__isr_vector>:
       0:	10008000 	andne	r8, r0, r0
       4:	000001f5 	strdeq	r0, [r0], -r5
       8:	00000229 	andeq	r0, r0, r9, lsr #4
       c:	0000022b 	andeq	r0, r0, fp, lsr #4
      10:	0000022d 	andeq	r0, r0, sp, lsr #4
      14:	0000022f 	andeq	r0, r0, pc, lsr #4
      18:	00000231 	andeq	r0, r0, r1, lsr r2
	...
      2c:	00000233 	andeq	r0, r0, r3, lsr r2
      30:	00000235 	andeq	r0, r0, r5, lsr r2
      34:	00000000 	andeq	r0, r0, r0
      38:	00000237 	andeq	r0, r0, r7, lsr r2
      3c:	00000239 	andeq	r0, r0, r9, lsr r2
      40:	0000023d 	andeq	r0, r0, sp, lsr r2
      44:	0000023f 	andeq	r0, r0, pc, lsr r2
      48:	00000241 	andeq	r0, r0, r1, asr #4
      4c:	00000243 	andeq	r0, r0, r3, asr #4
      50:	00000245 	andeq	r0, r0, r5, asr #4
      54:	00000247 	andeq	r0, r0, r7, asr #4
      58:	00000249 	andeq	r0, r0, r9, asr #4
      5c:	0000024b 	andeq	r0, r0, fp, asr #4
      60:	0000024d 	andeq	r0, r0, sp, asr #4
      64:	0000024f 	andeq	r0, r0, pc, asr #4
      68:	00000251 	andeq	r0, r0, r1, asr r2
      6c:	00000253 	andeq	r0, r0, r3, asr r2
      70:	00000255 	andeq	r0, r0, r5, asr r2
      74:	00000257 	andeq	r0, r0, r7, asr r2
      78:	00000259 	andeq	r0, r0, r9, asr r2
      7c:	0000025b 	andeq	r0, r0, fp, asr r2
      80:	0000025d 	andeq	r0, r0, sp, asr r2
      84:	0000025f 	andeq	r0, r0, pc, asr r2
      88:	00000261 	andeq	r0, r0, r1, ror #4
      8c:	00000263 	andeq	r0, r0, r3, ror #4
      90:	00000265 	andeq	r0, r0, r5, ror #4
      94:	00000267 	andeq	r0, r0, r7, ror #4
      98:	00000269 	andeq	r0, r0, r9, ror #4
      9c:	0000026b 	andeq	r0, r0, fp, ror #4
      a0:	0000026d 	andeq	r0, r0, sp, ror #4
      a4:	0000026f 	andeq	r0, r0, pc, ror #4
      a8:	00000271 	andeq	r0, r0, r1, ror r2
      ac:	00000273 	andeq	r0, r0, r3, ror r2
      b0:	00000275 	andeq	r0, r0, r5, ror r2
      b4:	00000277 	andeq	r0, r0, r7, ror r2
      b8:	00000279 	andeq	r0, r0, r9, ror r2
      bc:	0000027b 	andeq	r0, r0, fp, ror r2
      c0:	0000027d 	andeq	r0, r0, sp, ror r2
      c4:	0000027f 	andeq	r0, r0, pc, ror r2
      c8:	00000281 	andeq	r0, r0, r1, lsl #5

000000cc <_mainCRTStartup>:
      cc:	4b15      	ldr	r3, [pc, #84]	; (124 <_mainCRTStartup+0x58>)
      ce:	2b00      	cmp	r3, #0
      d0:	bf08      	it	eq
      d2:	4b13      	ldreq	r3, [pc, #76]	; (120 <_mainCRTStartup+0x54>)
      d4:	469d      	mov	sp, r3
      d6:	f5a3 3a80 	sub.w	sl, r3, #65536	; 0x10000
      da:	2100      	movs	r1, #0
      dc:	468b      	mov	fp, r1
      de:	460f      	mov	r7, r1
      e0:	4813      	ldr	r0, [pc, #76]	; (130 <_mainCRTStartup+0x64>)
      e2:	4a14      	ldr	r2, [pc, #80]	; (134 <_mainCRTStartup+0x68>)
      e4:	1a12      	subs	r2, r2, r0
      e6:	f000 faa8 	bl	63a <memset>
      ea:	4b0f      	ldr	r3, [pc, #60]	; (128 <_mainCRTStartup+0x5c>)
      ec:	2b00      	cmp	r3, #0
      ee:	d000      	beq.n	f2 <_mainCRTStartup+0x26>
      f0:	4798      	blx	r3
      f2:	4b0e      	ldr	r3, [pc, #56]	; (12c <_mainCRTStartup+0x60>)
      f4:	2b00      	cmp	r3, #0
      f6:	d000      	beq.n	fa <_mainCRTStartup+0x2e>
      f8:	4798      	blx	r3
      fa:	2000      	movs	r0, #0
      fc:	2100      	movs	r1, #0
      fe:	0004      	movs	r4, r0
     100:	000d      	movs	r5, r1
     102:	480d      	ldr	r0, [pc, #52]	; (138 <_mainCRTStartup+0x6c>)
     104:	2800      	cmp	r0, #0
     106:	d002      	beq.n	10e <_mainCRTStartup+0x42>
     108:	480c      	ldr	r0, [pc, #48]	; (13c <_mainCRTStartup+0x70>)
     10a:	f3af 8000 	nop.w
     10e:	f000 fa5d 	bl	5cc <__libc_init_array>
     112:	0020      	movs	r0, r4
     114:	0029      	movs	r1, r5
     116:	f000 f813 	bl	140 <main>
     11a:	f000 f8b3 	bl	284 <exit>
     11e:	bf00      	nop
     120:	00080000 	andeq	r0, r8, r0
     124:	10008000 	andne	r8, r0, r0
	...
     130:	1000016c 	andne	r0, r0, ip, ror #2
     134:	1000019c 	mulne	r0, ip, r1
	...

00000140 <main>:
     140:	b508      	push	{r3, lr}
     142:	4c07      	ldr	r4, [pc, #28]	; (160 <main+0x20>)
     144:	4807      	ldr	r0, [pc, #28]	; (164 <main+0x24>)
     146:	6963      	ldr	r3, [r4, #20]
     148:	69a2      	ldr	r2, [r4, #24]
     14a:	619a      	str	r2, [r3, #24]
     14c:	f000 f948 	bl	3e0 <wait>
     150:	6963      	ldr	r3, [r4, #20]
     152:	69a2      	ldr	r2, [r4, #24]
     154:	4803      	ldr	r0, [pc, #12]	; (164 <main+0x24>)
     156:	61da      	str	r2, [r3, #28]
     158:	f000 f942 	bl	3e0 <wait>
     15c:	e7f1      	b.n	142 <main+0x2>
     15e:	bf00      	nop
     160:	1000016c 	andne	r0, r0, ip, ror #2
     164:	3e4ccccd 	cdpcc	12, 4, cr12, cr12, cr13, {6}

00000168 <SystemInit>:
     168:	f44f 4140 	mov.w	r1, #49152	; 0xc000
     16c:	f2c4 010f 	movt	r1, #16399	; 0x400f
     170:	2320      	movs	r3, #32
     172:	f8c1 31a0 	str.w	r3, [r1, #416]	; 0x1a0
     176:	f8d1 21a0 	ldr.w	r2, [r1, #416]	; 0x1a0
     17a:	f44f 4340 	mov.w	r3, #49152	; 0xc000
     17e:	0650      	lsls	r0, r2, #25
     180:	f2c4 030f 	movt	r3, #16399	; 0x400f
     184:	d5f7      	bpl.n	176 <SystemInit+0xe>
     186:	2201      	movs	r2, #1
     188:	2102      	movs	r1, #2
     18a:	200b      	movs	r0, #11
     18c:	f8c3 1104 	str.w	r1, [r3, #260]	; 0x104
     190:	f8c3 210c 	str.w	r2, [r3, #268]	; 0x10c
     194:	f8c3 0084 	str.w	r0, [r3, #132]	; 0x84
     198:	f8c3 2080 	str.w	r2, [r3, #128]	; 0x80
     19c:	22aa      	movs	r2, #170	; 0xaa
     19e:	f8c3 208c 	str.w	r2, [r3, #140]	; 0x8c
     1a2:	2255      	movs	r2, #85	; 0x55
     1a4:	4619      	mov	r1, r3
     1a6:	f8c3 208c 	str.w	r2, [r3, #140]	; 0x8c
     1aa:	f8d1 2088 	ldr.w	r2, [r1, #136]	; 0x88
     1ae:	f44f 4340 	mov.w	r3, #49152	; 0xc000
     1b2:	0152      	lsls	r2, r2, #5
     1b4:	f2c4 030f 	movt	r3, #16399	; 0x400f
     1b8:	d5f7      	bpl.n	1aa <SystemInit+0x42>
     1ba:	2003      	movs	r0, #3
     1bc:	f8c3 0080 	str.w	r0, [r3, #128]	; 0x80
     1c0:	20aa      	movs	r0, #170	; 0xaa
     1c2:	f8c3 008c 	str.w	r0, [r3, #140]	; 0x8c
     1c6:	f248 71de 	movw	r1, #34782	; 0x87de
     1ca:	2055      	movs	r0, #85	; 0x55
     1cc:	f8c3 008c 	str.w	r0, [r3, #140]	; 0x8c
     1d0:	2200      	movs	r2, #0
     1d2:	f2c0 4128 	movt	r1, #1064	; 0x428
     1d6:	2005      	movs	r0, #5
     1d8:	f8c3 0108 	str.w	r0, [r3, #264]	; 0x108
     1dc:	f8c3 21a8 	str.w	r2, [r3, #424]	; 0x1a8
     1e0:	f8c3 21ac 	str.w	r2, [r3, #428]	; 0x1ac
     1e4:	f8c3 10c4 	str.w	r1, [r3, #196]	; 0xc4
     1e8:	f8c3 21c8 	str.w	r2, [r3, #456]	; 0x1c8
     1ec:	f243 023a 	movw	r2, #12346	; 0x303a
     1f0:	601a      	str	r2, [r3, #0]
     1f2:	4770      	bx	lr

000001f4 <Reset_Handler>:
     1f4:	4907      	ldr	r1, [pc, #28]	; (214 <.flash_to_ram_loop+0x1a>)
     1f6:	4a08      	ldr	r2, [pc, #32]	; (218 <.flash_to_ram_loop+0x1e>)
     1f8:	4b08      	ldr	r3, [pc, #32]	; (21c <.flash_to_ram_loop+0x22>)

000001fa <.flash_to_ram_loop>:
     1fa:	429a      	cmp	r2, r3
     1fc:	bfbe      	ittt	lt
     1fe:	f851 0b04 	ldrlt.w	r0, [r1], #4
     202:	f842 0b04 	strlt.w	r0, [r2], #4
     206:	f7ff bff8 	blt.w	1fa <.flash_to_ram_loop>
     20a:	4805      	ldr	r0, [pc, #20]	; (220 <.flash_to_ram_loop+0x26>)
     20c:	4780      	blx	r0
     20e:	4805      	ldr	r0, [pc, #20]	; (224 <.flash_to_ram_loop+0x2a>)
     210:	4700      	bx	r0
     212:	4dbc0000 	ldcmi	0, cr0, [ip]
     216:	00c80000 	sbceq	r0, r8, r0
     21a:	016c1000 	cmneq	ip, r0
     21e:	01691000 	cmneq	r9, r0
     222:	00cd0000 	sbceq	r0, sp, r0
	...

00000228 <NMI_Handler>:
     228:	e7fe      	b.n	228 <NMI_Handler>

0000022a <HardFault_Handler>:
     22a:	e7fe      	b.n	22a <HardFault_Handler>

0000022c <MemManage_Handler>:
     22c:	e7fe      	b.n	22c <MemManage_Handler>

0000022e <BusFault_Handler>:
     22e:	e7fe      	b.n	22e <BusFault_Handler>

00000230 <UsageFault_Handler>:
     230:	e7fe      	b.n	230 <UsageFault_Handler>

00000232 <SVC_Handler>:
     232:	e7fe      	b.n	232 <SVC_Handler>

00000234 <DebugMon_Handler>:
     234:	e7fe      	b.n	234 <DebugMon_Handler>

00000236 <PendSV_Handler>:
     236:	e7fe      	b.n	236 <PendSV_Handler>

00000238 <SysTick_Handler>:
     238:	e7fe      	b.n	238 <SysTick_Handler>

0000023a <DEF_IRQHandler>:
     23a:	e7fe      	b.n	23a <DEF_IRQHandler>

0000023c <WDT_IRQHandler>:
     23c:	e7fe      	b.n	23c <WDT_IRQHandler>

0000023e <TIMER0_IRQHandler>:
     23e:	e7fe      	b.n	23e <TIMER0_IRQHandler>

00000240 <TIMER1_IRQHandler>:
     240:	e7fe      	b.n	240 <TIMER1_IRQHandler>

00000242 <TIMER2_IRQHandler>:
     242:	e7fe      	b.n	242 <TIMER2_IRQHandler>

00000244 <TIMER3_IRQHandler>:
     244:	e7fe      	b.n	244 <TIMER3_IRQHandler>

00000246 <UART0_IRQHandler>:
     246:	e7fe      	b.n	246 <UART0_IRQHandler>

00000248 <UART1_IRQHandler>:
     248:	e7fe      	b.n	248 <UART1_IRQHandler>

0000024a <UART2_IRQHandler>:
     24a:	e7fe      	b.n	24a <UART2_IRQHandler>

0000024c <UART3_IRQHandler>:
     24c:	e7fe      	b.n	24c <UART3_IRQHandler>

0000024e <PWM1_IRQHandler>:
     24e:	e7fe      	b.n	24e <PWM1_IRQHandler>

00000250 <I2C0_IRQHandler>:
     250:	e7fe      	b.n	250 <I2C0_IRQHandler>

00000252 <I2C1_IRQHandler>:
     252:	e7fe      	b.n	252 <I2C1_IRQHandler>

00000254 <I2C2_IRQHandler>:
     254:	e7fe      	b.n	254 <I2C2_IRQHandler>

00000256 <SPI_IRQHandler>:
     256:	e7fe      	b.n	256 <SPI_IRQHandler>

00000258 <SSP0_IRQHandler>:
     258:	e7fe      	b.n	258 <SSP0_IRQHandler>

0000025a <SSP1_IRQHandler>:
     25a:	e7fe      	b.n	25a <SSP1_IRQHandler>

0000025c <PLL0_IRQHandler>:
     25c:	e7fe      	b.n	25c <PLL0_IRQHandler>

0000025e <RTC_IRQHandler>:
     25e:	e7fe      	b.n	25e <RTC_IRQHandler>

00000260 <EINT0_IRQHandler>:
     260:	e7fe      	b.n	260 <EINT0_IRQHandler>

00000262 <EINT1_IRQHandler>:
     262:	e7fe      	b.n	262 <EINT1_IRQHandler>

00000264 <EINT2_IRQHandler>:
     264:	e7fe      	b.n	264 <EINT2_IRQHandler>

00000266 <EINT3_IRQHandler>:
     266:	e7fe      	b.n	266 <EINT3_IRQHandler>

00000268 <ADC_IRQHandler>:
     268:	e7fe      	b.n	268 <ADC_IRQHandler>

0000026a <BOD_IRQHandler>:
     26a:	e7fe      	b.n	26a <BOD_IRQHandler>

0000026c <USB_IRQHandler>:
     26c:	e7fe      	b.n	26c <USB_IRQHandler>

0000026e <CAN_IRQHandler>:
     26e:	e7fe      	b.n	26e <CAN_IRQHandler>

00000270 <DMA_IRQHandler>:
     270:	e7fe      	b.n	270 <DMA_IRQHandler>

00000272 <I2S_IRQHandler>:
     272:	e7fe      	b.n	272 <I2S_IRQHandler>

00000274 <ENET_IRQHandler>:
     274:	e7fe      	b.n	274 <ENET_IRQHandler>

00000276 <RIT_IRQHandler>:
     276:	e7fe      	b.n	276 <RIT_IRQHandler>

00000278 <MCPWM_IRQHandler>:
     278:	e7fe      	b.n	278 <MCPWM_IRQHandler>

0000027a <QEI_IRQHandler>:
     27a:	e7fe      	b.n	27a <QEI_IRQHandler>

0000027c <PLL1_IRQHandler>:
     27c:	e7fe      	b.n	27c <PLL1_IRQHandler>

0000027e <USBActivity_IRQHandler>:
     27e:	e7fe      	b.n	27e <USBActivity_IRQHandler>

00000280 <CANActivity_IRQHandler>:
     280:	e7fe      	b.n	280 <CANActivity_IRQHandler>
     282:	bf00      	nop

00000284 <exit>:
     284:	b510      	push	{r4, lr}
     286:	4604      	mov	r4, r0
     288:	f000 f816 	bl	2b8 <mbed_interface_connected>
     28c:	b920      	cbnz	r0, 298 <exit+0x14>
     28e:	b904      	cbnz	r4, 292 <exit+0xe>
     290:	e7fe      	b.n	290 <exit+0xc>
     292:	f000 f819 	bl	2c8 <mbed_die>
     296:	e7fb      	b.n	290 <exit+0xc>
     298:	f000 f802 	bl	2a0 <semihost_exit>
     29c:	e7f7      	b.n	28e <exit+0xa>
     29e:	bf00      	nop

000002a0 <semihost_exit>:
     2a0:	b530      	push	{r4, r5, lr}
     2a2:	b085      	sub	sp, #20
     2a4:	466d      	mov	r5, sp
     2a6:	2418      	movs	r4, #24
     2a8:	4620      	mov	r0, r4
     2aa:	4629      	mov	r1, r5
     2ac:	beab      	bkpt	0x00ab
     2ae:	4604      	mov	r4, r0
     2b0:	4620      	mov	r0, r4
     2b2:	b005      	add	sp, #20
     2b4:	bd30      	pop	{r4, r5, pc}
     2b6:	bf00      	nop

000002b8 <mbed_interface_connected>:
     2b8:	f64e 53f0 	movw	r3, #60912	; 0xedf0
     2bc:	f2ce 0300 	movt	r3, #57344	; 0xe000
     2c0:	6818      	ldr	r0, [r3, #0]
     2c2:	f000 0001 	and.w	r0, r0, #1
     2c6:	4770      	bx	lr

000002c8 <mbed_die>:
     2c8:	f24c 0032 	movw	r0, #49202	; 0xc032
     2cc:	b508      	push	{r3, lr}
     2ce:	f2c2 0009 	movt	r0, #8201	; 0x2009
     2d2:	f000 f851 	bl	378 <gpio_output>
     2d6:	f24c 0034 	movw	r0, #49204	; 0xc034
     2da:	f2c2 0009 	movt	r0, #8201	; 0x2009
     2de:	f000 f84b 	bl	378 <gpio_output>
     2e2:	f24c 0035 	movw	r0, #49205	; 0xc035
     2e6:	f2c2 0009 	movt	r0, #8201	; 0x2009
     2ea:	f000 f845 	bl	378 <gpio_output>
     2ee:	f24c 0037 	movw	r0, #49207	; 0xc037
     2f2:	f2c2 0009 	movt	r0, #8201	; 0x2009
     2f6:	f000 f83f 	bl	378 <gpio_output>
     2fa:	f24c 0032 	movw	r0, #49202	; 0xc032
     2fe:	2101      	movs	r1, #1
     300:	f2c2 0009 	movt	r0, #8201	; 0x2009
     304:	f000 f84e 	bl	3a4 <gpio_write>
     308:	f24c 0034 	movw	r0, #49204	; 0xc034
     30c:	2100      	movs	r1, #0
     30e:	f2c2 0009 	movt	r0, #8201	; 0x2009
     312:	f000 f847 	bl	3a4 <gpio_write>
     316:	f24c 0035 	movw	r0, #49205	; 0xc035
     31a:	2100      	movs	r1, #0
     31c:	f2c2 0009 	movt	r0, #8201	; 0x2009
     320:	f000 f840 	bl	3a4 <gpio_write>
     324:	f24c 0037 	movw	r0, #49207	; 0xc037
     328:	2101      	movs	r1, #1
     32a:	f2c2 0009 	movt	r0, #8201	; 0x2009
     32e:	f000 f839 	bl	3a4 <gpio_write>
     332:	2096      	movs	r0, #150	; 0x96
     334:	f000 f84e 	bl	3d4 <wait_ms>
     338:	f24c 0032 	movw	r0, #49202	; 0xc032
     33c:	2100      	movs	r1, #0
     33e:	f2c2 0009 	movt	r0, #8201	; 0x2009
     342:	f000 f82f 	bl	3a4 <gpio_write>
     346:	f24c 0034 	movw	r0, #49204	; 0xc034
     34a:	2101      	movs	r1, #1
     34c:	f2c2 0009 	movt	r0, #8201	; 0x2009
     350:	f000 f828 	bl	3a4 <gpio_write>
     354:	f24c 0035 	movw	r0, #49205	; 0xc035
     358:	2101      	movs	r1, #1
     35a:	f2c2 0009 	movt	r0, #8201	; 0x2009
     35e:	f000 f821 	bl	3a4 <gpio_write>
     362:	f24c 0037 	movw	r0, #49207	; 0xc037
     366:	f2c2 0009 	movt	r0, #8201	; 0x2009
     36a:	2100      	movs	r1, #0
     36c:	f000 f81a 	bl	3a4 <gpio_write>
     370:	2096      	movs	r0, #150	; 0x96
     372:	f000 f82f 	bl	3d4 <wait_ms>
     376:	e7c0      	b.n	2fa <mbed_die+0x32>

00000378 <gpio_output>:
     378:	1c43      	adds	r3, r0, #1
     37a:	b510      	push	{r4, lr}
     37c:	4604      	mov	r4, r0
     37e:	d010      	beq.n	3a2 <gpio_output+0x2a>
     380:	2100      	movs	r1, #0
     382:	f000 f867 	bl	454 <pin_function>
     386:	4620      	mov	r0, r4
     388:	2102      	movs	r1, #2
     38a:	f000 f883 	bl	494 <pin_mode>
     38e:	f004 031f 	and.w	r3, r4, #31
     392:	2201      	movs	r2, #1
     394:	fa12 f303 	lsls.w	r3, r2, r3
     398:	f024 041f 	bic.w	r4, r4, #31
     39c:	6822      	ldr	r2, [r4, #0]
     39e:	4313      	orrs	r3, r2
     3a0:	6023      	str	r3, [r4, #0]
     3a2:	bd10      	pop	{r4, pc}

000003a4 <gpio_write>:
     3a4:	f000 031f 	and.w	r3, r0, #31
     3a8:	2201      	movs	r2, #1
     3aa:	f020 001f 	bic.w	r0, r0, #31
     3ae:	fa12 f303 	lsls.w	r3, r2, r3
     3b2:	b909      	cbnz	r1, 3b8 <gpio_write+0x14>
     3b4:	61c3      	str	r3, [r0, #28]
     3b6:	4770      	bx	lr
     3b8:	6183      	str	r3, [r0, #24]
     3ba:	4770      	bx	lr

000003bc <wait_us>:
     3bc:	b538      	push	{r3, r4, r5, lr}
     3be:	4605      	mov	r5, r0
     3c0:	f000 f822 	bl	408 <us_ticker_read>
     3c4:	4604      	mov	r4, r0
     3c6:	f000 f81f 	bl	408 <us_ticker_read>
     3ca:	1b00      	subs	r0, r0, r4
     3cc:	42a8      	cmp	r0, r5
     3ce:	d3fa      	bcc.n	3c6 <wait_us+0xa>
     3d0:	bd38      	pop	{r3, r4, r5, pc}
     3d2:	bf00      	nop

000003d4 <wait_ms>:
     3d4:	f44f 737a 	mov.w	r3, #1000	; 0x3e8
     3d8:	fb03 f000 	mul.w	r0, r3, r0
     3dc:	f7ff bfee 	b.w	3bc <wait_us>

000003e0 <wait>:
     3e0:	b508      	push	{r3, lr}
     3e2:	f003 ffaf 	bl	4344 <__aeabi_f2d>
     3e6:	a306      	add	r3, pc, #24	; (adr r3, 400 <wait+0x20>)
     3e8:	e9d3 2300 	ldrd	r2, r3, [r3]
     3ec:	f003 fffe 	bl	43ec <__aeabi_dmul>
     3f0:	f004 fa96 	bl	4920 <__aeabi_d2iz>
     3f4:	e8bd 4008 	ldmia.w	sp!, {r3, lr}
     3f8:	f7ff bfe0 	b.w	3bc <wait_us>
     3fc:	f3af 8000 	nop.w
     400:	00000000 	andeq	r0, r0, r0
     404:	412e8480 	smlawbmi	lr, r0, r4, r8

00000408 <us_ticker_read>:
     408:	b510      	push	{r4, lr}
     40a:	4c11      	ldr	r4, [pc, #68]	; (450 <us_ticker_read+0x48>)
     40c:	6823      	ldr	r3, [r4, #0]
     40e:	b9bb      	cbnz	r3, 440 <us_ticker_read+0x38>
     410:	f44f 4080 	mov.w	r0, #16384	; 0x4000
     414:	f2c4 0009 	movt	r0, #16393	; 0x4009
     418:	f000 f872 	bl	500 <timer_init>
     41c:	f44f 4080 	mov.w	r0, #16384	; 0x4000
     420:	f244 2140 	movw	r1, #16960	; 0x4240
     424:	f2c4 0009 	movt	r0, #16393	; 0x4009
     428:	f2c0 010f 	movt	r1, #15
     42c:	f000 f8bc 	bl	5a8 <timer_frequency>
     430:	f44f 4080 	mov.w	r0, #16384	; 0x4000
     434:	f2c4 0009 	movt	r0, #16393	; 0x4009
     438:	f000 f8c2 	bl	5c0 <timer_start>
     43c:	2301      	movs	r3, #1
     43e:	6023      	str	r3, [r4, #0]
     440:	f44f 4080 	mov.w	r0, #16384	; 0x4000
     444:	f2c4 0009 	movt	r0, #16393	; 0x4009
     448:	e8bd 4010 	ldmia.w	sp!, {r4, lr}
     44c:	f000 b8bc 	b.w	5c8 <timer_read>
     450:	10000188 	andne	r0, r0, r8, lsl #3

00000454 <pin_function>:
     454:	1c43      	adds	r3, r0, #1
     456:	b410      	push	{r4}
     458:	d01a      	beq.n	490 <pin_function+0x3c>
     45a:	f44f 4280 	mov.w	r2, #16384	; 0x4000
     45e:	f6cd 72f6 	movt	r2, #57334	; 0xdff6
     462:	1882      	adds	r2, r0, r2
     464:	f002 030f 	and.w	r3, r2, #15
     468:	005b      	lsls	r3, r3, #1
     46a:	2003      	movs	r0, #3
     46c:	4098      	lsls	r0, r3
     46e:	4099      	lsls	r1, r3
     470:	f44f 4340 	mov.w	r3, #49152	; 0xc000
     474:	0912      	lsrs	r2, r2, #4
     476:	f2c4 0302 	movt	r3, #16386	; 0x4002
     47a:	f853 4022 	ldr.w	r4, [r3, r2, lsl #2]
     47e:	ea24 0000 	bic.w	r0, r4, r0
     482:	f843 0022 	str.w	r0, [r3, r2, lsl #2]
     486:	f853 0022 	ldr.w	r0, [r3, r2, lsl #2]
     48a:	4301      	orrs	r1, r0
     48c:	f843 1022 	str.w	r1, [r3, r2, lsl #2]
     490:	bc10      	pop	{r4}
     492:	4770      	bx	lr

00000494 <pin_mode>:
     494:	1c42      	adds	r2, r0, #1
     496:	b470      	push	{r4, r5, r6}
     498:	d02f      	beq.n	4fa <pin_mode+0x66>
     49a:	f44f 4280 	mov.w	r2, #16384	; 0x4000
     49e:	f6cd 72f6 	movt	r2, #57334	; 0xdff6
     4a2:	1882      	adds	r2, r0, r2
     4a4:	f3c1 0480 	ubfx	r4, r1, #2, #1
     4a8:	f002 051f 	and.w	r5, r2, #31
     4ac:	fa14 f505 	lsls.w	r5, r4, r5
     4b0:	0950      	lsrs	r0, r2, #5
     4b2:	f44f 4340 	mov.w	r3, #49152	; 0xc000
     4b6:	f2c4 0302 	movt	r3, #16386	; 0x4002
     4ba:	301a      	adds	r0, #26
     4bc:	f853 6020 	ldr.w	r6, [r3, r0, lsl #2]
     4c0:	ea26 0605 	bic.w	r6, r6, r5
     4c4:	f843 6020 	str.w	r6, [r3, r0, lsl #2]
     4c8:	f853 6020 	ldr.w	r6, [r3, r0, lsl #2]
     4cc:	4335      	orrs	r5, r6
     4ce:	f843 5020 	str.w	r5, [r3, r0, lsl #2]
     4d2:	b994      	cbnz	r4, 4fa <pin_mode+0x66>
     4d4:	f002 000f 	and.w	r0, r2, #15
     4d8:	0040      	lsls	r0, r0, #1
     4da:	2503      	movs	r5, #3
     4dc:	4085      	lsls	r5, r0
     4de:	4081      	lsls	r1, r0
     4e0:	0912      	lsrs	r2, r2, #4
     4e2:	3210      	adds	r2, #16
     4e4:	f853 4022 	ldr.w	r4, [r3, r2, lsl #2]
     4e8:	ea24 0005 	bic.w	r0, r4, r5
     4ec:	f843 0022 	str.w	r0, [r3, r2, lsl #2]
     4f0:	f853 4022 	ldr.w	r4, [r3, r2, lsl #2]
     4f4:	4321      	orrs	r1, r4
     4f6:	f843 1022 	str.w	r1, [r3, r2, lsl #2]
     4fa:	bc70      	pop	{r4, r5, r6}
     4fc:	4770      	bx	lr
     4fe:	bf00      	nop

00000500 <timer_init>:
     500:	f44f 4300 	mov.w	r3, #32768	; 0x8000
     504:	f2c4 0300 	movt	r3, #16384	; 0x4000
     508:	4298      	cmp	r0, r3
     50a:	d03f      	beq.n	58c <timer_init+0x8c>
     50c:	d81d      	bhi.n	54a <timer_init+0x4a>
     50e:	f1b0 2f40 	cmp.w	r0, #1073758208	; 0x40004000
     512:	d109      	bne.n	528 <timer_init+0x28>
     514:	f44f 4340 	mov.w	r3, #49152	; 0xc000
     518:	f2c4 030f 	movt	r3, #16399	; 0x400f
     51c:	f8d3 20c4 	ldr.w	r2, [r3, #196]	; 0xc4
     520:	f042 0202 	orr.w	r2, r2, #2
     524:	f8c3 20c4 	str.w	r2, [r3, #196]	; 0xc4
     528:	4a1e      	ldr	r2, [pc, #120]	; (5a4 <timer_init+0xa4>)
     52a:	f64d 6383 	movw	r3, #56963	; 0xde83
     52e:	6812      	ldr	r2, [r2, #0]
     530:	f2c4 331b 	movt	r3, #17179	; 0x431b
     534:	0892      	lsrs	r2, r2, #2
     536:	fba3 1302 	umull	r1, r3, r3, r2
     53a:	2200      	movs	r2, #0
     53c:	0c9b      	lsrs	r3, r3, #18
     53e:	6702      	str	r2, [r0, #112]	; 0x70
     540:	3b01      	subs	r3, #1
     542:	2202      	movs	r2, #2
     544:	6042      	str	r2, [r0, #4]
     546:	60c3      	str	r3, [r0, #12]
     548:	4770      	bx	lr
     54a:	2300      	movs	r3, #0
     54c:	f2c4 0309 	movt	r3, #16393	; 0x4009
     550:	4298      	cmp	r0, r3
     552:	d010      	beq.n	576 <timer_init+0x76>
     554:	f44f 4380 	mov.w	r3, #16384	; 0x4000
     558:	f2c4 0309 	movt	r3, #16393	; 0x4009
     55c:	4298      	cmp	r0, r3
     55e:	d1e3      	bne.n	528 <timer_init+0x28>
     560:	f44f 4340 	mov.w	r3, #49152	; 0xc000
     564:	f2c4 030f 	movt	r3, #16399	; 0x400f
     568:	f8d3 20c4 	ldr.w	r2, [r3, #196]	; 0xc4
     56c:	f442 0200 	orr.w	r2, r2, #8388608	; 0x800000
     570:	f8c3 20c4 	str.w	r2, [r3, #196]	; 0xc4
     574:	e7d8      	b.n	528 <timer_init+0x28>
     576:	f44f 4340 	mov.w	r3, #49152	; 0xc000
     57a:	f2c4 030f 	movt	r3, #16399	; 0x400f
     57e:	f8d3 20c4 	ldr.w	r2, [r3, #196]	; 0xc4
     582:	f442 0280 	orr.w	r2, r2, #4194304	; 0x400000
     586:	f8c3 20c4 	str.w	r2, [r3, #196]	; 0xc4
     58a:	e7cd      	b.n	528 <timer_init+0x28>
     58c:	f44f 4340 	mov.w	r3, #49152	; 0xc000
     590:	f2c4 030f 	movt	r3, #16399	; 0x400f
     594:	f8d3 20c4 	ldr.w	r2, [r3, #196]	; 0xc4
     598:	f042 0204 	orr.w	r2, r2, #4
     59c:	f8c3 20c4 	str.w	r2, [r3, #196]	; 0xc4
     5a0:	e7c2      	b.n	528 <timer_init+0x28>
     5a2:	bf00      	nop
     5a4:	100000c8 	andne	r0, r0, r8, asr #1

000005a8 <timer_frequency>:
     5a8:	f240 03c8 	movw	r3, #200	; 0xc8
     5ac:	f2c1 0300 	movt	r3, #4096	; 0x1000
     5b0:	681b      	ldr	r3, [r3, #0]
     5b2:	089b      	lsrs	r3, r3, #2
     5b4:	fbb3 f3f1 	udiv	r3, r3, r1
     5b8:	3b01      	subs	r3, #1
     5ba:	60c3      	str	r3, [r0, #12]
     5bc:	4770      	bx	lr
     5be:	bf00      	nop

000005c0 <timer_start>:
     5c0:	2301      	movs	r3, #1
     5c2:	6043      	str	r3, [r0, #4]
     5c4:	4770      	bx	lr
     5c6:	bf00      	nop

000005c8 <timer_read>:
     5c8:	6880      	ldr	r0, [r0, #8]
     5ca:	4770      	bx	lr

000005cc <__libc_init_array>:
     5cc:	b570      	push	{r4, r5, r6, lr}
     5ce:	4b0e      	ldr	r3, [pc, #56]	; (608 <__libc_init_array+0x3c>)
     5d0:	4d0e      	ldr	r5, [pc, #56]	; (60c <__libc_init_array+0x40>)
     5d2:	2400      	movs	r4, #0
     5d4:	1aed      	subs	r5, r5, r3
     5d6:	10ad      	asrs	r5, r5, #2
     5d8:	461e      	mov	r6, r3
     5da:	42ac      	cmp	r4, r5
     5dc:	d004      	beq.n	5e8 <__libc_init_array+0x1c>
     5de:	f856 2024 	ldr.w	r2, [r6, r4, lsl #2]
     5e2:	4790      	blx	r2
     5e4:	3401      	adds	r4, #1
     5e6:	e7f8      	b.n	5da <__libc_init_array+0xe>
     5e8:	f004 fa4c 	bl	4a84 <_init>
     5ec:	4d08      	ldr	r5, [pc, #32]	; (610 <__libc_init_array+0x44>)
     5ee:	4b09      	ldr	r3, [pc, #36]	; (614 <__libc_init_array+0x48>)
     5f0:	2400      	movs	r4, #0
     5f2:	1aed      	subs	r5, r5, r3
     5f4:	10ad      	asrs	r5, r5, #2
     5f6:	461e      	mov	r6, r3
     5f8:	42ac      	cmp	r4, r5
     5fa:	d004      	beq.n	606 <__libc_init_array+0x3a>
     5fc:	f856 2024 	ldr.w	r2, [r6, r4, lsl #2]
     600:	4790      	blx	r2
     602:	3401      	adds	r4, #1
     604:	e7f8      	b.n	5f8 <__libc_init_array+0x2c>
     606:	bd70      	pop	{r4, r5, r6, pc}
     608:	1000016c 	andne	r0, r0, ip, ror #2
     60c:	1000016c 	andne	r0, r0, ip, ror #2
     610:	1000016c 	andne	r0, r0, ip, ror #2
     614:	1000016c 	andne	r0, r0, ip, ror #2

00000618 <malloc>:
     618:	4b02      	ldr	r3, [pc, #8]	; (624 <malloc+0xc>)
     61a:	4601      	mov	r1, r0
     61c:	6818      	ldr	r0, [r3, #0]
     61e:	f000 b859 	b.w	6d4 <_malloc_r>
     622:	bf00      	nop
     624:	1000012c 	andne	r0, r0, ip, lsr #2

00000628 <memcpy>:
     628:	b510      	push	{r4, lr}
     62a:	2300      	movs	r3, #0
     62c:	4293      	cmp	r3, r2
     62e:	d003      	beq.n	638 <memcpy+0x10>
     630:	5ccc      	ldrb	r4, [r1, r3]
     632:	54c4      	strb	r4, [r0, r3]
     634:	3301      	adds	r3, #1
     636:	e7f9      	b.n	62c <memcpy+0x4>
     638:	bd10      	pop	{r4, pc}

0000063a <memset>:
     63a:	4402      	add	r2, r0
     63c:	4603      	mov	r3, r0
     63e:	4293      	cmp	r3, r2
     640:	d002      	beq.n	648 <memset+0xe>
     642:	f803 1b01 	strb.w	r1, [r3], #1
     646:	e7fa      	b.n	63e <memset+0x4>
     648:	4770      	bx	lr
	...

0000064c <_free_r>:
     64c:	b530      	push	{r4, r5, lr}
     64e:	2900      	cmp	r1, #0
     650:	d03c      	beq.n	6cc <_free_r+0x80>
     652:	f851 2c04 	ldr.w	r2, [r1, #-4]
     656:	1f0b      	subs	r3, r1, #4
     658:	491d      	ldr	r1, [pc, #116]	; (6d0 <_free_r+0x84>)
     65a:	2a00      	cmp	r2, #0
     65c:	bfb8      	it	lt
     65e:	189b      	addlt	r3, r3, r2
     660:	680a      	ldr	r2, [r1, #0]
     662:	460c      	mov	r4, r1
     664:	b912      	cbnz	r2, 66c <_free_r+0x20>
     666:	605a      	str	r2, [r3, #4]
     668:	600b      	str	r3, [r1, #0]
     66a:	bd30      	pop	{r4, r5, pc}
     66c:	4293      	cmp	r3, r2
     66e:	d20d      	bcs.n	68c <_free_r+0x40>
     670:	6819      	ldr	r1, [r3, #0]
     672:	1858      	adds	r0, r3, r1
     674:	4290      	cmp	r0, r2
     676:	d103      	bne.n	680 <_free_r+0x34>
     678:	585a      	ldr	r2, [r3, r1]
     67a:	4411      	add	r1, r2
     67c:	6842      	ldr	r2, [r0, #4]
     67e:	6019      	str	r1, [r3, #0]
     680:	605a      	str	r2, [r3, #4]
     682:	6023      	str	r3, [r4, #0]
     684:	bd30      	pop	{r4, r5, pc}
     686:	4299      	cmp	r1, r3
     688:	d803      	bhi.n	692 <_free_r+0x46>
     68a:	460a      	mov	r2, r1
     68c:	6851      	ldr	r1, [r2, #4]
     68e:	2900      	cmp	r1, #0
     690:	d1f9      	bne.n	686 <_free_r+0x3a>
     692:	6814      	ldr	r4, [r2, #0]
     694:	1915      	adds	r5, r2, r4
     696:	429d      	cmp	r5, r3
     698:	d10a      	bne.n	6b0 <_free_r+0x64>
     69a:	681b      	ldr	r3, [r3, #0]
     69c:	4423      	add	r3, r4
     69e:	18d0      	adds	r0, r2, r3
     6a0:	4288      	cmp	r0, r1
     6a2:	6013      	str	r3, [r2, #0]
     6a4:	d112      	bne.n	6cc <_free_r+0x80>
     6a6:	6808      	ldr	r0, [r1, #0]
     6a8:	4403      	add	r3, r0
     6aa:	6013      	str	r3, [r2, #0]
     6ac:	684b      	ldr	r3, [r1, #4]
     6ae:	e00c      	b.n	6ca <_free_r+0x7e>
     6b0:	d902      	bls.n	6b8 <_free_r+0x6c>
     6b2:	230c      	movs	r3, #12
     6b4:	6003      	str	r3, [r0, #0]
     6b6:	bd30      	pop	{r4, r5, pc}
     6b8:	6818      	ldr	r0, [r3, #0]
     6ba:	181c      	adds	r4, r3, r0
     6bc:	428c      	cmp	r4, r1
     6be:	d103      	bne.n	6c8 <_free_r+0x7c>
     6c0:	680c      	ldr	r4, [r1, #0]
     6c2:	6849      	ldr	r1, [r1, #4]
     6c4:	4420      	add	r0, r4
     6c6:	6018      	str	r0, [r3, #0]
     6c8:	6059      	str	r1, [r3, #4]
     6ca:	6053      	str	r3, [r2, #4]
     6cc:	bd30      	pop	{r4, r5, pc}
     6ce:	bf00      	nop
     6d0:	10000190 	mulne	r0, r0, r1

000006d4 <_malloc_r>:
     6d4:	b570      	push	{r4, r5, r6, lr}
     6d6:	1ccd      	adds	r5, r1, #3
     6d8:	f025 0503 	bic.w	r5, r5, #3
     6dc:	3508      	adds	r5, #8
     6de:	2d0c      	cmp	r5, #12
     6e0:	bf38      	it	cc
     6e2:	250c      	movcc	r5, #12
     6e4:	2d00      	cmp	r5, #0
     6e6:	4606      	mov	r6, r0
     6e8:	db3f      	blt.n	76a <_malloc_r+0x96>
     6ea:	428d      	cmp	r5, r1
     6ec:	d33d      	bcc.n	76a <_malloc_r+0x96>
     6ee:	4b21      	ldr	r3, [pc, #132]	; (774 <_malloc_r+0xa0>)
     6f0:	681c      	ldr	r4, [r3, #0]
     6f2:	4618      	mov	r0, r3
     6f4:	4621      	mov	r1, r4
     6f6:	b1a1      	cbz	r1, 722 <_malloc_r+0x4e>
     6f8:	680b      	ldr	r3, [r1, #0]
     6fa:	1b5b      	subs	r3, r3, r5
     6fc:	d40e      	bmi.n	71c <_malloc_r+0x48>
     6fe:	2b0b      	cmp	r3, #11
     700:	d903      	bls.n	70a <_malloc_r+0x36>
     702:	600b      	str	r3, [r1, #0]
     704:	18cc      	adds	r4, r1, r3
     706:	50cd      	str	r5, [r1, r3]
     708:	e01f      	b.n	74a <_malloc_r+0x76>
     70a:	428c      	cmp	r4, r1
     70c:	d102      	bne.n	714 <_malloc_r+0x40>
     70e:	6862      	ldr	r2, [r4, #4]
     710:	6002      	str	r2, [r0, #0]
     712:	e01a      	b.n	74a <_malloc_r+0x76>
     714:	684b      	ldr	r3, [r1, #4]
     716:	6063      	str	r3, [r4, #4]
     718:	460c      	mov	r4, r1
     71a:	e016      	b.n	74a <_malloc_r+0x76>
     71c:	460c      	mov	r4, r1
     71e:	6849      	ldr	r1, [r1, #4]
     720:	e7e9      	b.n	6f6 <_malloc_r+0x22>
     722:	4c15      	ldr	r4, [pc, #84]	; (778 <_malloc_r+0xa4>)
     724:	6823      	ldr	r3, [r4, #0]
     726:	b91b      	cbnz	r3, 730 <_malloc_r+0x5c>
     728:	4630      	mov	r0, r6
     72a:	f000 f827 	bl	77c <_sbrk_r>
     72e:	6020      	str	r0, [r4, #0]
     730:	4629      	mov	r1, r5
     732:	4630      	mov	r0, r6
     734:	f000 f822 	bl	77c <_sbrk_r>
     738:	1c43      	adds	r3, r0, #1
     73a:	4601      	mov	r1, r0
     73c:	d015      	beq.n	76a <_malloc_r+0x96>
     73e:	1cc4      	adds	r4, r0, #3
     740:	f024 0403 	bic.w	r4, r4, #3
     744:	4284      	cmp	r4, r0
     746:	d10a      	bne.n	75e <_malloc_r+0x8a>
     748:	6025      	str	r5, [r4, #0]
     74a:	f104 000b 	add.w	r0, r4, #11
     74e:	1d23      	adds	r3, r4, #4
     750:	f020 0007 	bic.w	r0, r0, #7
     754:	1ac3      	subs	r3, r0, r3
     756:	d00b      	beq.n	770 <_malloc_r+0x9c>
     758:	425a      	negs	r2, r3
     75a:	50e2      	str	r2, [r4, r3]
     75c:	bd70      	pop	{r4, r5, r6, pc}
     75e:	4630      	mov	r0, r6
     760:	1a61      	subs	r1, r4, r1
     762:	f000 f80b 	bl	77c <_sbrk_r>
     766:	3001      	adds	r0, #1
     768:	d1ee      	bne.n	748 <_malloc_r+0x74>
     76a:	230c      	movs	r3, #12
     76c:	6033      	str	r3, [r6, #0]
     76e:	2000      	movs	r0, #0
     770:	bd70      	pop	{r4, r5, r6, pc}
     772:	bf00      	nop
     774:	10000190 	mulne	r0, r0, r1
     778:	1000018c 	andne	r0, r0, ip, lsl #3

0000077c <_sbrk_r>:
     77c:	b538      	push	{r3, r4, r5, lr}
     77e:	4c06      	ldr	r4, [pc, #24]	; (798 <_sbrk_r+0x1c>)
     780:	2300      	movs	r3, #0
     782:	4605      	mov	r5, r0
     784:	4608      	mov	r0, r1
     786:	6023      	str	r3, [r4, #0]
     788:	f004 f962 	bl	4a50 <_sbrk>
     78c:	1c43      	adds	r3, r0, #1
     78e:	d102      	bne.n	796 <_sbrk_r+0x1a>
     790:	6823      	ldr	r3, [r4, #0]
     792:	b103      	cbz	r3, 796 <_sbrk_r+0x1a>
     794:	602b      	str	r3, [r5, #0]
     796:	bd38      	pop	{r3, r4, r5, pc}
     798:	10000198 	mulne	r0, r8, r1

0000079c <siprintf>:
     79c:	b40e      	push	{r1, r2, r3}
     79e:	b500      	push	{lr}
     7a0:	f44f 7102 	mov.w	r1, #520	; 0x208
     7a4:	b09c      	sub	sp, #112	; 0x70
     7a6:	f8ad 1014 	strh.w	r1, [sp, #20]
     7aa:	f06f 4100 	mvn.w	r1, #2147483648	; 0x80000000
     7ae:	9104      	str	r1, [sp, #16]
     7b0:	9107      	str	r1, [sp, #28]
     7b2:	f64f 71ff 	movw	r1, #65535	; 0xffff
     7b6:	ab1d      	add	r3, sp, #116	; 0x74
     7b8:	f8ad 1016 	strh.w	r1, [sp, #22]
     7bc:	4908      	ldr	r1, [pc, #32]	; (7e0 <siprintf+0x44>)
     7be:	f853 2b04 	ldr.w	r2, [r3], #4
     7c2:	9002      	str	r0, [sp, #8]
     7c4:	9006      	str	r0, [sp, #24]
     7c6:	6808      	ldr	r0, [r1, #0]
     7c8:	a902      	add	r1, sp, #8
     7ca:	9301      	str	r3, [sp, #4]
     7cc:	f000 f906 	bl	9dc <_svfiprintf_r>
     7d0:	9b02      	ldr	r3, [sp, #8]
     7d2:	2200      	movs	r2, #0
     7d4:	701a      	strb	r2, [r3, #0]
     7d6:	b01c      	add	sp, #112	; 0x70
     7d8:	f85d eb04 	ldr.w	lr, [sp], #4
     7dc:	b003      	add	sp, #12
     7de:	4770      	bx	lr
     7e0:	1000012c 	andne	r0, r0, ip, lsr #2

000007e4 <strlen>:
     7e4:	4603      	mov	r3, r0
     7e6:	f813 2b01 	ldrb.w	r2, [r3], #1
     7ea:	2a00      	cmp	r2, #0
     7ec:	d1fb      	bne.n	7e6 <strlen+0x2>
     7ee:	1a18      	subs	r0, r3, r0
     7f0:	3801      	subs	r0, #1
     7f2:	4770      	bx	lr

000007f4 <strncmp>:
     7f4:	b570      	push	{r4, r5, r6, lr}
     7f6:	b18a      	cbz	r2, 81c <strncmp+0x28>
     7f8:	460b      	mov	r3, r1
     7fa:	4605      	mov	r5, r0
     7fc:	781c      	ldrb	r4, [r3, #0]
     7fe:	f810 6b01 	ldrb.w	r6, [r0], #1
     802:	3101      	adds	r1, #1
     804:	42b4      	cmp	r4, r6
     806:	d101      	bne.n	80c <strncmp+0x18>
     808:	2a01      	cmp	r2, #1
     80a:	d103      	bne.n	814 <strncmp+0x20>
     80c:	7828      	ldrb	r0, [r5, #0]
     80e:	781b      	ldrb	r3, [r3, #0]
     810:	1ac0      	subs	r0, r0, r3
     812:	bd70      	pop	{r4, r5, r6, pc}
     814:	3a01      	subs	r2, #1
     816:	2c00      	cmp	r4, #0
     818:	d1ee      	bne.n	7f8 <strncmp+0x4>
     81a:	e7f7      	b.n	80c <strncmp+0x18>
     81c:	4610      	mov	r0, r2
     81e:	bd70      	pop	{r4, r5, r6, pc}

00000820 <_strtol_r>:
     820:	4684      	mov	ip, r0
     822:	483f      	ldr	r0, [pc, #252]	; (920 <_strtol_r+0x100>)
     824:	e92d 4ff0 	stmdb	sp!, {r4, r5, r6, r7, r8, r9, sl, fp, lr}
     828:	f8d0 8000 	ldr.w	r8, [r0]
     82c:	460e      	mov	r6, r1
     82e:	4634      	mov	r4, r6
     830:	f814 5b01 	ldrb.w	r5, [r4], #1
     834:	eb08 0005 	add.w	r0, r8, r5
     838:	7840      	ldrb	r0, [r0, #1]
     83a:	f000 0008 	and.w	r0, r0, #8
     83e:	f000 07ff 	and.w	r7, r0, #255	; 0xff
     842:	b108      	cbz	r0, 848 <_strtol_r+0x28>
     844:	4626      	mov	r6, r4
     846:	e7f2      	b.n	82e <_strtol_r+0xe>
     848:	2d2d      	cmp	r5, #45	; 0x2d
     84a:	d103      	bne.n	854 <_strtol_r+0x34>
     84c:	1cb4      	adds	r4, r6, #2
     84e:	7875      	ldrb	r5, [r6, #1]
     850:	2701      	movs	r7, #1
     852:	e003      	b.n	85c <_strtol_r+0x3c>
     854:	2d2b      	cmp	r5, #43	; 0x2b
     856:	bf04      	itt	eq
     858:	7875      	ldrbeq	r5, [r6, #1]
     85a:	1cb4      	addeq	r4, r6, #2
     85c:	f033 0010 	bics.w	r0, r3, #16
     860:	d10d      	bne.n	87e <_strtol_r+0x5e>
     862:	2d30      	cmp	r5, #48	; 0x30
     864:	d108      	bne.n	878 <_strtol_r+0x58>
     866:	7820      	ldrb	r0, [r4, #0]
     868:	f000 00df 	and.w	r0, r0, #223	; 0xdf
     86c:	2858      	cmp	r0, #88	; 0x58
     86e:	d151      	bne.n	914 <_strtol_r+0xf4>
     870:	7865      	ldrb	r5, [r4, #1]
     872:	2310      	movs	r3, #16
     874:	3402      	adds	r4, #2
     876:	e002      	b.n	87e <_strtol_r+0x5e>
     878:	2b00      	cmp	r3, #0
     87a:	bf08      	it	eq
     87c:	230a      	moveq	r3, #10
     87e:	2f00      	cmp	r7, #0
     880:	bf0c      	ite	eq
     882:	f06f 4a00 	mvneq.w	sl, #2147483648	; 0x80000000
     886:	f04f 4a00 	movne.w	sl, #2147483648	; 0x80000000
     88a:	fbba f9f3 	udiv	r9, sl, r3
     88e:	fb03 aa19 	mls	sl, r3, r9, sl
     892:	2600      	movs	r6, #0
     894:	4630      	mov	r0, r6
     896:	eb08 0b05 	add.w	fp, r8, r5
     89a:	f89b b001 	ldrb.w	fp, [fp, #1]
     89e:	f01b 0f04 	tst.w	fp, #4
     8a2:	d001      	beq.n	8a8 <_strtol_r+0x88>
     8a4:	3d30      	subs	r5, #48	; 0x30
     8a6:	e00b      	b.n	8c0 <_strtol_r+0xa0>
     8a8:	f01b 0b03 	ands.w	fp, fp, #3
     8ac:	d01b      	beq.n	8e6 <_strtol_r+0xc6>
     8ae:	f1bb 0f01 	cmp.w	fp, #1
     8b2:	bf14      	ite	ne
     8b4:	f04f 0b57 	movne.w	fp, #87	; 0x57
     8b8:	f04f 0b37 	moveq.w	fp, #55	; 0x37
     8bc:	ebcb 0505 	rsb	r5, fp, r5
     8c0:	429d      	cmp	r5, r3
     8c2:	da10      	bge.n	8e6 <_strtol_r+0xc6>
     8c4:	f1b6 3fff 	cmp.w	r6, #4294967295	; 0xffffffff
     8c8:	d00a      	beq.n	8e0 <_strtol_r+0xc0>
     8ca:	4548      	cmp	r0, r9
     8cc:	d806      	bhi.n	8dc <_strtol_r+0xbc>
     8ce:	d101      	bne.n	8d4 <_strtol_r+0xb4>
     8d0:	4555      	cmp	r5, sl
     8d2:	dc03      	bgt.n	8dc <_strtol_r+0xbc>
     8d4:	fb03 5000 	mla	r0, r3, r0, r5
     8d8:	2601      	movs	r6, #1
     8da:	e001      	b.n	8e0 <_strtol_r+0xc0>
     8dc:	f04f 36ff 	mov.w	r6, #4294967295	; 0xffffffff
     8e0:	f814 5b01 	ldrb.w	r5, [r4], #1
     8e4:	e7d7      	b.n	896 <_strtol_r+0x76>
     8e6:	1c73      	adds	r3, r6, #1
     8e8:	d10c      	bne.n	904 <_strtol_r+0xe4>
     8ea:	2f00      	cmp	r7, #0
     8ec:	f04f 0322 	mov.w	r3, #34	; 0x22
     8f0:	bf0c      	ite	eq
     8f2:	f06f 4000 	mvneq.w	r0, #2147483648	; 0x80000000
     8f6:	f04f 4000 	movne.w	r0, #2147483648	; 0x80000000
     8fa:	f8cc 3000 	str.w	r3, [ip]
     8fe:	b92a      	cbnz	r2, 90c <_strtol_r+0xec>
     900:	e8bd 8ff0 	ldmia.w	sp!, {r4, r5, r6, r7, r8, r9, sl, fp, pc}
     904:	b107      	cbz	r7, 908 <_strtol_r+0xe8>
     906:	4240      	negs	r0, r0
     908:	b142      	cbz	r2, 91c <_strtol_r+0xfc>
     90a:	b106      	cbz	r6, 90e <_strtol_r+0xee>
     90c:	1e61      	subs	r1, r4, #1
     90e:	6011      	str	r1, [r2, #0]
     910:	e8bd 8ff0 	ldmia.w	sp!, {r4, r5, r6, r7, r8, r9, sl, fp, pc}
     914:	2b00      	cmp	r3, #0
     916:	bf08      	it	eq
     918:	2308      	moveq	r3, #8
     91a:	e7b0      	b.n	87e <_strtol_r+0x5e>
     91c:	e8bd 8ff0 	ldmia.w	sp!, {r4, r5, r6, r7, r8, r9, sl, fp, pc}
     920:	10000130 	andne	r0, r0, r0, lsr r1

00000924 <__ssputs_r>:
     924:	e92d 47f0 	stmdb	sp!, {r4, r5, r6, r7, r8, r9, sl, lr}
     928:	688d      	ldr	r5, [r1, #8]
     92a:	4681      	mov	r9, r0
     92c:	42ab      	cmp	r3, r5
     92e:	460c      	mov	r4, r1
     930:	4692      	mov	sl, r2
     932:	461f      	mov	r7, r3
     934:	d343      	bcc.n	9be <__ssputs_r+0x9a>
     936:	898b      	ldrh	r3, [r1, #12]
     938:	f413 6f90 	tst.w	r3, #1152	; 0x480
     93c:	d03d      	beq.n	9ba <__ssputs_r+0x96>
     93e:	6826      	ldr	r6, [r4, #0]
     940:	6909      	ldr	r1, [r1, #16]
     942:	2202      	movs	r2, #2
     944:	ebc1 0806 	rsb	r8, r1, r6
     948:	6966      	ldr	r6, [r4, #20]
     94a:	eb06 0646 	add.w	r6, r6, r6, lsl #1
     94e:	fb96 f6f2 	sdiv	r6, r6, r2
     952:	f108 0201 	add.w	r2, r8, #1
     956:	443a      	add	r2, r7
     958:	4296      	cmp	r6, r2
     95a:	bf38      	it	cc
     95c:	4616      	movcc	r6, r2
     95e:	055b      	lsls	r3, r3, #21
     960:	d50f      	bpl.n	982 <__ssputs_r+0x5e>
     962:	4631      	mov	r1, r6
     964:	f7ff feb6 	bl	6d4 <_malloc_r>
     968:	4605      	mov	r5, r0
     96a:	b198      	cbz	r0, 994 <__ssputs_r+0x70>
     96c:	6921      	ldr	r1, [r4, #16]
     96e:	4642      	mov	r2, r8
     970:	f7ff fe5a 	bl	628 <memcpy>
     974:	89a3      	ldrh	r3, [r4, #12]
     976:	f423 6390 	bic.w	r3, r3, #1152	; 0x480
     97a:	f043 0380 	orr.w	r3, r3, #128	; 0x80
     97e:	81a3      	strh	r3, [r4, #12]
     980:	e013      	b.n	9aa <__ssputs_r+0x86>
     982:	4632      	mov	r2, r6
     984:	f002 f9b5 	bl	2cf2 <_realloc_r>
     988:	4605      	mov	r5, r0
     98a:	b970      	cbnz	r0, 9aa <__ssputs_r+0x86>
     98c:	4648      	mov	r0, r9
     98e:	6921      	ldr	r1, [r4, #16]
     990:	f7ff fe5c 	bl	64c <_free_r>
     994:	230c      	movs	r3, #12
     996:	f8c9 3000 	str.w	r3, [r9]
     99a:	89a3      	ldrh	r3, [r4, #12]
     99c:	f04f 30ff 	mov.w	r0, #4294967295	; 0xffffffff
     9a0:	f043 0340 	orr.w	r3, r3, #64	; 0x40
     9a4:	81a3      	strh	r3, [r4, #12]
     9a6:	e8bd 87f0 	ldmia.w	sp!, {r4, r5, r6, r7, r8, r9, sl, pc}
     9aa:	6125      	str	r5, [r4, #16]
     9ac:	6166      	str	r6, [r4, #20]
     9ae:	4445      	add	r5, r8
     9b0:	ebc8 0606 	rsb	r6, r8, r6
     9b4:	6025      	str	r5, [r4, #0]
     9b6:	60a6      	str	r6, [r4, #8]
     9b8:	463d      	mov	r5, r7
     9ba:	42af      	cmp	r7, r5
     9bc:	d200      	bcs.n	9c0 <__ssputs_r+0x9c>
     9be:	463d      	mov	r5, r7
     9c0:	462a      	mov	r2, r5
     9c2:	6820      	ldr	r0, [r4, #0]
     9c4:	4651      	mov	r1, sl
     9c6:	f001 fd6d 	bl	24a4 <memmove>
     9ca:	68a3      	ldr	r3, [r4, #8]
     9cc:	2000      	movs	r0, #0
     9ce:	1b5b      	subs	r3, r3, r5
     9d0:	60a3      	str	r3, [r4, #8]
     9d2:	6823      	ldr	r3, [r4, #0]
     9d4:	441d      	add	r5, r3
     9d6:	6025      	str	r5, [r4, #0]
     9d8:	e8bd 87f0 	ldmia.w	sp!, {r4, r5, r6, r7, r8, r9, sl, pc}

000009dc <_svfiprintf_r>:
     9dc:	e92d 43f0 	stmdb	sp!, {r4, r5, r6, r7, r8, r9, lr}
     9e0:	b09d      	sub	sp, #116	; 0x74
     9e2:	9303      	str	r3, [sp, #12]
     9e4:	898b      	ldrh	r3, [r1, #12]
     9e6:	4607      	mov	r7, r0
     9e8:	061c      	lsls	r4, r3, #24
     9ea:	460d      	mov	r5, r1
     9ec:	4616      	mov	r6, r2
     9ee:	d50c      	bpl.n	a0a <_svfiprintf_r+0x2e>
     9f0:	690b      	ldr	r3, [r1, #16]
     9f2:	b953      	cbnz	r3, a0a <_svfiprintf_r+0x2e>
     9f4:	2140      	movs	r1, #64	; 0x40
     9f6:	f7ff fe6d 	bl	6d4 <_malloc_r>
     9fa:	6028      	str	r0, [r5, #0]
     9fc:	6128      	str	r0, [r5, #16]
     9fe:	b910      	cbnz	r0, a06 <_svfiprintf_r+0x2a>
     a00:	230c      	movs	r3, #12
     a02:	603b      	str	r3, [r7, #0]
     a04:	e0c7      	b.n	b96 <_svfiprintf_r+0x1ba>
     a06:	2340      	movs	r3, #64	; 0x40
     a08:	616b      	str	r3, [r5, #20]
     a0a:	2300      	movs	r3, #0
     a0c:	9309      	str	r3, [sp, #36]	; 0x24
     a0e:	2320      	movs	r3, #32
     a10:	f88d 3029 	strb.w	r3, [sp, #41]	; 0x29
     a14:	2330      	movs	r3, #48	; 0x30
     a16:	f88d 302a 	strb.w	r3, [sp, #42]	; 0x2a
     a1a:	4633      	mov	r3, r6
     a1c:	461c      	mov	r4, r3
     a1e:	f813 2b01 	ldrb.w	r2, [r3], #1
     a22:	b91a      	cbnz	r2, a2c <_svfiprintf_r+0x50>
     a24:	ebb4 0906 	subs.w	r9, r4, r6
     a28:	d00f      	beq.n	a4a <_svfiprintf_r+0x6e>
     a2a:	e002      	b.n	a32 <_svfiprintf_r+0x56>
     a2c:	2a25      	cmp	r2, #37	; 0x25
     a2e:	d1f5      	bne.n	a1c <_svfiprintf_r+0x40>
     a30:	e7f8      	b.n	a24 <_svfiprintf_r+0x48>
     a32:	4638      	mov	r0, r7
     a34:	4629      	mov	r1, r5
     a36:	4632      	mov	r2, r6
     a38:	464b      	mov	r3, r9
     a3a:	f7ff ff73 	bl	924 <__ssputs_r>
     a3e:	3001      	adds	r0, #1
     a40:	f000 80a4 	beq.w	b8c <_svfiprintf_r+0x1b0>
     a44:	9b09      	ldr	r3, [sp, #36]	; 0x24
     a46:	444b      	add	r3, r9
     a48:	9309      	str	r3, [sp, #36]	; 0x24
     a4a:	7823      	ldrb	r3, [r4, #0]
     a4c:	2b00      	cmp	r3, #0
     a4e:	f000 809d 	beq.w	b8c <_svfiprintf_r+0x1b0>
     a52:	2300      	movs	r3, #0
     a54:	f04f 32ff 	mov.w	r2, #4294967295	; 0xffffffff
     a58:	9304      	str	r3, [sp, #16]
     a5a:	9307      	str	r3, [sp, #28]
     a5c:	9205      	str	r2, [sp, #20]
     a5e:	9306      	str	r3, [sp, #24]
     a60:	f88d 3053 	strb.w	r3, [sp, #83]	; 0x53
     a64:	931a      	str	r3, [sp, #104]	; 0x68
     a66:	f104 0901 	add.w	r9, r4, #1
     a6a:	4e4d      	ldr	r6, [pc, #308]	; (ba0 <_svfiprintf_r+0x1c4>)
     a6c:	464c      	mov	r4, r9
     a6e:	4630      	mov	r0, r6
     a70:	7821      	ldrb	r1, [r4, #0]
     a72:	2205      	movs	r2, #5
     a74:	f001 fd08 	bl	2488 <memchr>
     a78:	f109 0901 	add.w	r9, r9, #1
     a7c:	9b04      	ldr	r3, [sp, #16]
     a7e:	b128      	cbz	r0, a8c <_svfiprintf_r+0xb0>
     a80:	1b86      	subs	r6, r0, r6
     a82:	2001      	movs	r0, #1
     a84:	40b0      	lsls	r0, r6
     a86:	4303      	orrs	r3, r0
     a88:	9304      	str	r3, [sp, #16]
     a8a:	e7ee      	b.n	a6a <_svfiprintf_r+0x8e>
     a8c:	06d9      	lsls	r1, r3, #27
     a8e:	bf44      	itt	mi
     a90:	2220      	movmi	r2, #32
     a92:	f88d 2053 	strbmi.w	r2, [sp, #83]	; 0x53
     a96:	071a      	lsls	r2, r3, #28
     a98:	bf44      	itt	mi
     a9a:	222b      	movmi	r2, #43	; 0x2b
     a9c:	f88d 2053 	strbmi.w	r2, [sp, #83]	; 0x53
     aa0:	7822      	ldrb	r2, [r4, #0]
     aa2:	2a2a      	cmp	r2, #42	; 0x2a
     aa4:	d002      	beq.n	aac <_svfiprintf_r+0xd0>
     aa6:	9b07      	ldr	r3, [sp, #28]
     aa8:	4621      	mov	r1, r4
     aaa:	e00e      	b.n	aca <_svfiprintf_r+0xee>
     aac:	9a03      	ldr	r2, [sp, #12]
     aae:	1d11      	adds	r1, r2, #4
     ab0:	6812      	ldr	r2, [r2, #0]
     ab2:	9103      	str	r1, [sp, #12]
     ab4:	2a00      	cmp	r2, #0
     ab6:	db01      	blt.n	abc <_svfiprintf_r+0xe0>
     ab8:	9207      	str	r2, [sp, #28]
     aba:	e004      	b.n	ac6 <_svfiprintf_r+0xea>
     abc:	4252      	negs	r2, r2
     abe:	f043 0302 	orr.w	r3, r3, #2
     ac2:	9207      	str	r2, [sp, #28]
     ac4:	9304      	str	r3, [sp, #16]
     ac6:	3401      	adds	r4, #1
     ac8:	e00a      	b.n	ae0 <_svfiprintf_r+0x104>
     aca:	460c      	mov	r4, r1
     acc:	7822      	ldrb	r2, [r4, #0]
     ace:	3101      	adds	r1, #1
     ad0:	3a30      	subs	r2, #48	; 0x30
     ad2:	2a09      	cmp	r2, #9
     ad4:	d803      	bhi.n	ade <_svfiprintf_r+0x102>
     ad6:	200a      	movs	r0, #10
     ad8:	fb00 2303 	mla	r3, r0, r3, r2
     adc:	e7f5      	b.n	aca <_svfiprintf_r+0xee>
     ade:	9307      	str	r3, [sp, #28]
     ae0:	7823      	ldrb	r3, [r4, #0]
     ae2:	2b2e      	cmp	r3, #46	; 0x2e
     ae4:	d119      	bne.n	b1a <_svfiprintf_r+0x13e>
     ae6:	7863      	ldrb	r3, [r4, #1]
     ae8:	2b2a      	cmp	r3, #42	; 0x2a
     aea:	d109      	bne.n	b00 <_svfiprintf_r+0x124>
     aec:	9b03      	ldr	r3, [sp, #12]
     aee:	3402      	adds	r4, #2
     af0:	1d1a      	adds	r2, r3, #4
     af2:	681b      	ldr	r3, [r3, #0]
     af4:	9203      	str	r2, [sp, #12]
     af6:	2b00      	cmp	r3, #0
     af8:	bfb8      	it	lt
     afa:	f04f 33ff 	movlt.w	r3, #4294967295	; 0xffffffff
     afe:	e00b      	b.n	b18 <_svfiprintf_r+0x13c>
     b00:	1c61      	adds	r1, r4, #1
     b02:	2300      	movs	r3, #0
     b04:	460c      	mov	r4, r1
     b06:	7822      	ldrb	r2, [r4, #0]
     b08:	3101      	adds	r1, #1
     b0a:	3a30      	subs	r2, #48	; 0x30
     b0c:	2a09      	cmp	r2, #9
     b0e:	d803      	bhi.n	b18 <_svfiprintf_r+0x13c>
     b10:	200a      	movs	r0, #10
     b12:	fb00 2303 	mla	r3, r0, r3, r2
     b16:	e7f5      	b.n	b04 <_svfiprintf_r+0x128>
     b18:	9305      	str	r3, [sp, #20]
     b1a:	4e22      	ldr	r6, [pc, #136]	; (ba4 <_svfiprintf_r+0x1c8>)
     b1c:	7821      	ldrb	r1, [r4, #0]
     b1e:	4630      	mov	r0, r6
     b20:	2203      	movs	r2, #3
     b22:	f001 fcb1 	bl	2488 <memchr>
     b26:	b130      	cbz	r0, b36 <_svfiprintf_r+0x15a>
     b28:	1b86      	subs	r6, r0, r6
     b2a:	2040      	movs	r0, #64	; 0x40
     b2c:	40b0      	lsls	r0, r6
     b2e:	9b04      	ldr	r3, [sp, #16]
     b30:	3401      	adds	r4, #1
     b32:	4303      	orrs	r3, r0
     b34:	9304      	str	r3, [sp, #16]
     b36:	7821      	ldrb	r1, [r4, #0]
     b38:	481b      	ldr	r0, [pc, #108]	; (ba8 <_svfiprintf_r+0x1cc>)
     b3a:	2206      	movs	r2, #6
     b3c:	1c66      	adds	r6, r4, #1
     b3e:	f88d 1028 	strb.w	r1, [sp, #40]	; 0x28
     b42:	f001 fca1 	bl	2488 <memchr>
     b46:	b188      	cbz	r0, b6c <_svfiprintf_r+0x190>
     b48:	4b18      	ldr	r3, [pc, #96]	; (bac <_svfiprintf_r+0x1d0>)
     b4a:	b933      	cbnz	r3, b5a <_svfiprintf_r+0x17e>
     b4c:	9b03      	ldr	r3, [sp, #12]
     b4e:	3307      	adds	r3, #7
     b50:	f023 0307 	bic.w	r3, r3, #7
     b54:	3308      	adds	r3, #8
     b56:	9303      	str	r3, [sp, #12]
     b58:	e014      	b.n	b84 <_svfiprintf_r+0x1a8>
     b5a:	ab03      	add	r3, sp, #12
     b5c:	9300      	str	r3, [sp, #0]
     b5e:	4638      	mov	r0, r7
     b60:	a904      	add	r1, sp, #16
     b62:	462a      	mov	r2, r5
     b64:	4b12      	ldr	r3, [pc, #72]	; (bb0 <_svfiprintf_r+0x1d4>)
     b66:	f000 f8b9 	bl	cdc <_printf_float>
     b6a:	e007      	b.n	b7c <_svfiprintf_r+0x1a0>
     b6c:	ab03      	add	r3, sp, #12
     b6e:	9300      	str	r3, [sp, #0]
     b70:	4638      	mov	r0, r7
     b72:	a904      	add	r1, sp, #16
     b74:	462a      	mov	r2, r5
     b76:	4b0e      	ldr	r3, [pc, #56]	; (bb0 <_svfiprintf_r+0x1d4>)
     b78:	f000 fb30 	bl	11dc <_printf_i>
     b7c:	f1b0 3fff 	cmp.w	r0, #4294967295	; 0xffffffff
     b80:	4680      	mov	r8, r0
     b82:	d003      	beq.n	b8c <_svfiprintf_r+0x1b0>
     b84:	9b09      	ldr	r3, [sp, #36]	; 0x24
     b86:	4443      	add	r3, r8
     b88:	9309      	str	r3, [sp, #36]	; 0x24
     b8a:	e746      	b.n	a1a <_svfiprintf_r+0x3e>
     b8c:	89ab      	ldrh	r3, [r5, #12]
     b8e:	065b      	lsls	r3, r3, #25
     b90:	d401      	bmi.n	b96 <_svfiprintf_r+0x1ba>
     b92:	9809      	ldr	r0, [sp, #36]	; 0x24
     b94:	e001      	b.n	b9a <_svfiprintf_r+0x1be>
     b96:	f04f 30ff 	mov.w	r0, #4294967295	; 0xffffffff
     b9a:	b01d      	add	sp, #116	; 0x74
     b9c:	e8bd 83f0 	ldmia.w	sp!, {r4, r5, r6, r7, r8, r9, pc}
     ba0:	00004a9e 	muleq	r0, lr, sl
     ba4:	00004aa4 	andeq	r4, r0, r4, lsr #21
     ba8:	00004aa8 	andeq	r4, r0, r8, lsr #21
     bac:	00000cdd 	ldrdeq	r0, [r0], -sp
     bb0:	00000925 	andeq	r0, r0, r5, lsr #18

00000bb4 <__cvt>:
     bb4:	e92d 47f0 	stmdb	sp!, {r4, r5, r6, r7, r8, r9, sl, lr}
     bb8:	2b00      	cmp	r3, #0
     bba:	b088      	sub	sp, #32
     bbc:	4614      	mov	r4, r2
     bbe:	461d      	mov	r5, r3
     bc0:	9e10      	ldr	r6, [sp, #64]	; 0x40
     bc2:	9912      	ldr	r1, [sp, #72]	; 0x48
     bc4:	9f13      	ldr	r7, [sp, #76]	; 0x4c
     bc6:	da05      	bge.n	bd4 <__cvt+0x20>
     bc8:	f105 4300 	add.w	r3, r5, #2147483648	; 0x80000000
     bcc:	461d      	mov	r5, r3
     bce:	4614      	mov	r4, r2
     bd0:	232d      	movs	r3, #45	; 0x2d
     bd2:	e000      	b.n	bd6 <__cvt+0x22>
     bd4:	2300      	movs	r3, #0
     bd6:	700b      	strb	r3, [r1, #0]
     bd8:	9b14      	ldr	r3, [sp, #80]	; 0x50
     bda:	f023 0a20 	bic.w	sl, r3, #32
     bde:	f1ba 0f46 	cmp.w	sl, #70	; 0x46
     be2:	d004      	beq.n	bee <__cvt+0x3a>
     be4:	f1ba 0f45 	cmp.w	sl, #69	; 0x45
     be8:	d103      	bne.n	bf2 <__cvt+0x3e>
     bea:	3601      	adds	r6, #1
     bec:	e001      	b.n	bf2 <__cvt+0x3e>
     bee:	2303      	movs	r3, #3
     bf0:	e000      	b.n	bf4 <__cvt+0x40>
     bf2:	2302      	movs	r3, #2
     bf4:	e88d 00c8 	stmia.w	sp, {r3, r6, r7}
     bf8:	ab06      	add	r3, sp, #24
     bfa:	9303      	str	r3, [sp, #12]
     bfc:	ab07      	add	r3, sp, #28
     bfe:	9304      	str	r3, [sp, #16]
     c00:	4622      	mov	r2, r4
     c02:	462b      	mov	r3, r5
     c04:	f000 fe7c 	bl	1900 <_dtoa_r>
     c08:	f1ba 0f47 	cmp.w	sl, #71	; 0x47
     c0c:	4680      	mov	r8, r0
     c0e:	d102      	bne.n	c16 <__cvt+0x62>
     c10:	9b11      	ldr	r3, [sp, #68]	; 0x44
     c12:	07db      	lsls	r3, r3, #31
     c14:	d525      	bpl.n	c62 <__cvt+0xae>
     c16:	f1ba 0f46 	cmp.w	sl, #70	; 0x46
     c1a:	eb08 0906 	add.w	r9, r8, r6
     c1e:	d10f      	bne.n	c40 <__cvt+0x8c>
     c20:	f898 3000 	ldrb.w	r3, [r8]
     c24:	2b30      	cmp	r3, #48	; 0x30
     c26:	d109      	bne.n	c3c <__cvt+0x88>
     c28:	4620      	mov	r0, r4
     c2a:	4629      	mov	r1, r5
     c2c:	2200      	movs	r2, #0
     c2e:	2300      	movs	r3, #0
     c30:	f003 fe44 	bl	48bc <__aeabi_dcmpeq>
     c34:	b910      	cbnz	r0, c3c <__cvt+0x88>
     c36:	f1c6 0601 	rsb	r6, r6, #1
     c3a:	603e      	str	r6, [r7, #0]
     c3c:	683b      	ldr	r3, [r7, #0]
     c3e:	4499      	add	r9, r3
     c40:	4620      	mov	r0, r4
     c42:	4629      	mov	r1, r5
     c44:	2200      	movs	r2, #0
     c46:	2300      	movs	r3, #0
     c48:	f003 fe38 	bl	48bc <__aeabi_dcmpeq>
     c4c:	b108      	cbz	r0, c52 <__cvt+0x9e>
     c4e:	f8cd 901c 	str.w	r9, [sp, #28]
     c52:	9b07      	ldr	r3, [sp, #28]
     c54:	454b      	cmp	r3, r9
     c56:	d204      	bcs.n	c62 <__cvt+0xae>
     c58:	1c5a      	adds	r2, r3, #1
     c5a:	9207      	str	r2, [sp, #28]
     c5c:	2230      	movs	r2, #48	; 0x30
     c5e:	701a      	strb	r2, [r3, #0]
     c60:	e7f7      	b.n	c52 <__cvt+0x9e>
     c62:	9b07      	ldr	r3, [sp, #28]
     c64:	4640      	mov	r0, r8
     c66:	ebc8 0203 	rsb	r2, r8, r3
     c6a:	9b15      	ldr	r3, [sp, #84]	; 0x54
     c6c:	601a      	str	r2, [r3, #0]
     c6e:	b008      	add	sp, #32
     c70:	e8bd 87f0 	ldmia.w	sp!, {r4, r5, r6, r7, r8, r9, sl, pc}

00000c74 <__exponent>:
     c74:	b573      	push	{r0, r1, r4, r5, r6, lr}
     c76:	4603      	mov	r3, r0
     c78:	2900      	cmp	r1, #0
     c7a:	f803 2b02 	strb.w	r2, [r3], #2
     c7e:	da03      	bge.n	c88 <__exponent+0x14>
     c80:	4249      	negs	r1, r1
     c82:	461a      	mov	r2, r3
     c84:	242d      	movs	r4, #45	; 0x2d
     c86:	e001      	b.n	c8c <__exponent+0x18>
     c88:	461a      	mov	r2, r3
     c8a:	242b      	movs	r4, #43	; 0x2b
     c8c:	2909      	cmp	r1, #9
     c8e:	7044      	strb	r4, [r0, #1]
     c90:	dd1b      	ble.n	cca <__exponent+0x56>
     c92:	f10d 0406 	add.w	r4, sp, #6
     c96:	260a      	movs	r6, #10
     c98:	fb91 f5f6 	sdiv	r5, r1, r6
     c9c:	fb06 1115 	mls	r1, r6, r5, r1
     ca0:	2d09      	cmp	r5, #9
     ca2:	f101 0130 	add.w	r1, r1, #48	; 0x30
     ca6:	4623      	mov	r3, r4
     ca8:	f804 1901 	strb.w	r1, [r4], #-1
     cac:	4629      	mov	r1, r5
     cae:	dcf2      	bgt.n	c96 <__exponent+0x22>
     cb0:	f105 0130 	add.w	r1, r5, #48	; 0x30
     cb4:	f803 1d01 	strb.w	r1, [r3, #-1]!
     cb8:	f10d 0107 	add.w	r1, sp, #7
     cbc:	428b      	cmp	r3, r1
     cbe:	d20a      	bcs.n	cd6 <__exponent+0x62>
     cc0:	f813 1b01 	ldrb.w	r1, [r3], #1
     cc4:	f802 1b01 	strb.w	r1, [r2], #1
     cc8:	e7f6      	b.n	cb8 <__exponent+0x44>
     cca:	2430      	movs	r4, #48	; 0x30
     ccc:	461a      	mov	r2, r3
     cce:	4421      	add	r1, r4
     cd0:	f802 4b02 	strb.w	r4, [r2], #2
     cd4:	7059      	strb	r1, [r3, #1]
     cd6:	1a10      	subs	r0, r2, r0
     cd8:	b002      	add	sp, #8
     cda:	bd70      	pop	{r4, r5, r6, pc}

00000cdc <_printf_float>:
     cdc:	e92d 4ff0 	stmdb	sp!, {r4, r5, r6, r7, r8, r9, sl, fp, lr}
     ce0:	b08f      	sub	sp, #60	; 0x3c
     ce2:	460c      	mov	r4, r1
     ce4:	4616      	mov	r6, r2
     ce6:	461f      	mov	r7, r3
     ce8:	f8dd 9060 	ldr.w	r9, [sp, #96]	; 0x60
     cec:	4605      	mov	r5, r0
     cee:	f001 fbc7 	bl	2480 <_localeconv_r>
     cf2:	f8d0 a000 	ldr.w	sl, [r0]
     cf6:	4650      	mov	r0, sl
     cf8:	f7ff fd74 	bl	7e4 <strlen>
     cfc:	2300      	movs	r3, #0
     cfe:	930c      	str	r3, [sp, #48]	; 0x30
     d00:	f8d9 3000 	ldr.w	r3, [r9]
     d04:	9009      	str	r0, [sp, #36]	; 0x24
     d06:	3307      	adds	r3, #7
     d08:	f023 0307 	bic.w	r3, r3, #7
     d0c:	f103 0208 	add.w	r2, r3, #8
     d10:	e9d3 0100 	ldrd	r0, r1, [r3]
     d14:	f894 8018 	ldrb.w	r8, [r4, #24]
     d18:	f8c9 2000 	str.w	r2, [r9]
     d1c:	e9c4 0112 	strd	r0, r1, [r4, #72]	; 0x48
     d20:	f002 f80e 	bl	2d40 <__fpclassifyd>
     d24:	2801      	cmp	r0, #1
     d26:	e9d4 0112 	ldrd	r0, r1, [r4, #72]	; 0x48
     d2a:	d117      	bne.n	d5c <_printf_float+0x80>
     d2c:	2200      	movs	r2, #0
     d2e:	2300      	movs	r3, #0
     d30:	f003 fdce 	bl	48d0 <__aeabi_dcmplt>
     d34:	b110      	cbz	r0, d3c <_printf_float+0x60>
     d36:	232d      	movs	r3, #45	; 0x2d
     d38:	f884 3043 	strb.w	r3, [r4, #67]	; 0x43
     d3c:	4b90      	ldr	r3, [pc, #576]	; (f80 <_printf_float+0x2a4>)
     d3e:	4a91      	ldr	r2, [pc, #580]	; (f84 <_printf_float+0x2a8>)
     d40:	f1b8 0f47 	cmp.w	r8, #71	; 0x47
     d44:	bf8c      	ite	hi
     d46:	4691      	movhi	r9, r2
     d48:	4699      	movls	r9, r3
     d4a:	2303      	movs	r3, #3
     d4c:	6123      	str	r3, [r4, #16]
     d4e:	6823      	ldr	r3, [r4, #0]
     d50:	f023 0304 	bic.w	r3, r3, #4
     d54:	6023      	str	r3, [r4, #0]
     d56:	f04f 0b00 	mov.w	fp, #0
     d5a:	e086      	b.n	e6a <_printf_float+0x18e>
     d5c:	f001 fff0 	bl	2d40 <__fpclassifyd>
     d60:	6823      	ldr	r3, [r4, #0]
     d62:	b948      	cbnz	r0, d78 <_printf_float+0x9c>
     d64:	4a88      	ldr	r2, [pc, #544]	; (f88 <_printf_float+0x2ac>)
     d66:	4989      	ldr	r1, [pc, #548]	; (f8c <_printf_float+0x2b0>)
     d68:	f1b8 0f47 	cmp.w	r8, #71	; 0x47
     d6c:	bf8c      	ite	hi
     d6e:	4689      	movhi	r9, r1
     d70:	4691      	movls	r9, r2
     d72:	2203      	movs	r2, #3
     d74:	6122      	str	r2, [r4, #16]
     d76:	e7eb      	b.n	d50 <_printf_float+0x74>
     d78:	6862      	ldr	r2, [r4, #4]
     d7a:	f028 0b20 	bic.w	fp, r8, #32
     d7e:	1c51      	adds	r1, r2, #1
     d80:	d101      	bne.n	d86 <_printf_float+0xaa>
     d82:	2206      	movs	r2, #6
     d84:	e004      	b.n	d90 <_printf_float+0xb4>
     d86:	f1bb 0f47 	cmp.w	fp, #71	; 0x47
     d8a:	d102      	bne.n	d92 <_printf_float+0xb6>
     d8c:	b90a      	cbnz	r2, d92 <_printf_float+0xb6>
     d8e:	2201      	movs	r2, #1
     d90:	6062      	str	r2, [r4, #4]
     d92:	6860      	ldr	r0, [r4, #4]
     d94:	f443 6180 	orr.w	r1, r3, #1024	; 0x400
     d98:	e88d 0003 	stmia.w	sp, {r0, r1}
     d9c:	e9d4 2312 	ldrd	r2, r3, [r4, #72]	; 0x48
     da0:	f10d 002b 	add.w	r0, sp, #43	; 0x2b
     da4:	9002      	str	r0, [sp, #8]
     da6:	a80b      	add	r0, sp, #44	; 0x2c
     da8:	9003      	str	r0, [sp, #12]
     daa:	a80c      	add	r0, sp, #48	; 0x30
     dac:	9005      	str	r0, [sp, #20]
     dae:	2000      	movs	r0, #0
     db0:	6021      	str	r1, [r4, #0]
     db2:	9006      	str	r0, [sp, #24]
     db4:	f8cd 8010 	str.w	r8, [sp, #16]
     db8:	4628      	mov	r0, r5
     dba:	f7ff fefb 	bl	bb4 <__cvt>
     dbe:	f1bb 0f47 	cmp.w	fp, #71	; 0x47
     dc2:	4681      	mov	r9, r0
     dc4:	990b      	ldr	r1, [sp, #44]	; 0x2c
     dc6:	d109      	bne.n	ddc <_printf_float+0x100>
     dc8:	1cc8      	adds	r0, r1, #3
     dca:	db02      	blt.n	dd2 <_printf_float+0xf6>
     dcc:	6863      	ldr	r3, [r4, #4]
     dce:	4299      	cmp	r1, r3
     dd0:	dd30      	ble.n	e34 <_printf_float+0x158>
     dd2:	f1a8 0802 	sub.w	r8, r8, #2
     dd6:	fa5f f888 	uxtb.w	r8, r8
     dda:	e002      	b.n	de2 <_printf_float+0x106>
     ddc:	f1b8 0f65 	cmp.w	r8, #101	; 0x65
     de0:	d812      	bhi.n	e08 <_printf_float+0x12c>
     de2:	3901      	subs	r1, #1
     de4:	4642      	mov	r2, r8
     de6:	f104 0050 	add.w	r0, r4, #80	; 0x50
     dea:	910b      	str	r1, [sp, #44]	; 0x2c
     dec:	f7ff ff42 	bl	c74 <__exponent>
     df0:	9a0c      	ldr	r2, [sp, #48]	; 0x30
     df2:	4683      	mov	fp, r0
     df4:	1883      	adds	r3, r0, r2
     df6:	2a01      	cmp	r2, #1
     df8:	6123      	str	r3, [r4, #16]
     dfa:	dc02      	bgt.n	e02 <_printf_float+0x126>
     dfc:	6822      	ldr	r2, [r4, #0]
     dfe:	07d2      	lsls	r2, r2, #31
     e00:	d52d      	bpl.n	e5e <_printf_float+0x182>
     e02:	3301      	adds	r3, #1
     e04:	6123      	str	r3, [r4, #16]
     e06:	e02a      	b.n	e5e <_printf_float+0x182>
     e08:	f1b8 0f66 	cmp.w	r8, #102	; 0x66
     e0c:	d114      	bne.n	e38 <_printf_float+0x15c>
     e0e:	2900      	cmp	r1, #0
     e10:	6863      	ldr	r3, [r4, #4]
     e12:	dd07      	ble.n	e24 <_printf_float+0x148>
     e14:	6121      	str	r1, [r4, #16]
     e16:	b913      	cbnz	r3, e1e <_printf_float+0x142>
     e18:	6822      	ldr	r2, [r4, #0]
     e1a:	07d0      	lsls	r0, r2, #31
     e1c:	d51c      	bpl.n	e58 <_printf_float+0x17c>
     e1e:	3301      	adds	r3, #1
     e20:	440b      	add	r3, r1
     e22:	e018      	b.n	e56 <_printf_float+0x17a>
     e24:	b913      	cbnz	r3, e2c <_printf_float+0x150>
     e26:	6822      	ldr	r2, [r4, #0]
     e28:	07d2      	lsls	r2, r2, #31
     e2a:	d501      	bpl.n	e30 <_printf_float+0x154>
     e2c:	3302      	adds	r3, #2
     e2e:	e012      	b.n	e56 <_printf_float+0x17a>
     e30:	2301      	movs	r3, #1
     e32:	e010      	b.n	e56 <_printf_float+0x17a>
     e34:	f04f 0867 	mov.w	r8, #103	; 0x67
     e38:	9a0c      	ldr	r2, [sp, #48]	; 0x30
     e3a:	4291      	cmp	r1, r2
     e3c:	db05      	blt.n	e4a <_printf_float+0x16e>
     e3e:	6823      	ldr	r3, [r4, #0]
     e40:	6121      	str	r1, [r4, #16]
     e42:	07d8      	lsls	r0, r3, #31
     e44:	d508      	bpl.n	e58 <_printf_float+0x17c>
     e46:	1c4b      	adds	r3, r1, #1
     e48:	e005      	b.n	e56 <_printf_float+0x17a>
     e4a:	2900      	cmp	r1, #0
     e4c:	bfd4      	ite	le
     e4e:	f1c1 0302 	rsble	r3, r1, #2
     e52:	2301      	movgt	r3, #1
     e54:	4413      	add	r3, r2
     e56:	6123      	str	r3, [r4, #16]
     e58:	65a1      	str	r1, [r4, #88]	; 0x58
     e5a:	f04f 0b00 	mov.w	fp, #0
     e5e:	f89d 302b 	ldrb.w	r3, [sp, #43]	; 0x2b
     e62:	b113      	cbz	r3, e6a <_printf_float+0x18e>
     e64:	232d      	movs	r3, #45	; 0x2d
     e66:	f884 3043 	strb.w	r3, [r4, #67]	; 0x43
     e6a:	9700      	str	r7, [sp, #0]
     e6c:	4628      	mov	r0, r5
     e6e:	4621      	mov	r1, r4
     e70:	aa0d      	add	r2, sp, #52	; 0x34
     e72:	4633      	mov	r3, r6
     e74:	f000 f940 	bl	10f8 <_printf_common>
     e78:	3001      	adds	r0, #1
     e7a:	d102      	bne.n	e82 <_printf_float+0x1a6>
     e7c:	f04f 30ff 	mov.w	r0, #4294967295	; 0xffffffff
     e80:	e136      	b.n	10f0 <_printf_float+0x414>
     e82:	6823      	ldr	r3, [r4, #0]
     e84:	055a      	lsls	r2, r3, #21
     e86:	d404      	bmi.n	e92 <_printf_float+0x1b6>
     e88:	4628      	mov	r0, r5
     e8a:	4631      	mov	r1, r6
     e8c:	464a      	mov	r2, r9
     e8e:	6923      	ldr	r3, [r4, #16]
     e90:	e108      	b.n	10a4 <_printf_float+0x3c8>
     e92:	f1b8 0f65 	cmp.w	r8, #101	; 0x65
     e96:	f240 80cb 	bls.w	1030 <_printf_float+0x354>
     e9a:	e9d4 0112 	ldrd	r0, r1, [r4, #72]	; 0x48
     e9e:	2200      	movs	r2, #0
     ea0:	2300      	movs	r3, #0
     ea2:	f003 fd0b 	bl	48bc <__aeabi_dcmpeq>
     ea6:	2800      	cmp	r0, #0
     ea8:	d02a      	beq.n	f00 <_printf_float+0x224>
     eaa:	4628      	mov	r0, r5
     eac:	4631      	mov	r1, r6
     eae:	4a38      	ldr	r2, [pc, #224]	; (f90 <_printf_float+0x2b4>)
     eb0:	2301      	movs	r3, #1
     eb2:	47b8      	blx	r7
     eb4:	3001      	adds	r0, #1
     eb6:	d0e1      	beq.n	e7c <_printf_float+0x1a0>
     eb8:	9b0c      	ldr	r3, [sp, #48]	; 0x30
     eba:	9a0b      	ldr	r2, [sp, #44]	; 0x2c
     ebc:	429a      	cmp	r2, r3
     ebe:	db07      	blt.n	ed0 <_printf_float+0x1f4>
     ec0:	6823      	ldr	r3, [r4, #0]
     ec2:	07d8      	lsls	r0, r3, #31
     ec4:	d404      	bmi.n	ed0 <_printf_float+0x1f4>
     ec6:	6823      	ldr	r3, [r4, #0]
     ec8:	079b      	lsls	r3, r3, #30
     eca:	f100 80f8 	bmi.w	10be <_printf_float+0x3e2>
     ece:	e0fd      	b.n	10cc <_printf_float+0x3f0>
     ed0:	4628      	mov	r0, r5
     ed2:	4631      	mov	r1, r6
     ed4:	4652      	mov	r2, sl
     ed6:	9b09      	ldr	r3, [sp, #36]	; 0x24
     ed8:	47b8      	blx	r7
     eda:	3001      	adds	r0, #1
     edc:	d0ce      	beq.n	e7c <_printf_float+0x1a0>
     ede:	f04f 0800 	mov.w	r8, #0
     ee2:	9b0c      	ldr	r3, [sp, #48]	; 0x30
     ee4:	3b01      	subs	r3, #1
     ee6:	4598      	cmp	r8, r3
     ee8:	daed      	bge.n	ec6 <_printf_float+0x1ea>
     eea:	4628      	mov	r0, r5
     eec:	4631      	mov	r1, r6
     eee:	f104 021a 	add.w	r2, r4, #26
     ef2:	2301      	movs	r3, #1
     ef4:	47b8      	blx	r7
     ef6:	3001      	adds	r0, #1
     ef8:	d0c0      	beq.n	e7c <_printf_float+0x1a0>
     efa:	f108 0801 	add.w	r8, r8, #1
     efe:	e7f0      	b.n	ee2 <_printf_float+0x206>
     f00:	9b0b      	ldr	r3, [sp, #44]	; 0x2c
     f02:	2b00      	cmp	r3, #0
     f04:	dc28      	bgt.n	f58 <_printf_float+0x27c>
     f06:	4628      	mov	r0, r5
     f08:	4631      	mov	r1, r6
     f0a:	4a21      	ldr	r2, [pc, #132]	; (f90 <_printf_float+0x2b4>)
     f0c:	2301      	movs	r3, #1
     f0e:	47b8      	blx	r7
     f10:	3001      	adds	r0, #1
     f12:	d0b3      	beq.n	e7c <_printf_float+0x1a0>
     f14:	9b0b      	ldr	r3, [sp, #44]	; 0x2c
     f16:	b923      	cbnz	r3, f22 <_printf_float+0x246>
     f18:	9b0c      	ldr	r3, [sp, #48]	; 0x30
     f1a:	b913      	cbnz	r3, f22 <_printf_float+0x246>
     f1c:	6823      	ldr	r3, [r4, #0]
     f1e:	07d9      	lsls	r1, r3, #31
     f20:	d5d1      	bpl.n	ec6 <_printf_float+0x1ea>
     f22:	4628      	mov	r0, r5
     f24:	4631      	mov	r1, r6
     f26:	4652      	mov	r2, sl
     f28:	9b09      	ldr	r3, [sp, #36]	; 0x24
     f2a:	47b8      	blx	r7
     f2c:	3001      	adds	r0, #1
     f2e:	d0a5      	beq.n	e7c <_printf_float+0x1a0>
     f30:	f04f 0800 	mov.w	r8, #0
     f34:	9b0b      	ldr	r3, [sp, #44]	; 0x2c
     f36:	4628      	mov	r0, r5
     f38:	425b      	negs	r3, r3
     f3a:	4598      	cmp	r8, r3
     f3c:	4631      	mov	r1, r6
     f3e:	da08      	bge.n	f52 <_printf_float+0x276>
     f40:	f104 021a 	add.w	r2, r4, #26
     f44:	2301      	movs	r3, #1
     f46:	47b8      	blx	r7
     f48:	3001      	adds	r0, #1
     f4a:	d097      	beq.n	e7c <_printf_float+0x1a0>
     f4c:	f108 0801 	add.w	r8, r8, #1
     f50:	e7f0      	b.n	f34 <_printf_float+0x258>
     f52:	464a      	mov	r2, r9
     f54:	9b0c      	ldr	r3, [sp, #48]	; 0x30
     f56:	e0a5      	b.n	10a4 <_printf_float+0x3c8>
     f58:	6da3      	ldr	r3, [r4, #88]	; 0x58
     f5a:	9a0c      	ldr	r2, [sp, #48]	; 0x30
     f5c:	429a      	cmp	r2, r3
     f5e:	bfb4      	ite	lt
     f60:	4693      	movlt	fp, r2
     f62:	469b      	movge	fp, r3
     f64:	f1bb 0f00 	cmp.w	fp, #0
     f68:	dc02      	bgt.n	f70 <_printf_float+0x294>
     f6a:	f04f 0800 	mov.w	r8, #0
     f6e:	e01c      	b.n	faa <_printf_float+0x2ce>
     f70:	4628      	mov	r0, r5
     f72:	4631      	mov	r1, r6
     f74:	464a      	mov	r2, r9
     f76:	465b      	mov	r3, fp
     f78:	47b8      	blx	r7
     f7a:	3001      	adds	r0, #1
     f7c:	d1f5      	bne.n	f6a <_printf_float+0x28e>
     f7e:	e77d      	b.n	e7c <_printf_float+0x1a0>
     f80:	00004aaf 	andeq	r4, r0, pc, lsr #21
     f84:	00004ab3 			; <UNDEFINED> instruction: 0x00004ab3
     f88:	00004ab7 			; <UNDEFINED> instruction: 0x00004ab7
     f8c:	00004abb 			; <UNDEFINED> instruction: 0x00004abb
     f90:	00004abf 			; <UNDEFINED> instruction: 0x00004abf
     f94:	4628      	mov	r0, r5
     f96:	4631      	mov	r1, r6
     f98:	f104 021a 	add.w	r2, r4, #26
     f9c:	2301      	movs	r3, #1
     f9e:	47b8      	blx	r7
     fa0:	3001      	adds	r0, #1
     fa2:	f43f af6b 	beq.w	e7c <_printf_float+0x1a0>
     fa6:	f108 0801 	add.w	r8, r8, #1
     faa:	6da3      	ldr	r3, [r4, #88]	; 0x58
     fac:	ea2b 72eb 	bic.w	r2, fp, fp, asr #31
     fb0:	1a9a      	subs	r2, r3, r2
     fb2:	4590      	cmp	r8, r2
     fb4:	dbee      	blt.n	f94 <_printf_float+0x2b8>
     fb6:	eb09 0803 	add.w	r8, r9, r3
     fba:	9a0b      	ldr	r2, [sp, #44]	; 0x2c
     fbc:	9b0c      	ldr	r3, [sp, #48]	; 0x30
     fbe:	429a      	cmp	r2, r3
     fc0:	db0f      	blt.n	fe2 <_printf_float+0x306>
     fc2:	6823      	ldr	r3, [r4, #0]
     fc4:	07da      	lsls	r2, r3, #31
     fc6:	d40c      	bmi.n	fe2 <_printf_float+0x306>
     fc8:	9b0c      	ldr	r3, [sp, #48]	; 0x30
     fca:	9a0b      	ldr	r2, [sp, #44]	; 0x2c
     fcc:	4499      	add	r9, r3
     fce:	ebc8 0909 	rsb	r9, r8, r9
     fd2:	1a9b      	subs	r3, r3, r2
     fd4:	4599      	cmp	r9, r3
     fd6:	bfa8      	it	ge
     fd8:	4699      	movge	r9, r3
     fda:	f1b9 0f00 	cmp.w	r9, #0
     fde:	dc08      	bgt.n	ff2 <_printf_float+0x316>
     fe0:	e00f      	b.n	1002 <_printf_float+0x326>
     fe2:	4628      	mov	r0, r5
     fe4:	4631      	mov	r1, r6
     fe6:	4652      	mov	r2, sl
     fe8:	9b09      	ldr	r3, [sp, #36]	; 0x24
     fea:	47b8      	blx	r7
     fec:	3001      	adds	r0, #1
     fee:	d1eb      	bne.n	fc8 <_printf_float+0x2ec>
     ff0:	e744      	b.n	e7c <_printf_float+0x1a0>
     ff2:	4628      	mov	r0, r5
     ff4:	4631      	mov	r1, r6
     ff6:	4642      	mov	r2, r8
     ff8:	464b      	mov	r3, r9
     ffa:	47b8      	blx	r7
     ffc:	3001      	adds	r0, #1
     ffe:	f43f af3d 	beq.w	e7c <_printf_float+0x1a0>
    1002:	f04f 0800 	mov.w	r8, #0
    1006:	e00a      	b.n	101e <_printf_float+0x342>
    1008:	4628      	mov	r0, r5
    100a:	4631      	mov	r1, r6
    100c:	f104 021a 	add.w	r2, r4, #26
    1010:	2301      	movs	r3, #1
    1012:	47b8      	blx	r7
    1014:	3001      	adds	r0, #1
    1016:	f43f af31 	beq.w	e7c <_printf_float+0x1a0>
    101a:	f108 0801 	add.w	r8, r8, #1
    101e:	9b0b      	ldr	r3, [sp, #44]	; 0x2c
    1020:	9a0c      	ldr	r2, [sp, #48]	; 0x30
    1022:	ea29 71e9 	bic.w	r1, r9, r9, asr #31
    1026:	1ad3      	subs	r3, r2, r3
    1028:	1a5b      	subs	r3, r3, r1
    102a:	4598      	cmp	r8, r3
    102c:	dbec      	blt.n	1008 <_printf_float+0x32c>
    102e:	e74a      	b.n	ec6 <_printf_float+0x1ea>
    1030:	9a0c      	ldr	r2, [sp, #48]	; 0x30
    1032:	2a01      	cmp	r2, #1
    1034:	dc01      	bgt.n	103a <_printf_float+0x35e>
    1036:	07db      	lsls	r3, r3, #31
    1038:	d539      	bpl.n	10ae <_printf_float+0x3d2>
    103a:	4628      	mov	r0, r5
    103c:	4631      	mov	r1, r6
    103e:	464a      	mov	r2, r9
    1040:	2301      	movs	r3, #1
    1042:	47b8      	blx	r7
    1044:	3001      	adds	r0, #1
    1046:	f43f af19 	beq.w	e7c <_printf_float+0x1a0>
    104a:	4628      	mov	r0, r5
    104c:	4631      	mov	r1, r6
    104e:	4652      	mov	r2, sl
    1050:	9b09      	ldr	r3, [sp, #36]	; 0x24
    1052:	47b8      	blx	r7
    1054:	3001      	adds	r0, #1
    1056:	f43f af11 	beq.w	e7c <_printf_float+0x1a0>
    105a:	e9d4 0112 	ldrd	r0, r1, [r4, #72]	; 0x48
    105e:	2200      	movs	r2, #0
    1060:	2300      	movs	r3, #0
    1062:	f003 fc2b 	bl	48bc <__aeabi_dcmpeq>
    1066:	b110      	cbz	r0, 106e <_printf_float+0x392>
    1068:	f04f 0800 	mov.w	r8, #0
    106c:	e011      	b.n	1092 <_printf_float+0x3b6>
    106e:	9b0c      	ldr	r3, [sp, #48]	; 0x30
    1070:	4628      	mov	r0, r5
    1072:	4631      	mov	r1, r6
    1074:	f109 0201 	add.w	r2, r9, #1
    1078:	3b01      	subs	r3, #1
    107a:	e01c      	b.n	10b6 <_printf_float+0x3da>
    107c:	4628      	mov	r0, r5
    107e:	4631      	mov	r1, r6
    1080:	f104 021a 	add.w	r2, r4, #26
    1084:	2301      	movs	r3, #1
    1086:	47b8      	blx	r7
    1088:	3001      	adds	r0, #1
    108a:	f43f aef7 	beq.w	e7c <_printf_float+0x1a0>
    108e:	f108 0801 	add.w	r8, r8, #1
    1092:	9b0c      	ldr	r3, [sp, #48]	; 0x30
    1094:	3b01      	subs	r3, #1
    1096:	4598      	cmp	r8, r3
    1098:	dbf0      	blt.n	107c <_printf_float+0x3a0>
    109a:	4628      	mov	r0, r5
    109c:	4631      	mov	r1, r6
    109e:	f104 0250 	add.w	r2, r4, #80	; 0x50
    10a2:	465b      	mov	r3, fp
    10a4:	47b8      	blx	r7
    10a6:	3001      	adds	r0, #1
    10a8:	f47f af0d 	bne.w	ec6 <_printf_float+0x1ea>
    10ac:	e6e6      	b.n	e7c <_printf_float+0x1a0>
    10ae:	4628      	mov	r0, r5
    10b0:	4631      	mov	r1, r6
    10b2:	464a      	mov	r2, r9
    10b4:	2301      	movs	r3, #1
    10b6:	47b8      	blx	r7
    10b8:	3001      	adds	r0, #1
    10ba:	d1ee      	bne.n	109a <_printf_float+0x3be>
    10bc:	e6de      	b.n	e7c <_printf_float+0x1a0>
    10be:	f04f 0800 	mov.w	r8, #0
    10c2:	68e2      	ldr	r2, [r4, #12]
    10c4:	9b0d      	ldr	r3, [sp, #52]	; 0x34
    10c6:	1ad3      	subs	r3, r2, r3
    10c8:	4598      	cmp	r8, r3
    10ca:	db05      	blt.n	10d8 <_printf_float+0x3fc>
    10cc:	68e0      	ldr	r0, [r4, #12]
    10ce:	9b0d      	ldr	r3, [sp, #52]	; 0x34
    10d0:	4298      	cmp	r0, r3
    10d2:	bfb8      	it	lt
    10d4:	4618      	movlt	r0, r3
    10d6:	e00b      	b.n	10f0 <_printf_float+0x414>
    10d8:	4628      	mov	r0, r5
    10da:	4631      	mov	r1, r6
    10dc:	f104 0219 	add.w	r2, r4, #25
    10e0:	2301      	movs	r3, #1
    10e2:	47b8      	blx	r7
    10e4:	3001      	adds	r0, #1
    10e6:	f43f aec9 	beq.w	e7c <_printf_float+0x1a0>
    10ea:	f108 0801 	add.w	r8, r8, #1
    10ee:	e7e8      	b.n	10c2 <_printf_float+0x3e6>
    10f0:	b00f      	add	sp, #60	; 0x3c
    10f2:	e8bd 8ff0 	ldmia.w	sp!, {r4, r5, r6, r7, r8, r9, sl, fp, pc}
    10f6:	bf00      	nop

000010f8 <_printf_common>:
    10f8:	e92d 43f8 	stmdb	sp!, {r3, r4, r5, r6, r7, r8, r9, lr}
    10fc:	4615      	mov	r5, r2
    10fe:	461f      	mov	r7, r3
    1100:	688a      	ldr	r2, [r1, #8]
    1102:	690b      	ldr	r3, [r1, #16]
    1104:	4606      	mov	r6, r0
    1106:	429a      	cmp	r2, r3
    1108:	bfa8      	it	ge
    110a:	4613      	movge	r3, r2
    110c:	602b      	str	r3, [r5, #0]
    110e:	f891 2043 	ldrb.w	r2, [r1, #67]	; 0x43
    1112:	460c      	mov	r4, r1
    1114:	f8dd 8020 	ldr.w	r8, [sp, #32]
    1118:	b10a      	cbz	r2, 111e <_printf_common+0x26>
    111a:	3301      	adds	r3, #1
    111c:	602b      	str	r3, [r5, #0]
    111e:	6823      	ldr	r3, [r4, #0]
    1120:	0699      	lsls	r1, r3, #26
    1122:	d502      	bpl.n	112a <_printf_common+0x32>
    1124:	682b      	ldr	r3, [r5, #0]
    1126:	3302      	adds	r3, #2
    1128:	602b      	str	r3, [r5, #0]
    112a:	6823      	ldr	r3, [r4, #0]
    112c:	f013 0906 	ands.w	r9, r3, #6
    1130:	d01d      	beq.n	116e <_printf_common+0x76>
    1132:	f894 3043 	ldrb.w	r3, [r4, #67]	; 0x43
    1136:	6822      	ldr	r2, [r4, #0]
    1138:	3300      	adds	r3, #0
    113a:	bf18      	it	ne
    113c:	2301      	movne	r3, #1
    113e:	0692      	lsls	r2, r2, #26
    1140:	d51f      	bpl.n	1182 <_printf_common+0x8a>
    1142:	18e1      	adds	r1, r4, r3
    1144:	2030      	movs	r0, #48	; 0x30
    1146:	f881 0043 	strb.w	r0, [r1, #67]	; 0x43
    114a:	1c5a      	adds	r2, r3, #1
    114c:	f894 1045 	ldrb.w	r1, [r4, #69]	; 0x45
    1150:	4422      	add	r2, r4
    1152:	3302      	adds	r3, #2
    1154:	f882 1043 	strb.w	r1, [r2, #67]	; 0x43
    1158:	e013      	b.n	1182 <_printf_common+0x8a>
    115a:	4630      	mov	r0, r6
    115c:	4639      	mov	r1, r7
    115e:	f104 0219 	add.w	r2, r4, #25
    1162:	2301      	movs	r3, #1
    1164:	47c0      	blx	r8
    1166:	3001      	adds	r0, #1
    1168:	d007      	beq.n	117a <_printf_common+0x82>
    116a:	f109 0901 	add.w	r9, r9, #1
    116e:	68e2      	ldr	r2, [r4, #12]
    1170:	682b      	ldr	r3, [r5, #0]
    1172:	1ad3      	subs	r3, r2, r3
    1174:	4599      	cmp	r9, r3
    1176:	dbf0      	blt.n	115a <_printf_common+0x62>
    1178:	e7db      	b.n	1132 <_printf_common+0x3a>
    117a:	f04f 30ff 	mov.w	r0, #4294967295	; 0xffffffff
    117e:	e8bd 83f8 	ldmia.w	sp!, {r3, r4, r5, r6, r7, r8, r9, pc}
    1182:	4630      	mov	r0, r6
    1184:	4639      	mov	r1, r7
    1186:	f104 0243 	add.w	r2, r4, #67	; 0x43
    118a:	47c0      	blx	r8
    118c:	3001      	adds	r0, #1
    118e:	d0f4      	beq.n	117a <_printf_common+0x82>
    1190:	6823      	ldr	r3, [r4, #0]
    1192:	682a      	ldr	r2, [r5, #0]
    1194:	f003 0306 	and.w	r3, r3, #6
    1198:	68e1      	ldr	r1, [r4, #12]
    119a:	2b04      	cmp	r3, #4
    119c:	bf08      	it	eq
    119e:	ebc2 0501 	rsbeq	r5, r2, r1
    11a2:	6923      	ldr	r3, [r4, #16]
    11a4:	68a2      	ldr	r2, [r4, #8]
    11a6:	bf0c      	ite	eq
    11a8:	ea25 75e5 	biceq.w	r5, r5, r5, asr #31
    11ac:	2500      	movne	r5, #0
    11ae:	429a      	cmp	r2, r3
    11b0:	bfc4      	itt	gt
    11b2:	ebc3 0302 	rsbgt	r3, r3, r2
    11b6:	18ed      	addgt	r5, r5, r3
    11b8:	f04f 0900 	mov.w	r9, #0
    11bc:	45a9      	cmp	r9, r5
    11be:	da0a      	bge.n	11d6 <_printf_common+0xde>
    11c0:	4630      	mov	r0, r6
    11c2:	4639      	mov	r1, r7
    11c4:	f104 021a 	add.w	r2, r4, #26
    11c8:	2301      	movs	r3, #1
    11ca:	47c0      	blx	r8
    11cc:	3001      	adds	r0, #1
    11ce:	d0d4      	beq.n	117a <_printf_common+0x82>
    11d0:	f109 0901 	add.w	r9, r9, #1
    11d4:	e7f2      	b.n	11bc <_printf_common+0xc4>
    11d6:	2000      	movs	r0, #0
    11d8:	e8bd 83f8 	ldmia.w	sp!, {r3, r4, r5, r6, r7, r8, r9, pc}

000011dc <_printf_i>:
    11dc:	e92d 47ff 	stmdb	sp!, {r0, r1, r2, r3, r4, r5, r6, r7, r8, r9, sl, lr}
    11e0:	7e0e      	ldrb	r6, [r1, #24]
    11e2:	4680      	mov	r8, r0
    11e4:	2e6e      	cmp	r6, #110	; 0x6e
    11e6:	460c      	mov	r4, r1
    11e8:	4691      	mov	r9, r2
    11ea:	469a      	mov	sl, r3
    11ec:	9d0c      	ldr	r5, [sp, #48]	; 0x30
    11ee:	f101 0043 	add.w	r0, r1, #67	; 0x43
    11f2:	f000 80a5 	beq.w	1340 <_printf_i+0x164>
    11f6:	d811      	bhi.n	121c <_printf_i+0x40>
    11f8:	2e63      	cmp	r6, #99	; 0x63
    11fa:	d022      	beq.n	1242 <_printf_i+0x66>
    11fc:	d809      	bhi.n	1212 <_printf_i+0x36>
    11fe:	2e00      	cmp	r6, #0
    1200:	f000 80af 	beq.w	1362 <_printf_i+0x186>
    1204:	2e58      	cmp	r6, #88	; 0x58
    1206:	f040 80bf 	bne.w	1388 <_printf_i+0x1ac>
    120a:	f881 6045 	strb.w	r6, [r1, #69]	; 0x45
    120e:	4a7b      	ldr	r2, [pc, #492]	; (13fc <_printf_i+0x220>)
    1210:	e04f      	b.n	12b2 <_printf_i+0xd6>
    1212:	2e64      	cmp	r6, #100	; 0x64
    1214:	d01e      	beq.n	1254 <_printf_i+0x78>
    1216:	2e69      	cmp	r6, #105	; 0x69
    1218:	d01c      	beq.n	1254 <_printf_i+0x78>
    121a:	e0b5      	b.n	1388 <_printf_i+0x1ac>
    121c:	2e73      	cmp	r6, #115	; 0x73
    121e:	f000 80a4 	beq.w	136a <_printf_i+0x18e>
    1222:	d809      	bhi.n	1238 <_printf_i+0x5c>
    1224:	2e6f      	cmp	r6, #111	; 0x6f
    1226:	d02b      	beq.n	1280 <_printf_i+0xa4>
    1228:	2e70      	cmp	r6, #112	; 0x70
    122a:	f040 80ad 	bne.w	1388 <_printf_i+0x1ac>
    122e:	680b      	ldr	r3, [r1, #0]
    1230:	f043 0320 	orr.w	r3, r3, #32
    1234:	600b      	str	r3, [r1, #0]
    1236:	e038      	b.n	12aa <_printf_i+0xce>
    1238:	2e75      	cmp	r6, #117	; 0x75
    123a:	d021      	beq.n	1280 <_printf_i+0xa4>
    123c:	2e78      	cmp	r6, #120	; 0x78
    123e:	d034      	beq.n	12aa <_printf_i+0xce>
    1240:	e0a2      	b.n	1388 <_printf_i+0x1ac>
    1242:	682b      	ldr	r3, [r5, #0]
    1244:	f101 0742 	add.w	r7, r1, #66	; 0x42
    1248:	1d1a      	adds	r2, r3, #4
    124a:	681b      	ldr	r3, [r3, #0]
    124c:	602a      	str	r2, [r5, #0]
    124e:	f881 3042 	strb.w	r3, [r1, #66]	; 0x42
    1252:	e09d      	b.n	1390 <_printf_i+0x1b4>
    1254:	6822      	ldr	r2, [r4, #0]
    1256:	682b      	ldr	r3, [r5, #0]
    1258:	f012 0f80 	tst.w	r2, #128	; 0x80
    125c:	d003      	beq.n	1266 <_printf_i+0x8a>
    125e:	1d1a      	adds	r2, r3, #4
    1260:	602a      	str	r2, [r5, #0]
    1262:	681d      	ldr	r5, [r3, #0]
    1264:	e005      	b.n	1272 <_printf_i+0x96>
    1266:	0651      	lsls	r1, r2, #25
    1268:	d5f9      	bpl.n	125e <_printf_i+0x82>
    126a:	1d1a      	adds	r2, r3, #4
    126c:	602a      	str	r2, [r5, #0]
    126e:	f9b3 5000 	ldrsh.w	r5, [r3]
    1272:	2d00      	cmp	r5, #0
    1274:	da39      	bge.n	12ea <_printf_i+0x10e>
    1276:	232d      	movs	r3, #45	; 0x2d
    1278:	426d      	negs	r5, r5
    127a:	f884 3043 	strb.w	r3, [r4, #67]	; 0x43
    127e:	e034      	b.n	12ea <_printf_i+0x10e>
    1280:	6822      	ldr	r2, [r4, #0]
    1282:	682b      	ldr	r3, [r5, #0]
    1284:	f012 0f80 	tst.w	r2, #128	; 0x80
    1288:	d003      	beq.n	1292 <_printf_i+0xb6>
    128a:	1d1a      	adds	r2, r3, #4
    128c:	602a      	str	r2, [r5, #0]
    128e:	681d      	ldr	r5, [r3, #0]
    1290:	e004      	b.n	129c <_printf_i+0xc0>
    1292:	0652      	lsls	r2, r2, #25
    1294:	d5f9      	bpl.n	128a <_printf_i+0xae>
    1296:	1d1a      	adds	r2, r3, #4
    1298:	602a      	str	r2, [r5, #0]
    129a:	881d      	ldrh	r5, [r3, #0]
    129c:	7e23      	ldrb	r3, [r4, #24]
    129e:	4a57      	ldr	r2, [pc, #348]	; (13fc <_printf_i+0x220>)
    12a0:	2b6f      	cmp	r3, #111	; 0x6f
    12a2:	bf14      	ite	ne
    12a4:	230a      	movne	r3, #10
    12a6:	2308      	moveq	r3, #8
    12a8:	e01b      	b.n	12e2 <_printf_i+0x106>
    12aa:	2378      	movs	r3, #120	; 0x78
    12ac:	4a54      	ldr	r2, [pc, #336]	; (1400 <_printf_i+0x224>)
    12ae:	f884 3045 	strb.w	r3, [r4, #69]	; 0x45
    12b2:	6823      	ldr	r3, [r4, #0]
    12b4:	6829      	ldr	r1, [r5, #0]
    12b6:	f013 0f80 	tst.w	r3, #128	; 0x80
    12ba:	f101 0604 	add.w	r6, r1, #4
    12be:	602e      	str	r6, [r5, #0]
    12c0:	d001      	beq.n	12c6 <_printf_i+0xea>
    12c2:	680d      	ldr	r5, [r1, #0]
    12c4:	e002      	b.n	12cc <_printf_i+0xf0>
    12c6:	065f      	lsls	r7, r3, #25
    12c8:	d5fb      	bpl.n	12c2 <_printf_i+0xe6>
    12ca:	880d      	ldrh	r5, [r1, #0]
    12cc:	07de      	lsls	r6, r3, #31
    12ce:	bf44      	itt	mi
    12d0:	f043 0320 	orrmi.w	r3, r3, #32
    12d4:	6023      	strmi	r3, [r4, #0]
    12d6:	b91d      	cbnz	r5, 12e0 <_printf_i+0x104>
    12d8:	6823      	ldr	r3, [r4, #0]
    12da:	f023 0320 	bic.w	r3, r3, #32
    12de:	6023      	str	r3, [r4, #0]
    12e0:	2310      	movs	r3, #16
    12e2:	2100      	movs	r1, #0
    12e4:	f884 1043 	strb.w	r1, [r4, #67]	; 0x43
    12e8:	e001      	b.n	12ee <_printf_i+0x112>
    12ea:	4a44      	ldr	r2, [pc, #272]	; (13fc <_printf_i+0x220>)
    12ec:	230a      	movs	r3, #10
    12ee:	6866      	ldr	r6, [r4, #4]
    12f0:	2e00      	cmp	r6, #0
    12f2:	60a6      	str	r6, [r4, #8]
    12f4:	db03      	blt.n	12fe <_printf_i+0x122>
    12f6:	6821      	ldr	r1, [r4, #0]
    12f8:	f021 0104 	bic.w	r1, r1, #4
    12fc:	6021      	str	r1, [r4, #0]
    12fe:	b905      	cbnz	r5, 1302 <_printf_i+0x126>
    1300:	b16e      	cbz	r6, 131e <_printf_i+0x142>
    1302:	f104 0142 	add.w	r1, r4, #66	; 0x42
    1306:	fbb5 f6f3 	udiv	r6, r5, r3
    130a:	fb03 5516 	mls	r5, r3, r6, r5
    130e:	5d55      	ldrb	r5, [r2, r5]
    1310:	460f      	mov	r7, r1
    1312:	f801 5901 	strb.w	r5, [r1], #-1
    1316:	4635      	mov	r5, r6
    1318:	2e00      	cmp	r6, #0
    131a:	d1f4      	bne.n	1306 <_printf_i+0x12a>
    131c:	e000      	b.n	1320 <_printf_i+0x144>
    131e:	4607      	mov	r7, r0
    1320:	2b08      	cmp	r3, #8
    1322:	d10a      	bne.n	133a <_printf_i+0x15e>
    1324:	6823      	ldr	r3, [r4, #0]
    1326:	07dd      	lsls	r5, r3, #31
    1328:	d507      	bpl.n	133a <_printf_i+0x15e>
    132a:	6862      	ldr	r2, [r4, #4]
    132c:	6923      	ldr	r3, [r4, #16]
    132e:	429a      	cmp	r2, r3
    1330:	dc03      	bgt.n	133a <_printf_i+0x15e>
    1332:	2330      	movs	r3, #48	; 0x30
    1334:	f807 3c01 	strb.w	r3, [r7, #-1]
    1338:	3f01      	subs	r7, #1
    133a:	1bc0      	subs	r0, r0, r7
    133c:	6120      	str	r0, [r4, #16]
    133e:	e02c      	b.n	139a <_printf_i+0x1be>
    1340:	6809      	ldr	r1, [r1, #0]
    1342:	682b      	ldr	r3, [r5, #0]
    1344:	f011 0f80 	tst.w	r1, #128	; 0x80
    1348:	6962      	ldr	r2, [r4, #20]
    134a:	d004      	beq.n	1356 <_printf_i+0x17a>
    134c:	1d19      	adds	r1, r3, #4
    134e:	6029      	str	r1, [r5, #0]
    1350:	681b      	ldr	r3, [r3, #0]
    1352:	601a      	str	r2, [r3, #0]
    1354:	e005      	b.n	1362 <_printf_i+0x186>
    1356:	0649      	lsls	r1, r1, #25
    1358:	d5f8      	bpl.n	134c <_printf_i+0x170>
    135a:	1d19      	adds	r1, r3, #4
    135c:	6029      	str	r1, [r5, #0]
    135e:	681b      	ldr	r3, [r3, #0]
    1360:	801a      	strh	r2, [r3, #0]
    1362:	2300      	movs	r3, #0
    1364:	6123      	str	r3, [r4, #16]
    1366:	4607      	mov	r7, r0
    1368:	e017      	b.n	139a <_printf_i+0x1be>
    136a:	682b      	ldr	r3, [r5, #0]
    136c:	1d1a      	adds	r2, r3, #4
    136e:	602a      	str	r2, [r5, #0]
    1370:	681f      	ldr	r7, [r3, #0]
    1372:	4638      	mov	r0, r7
    1374:	f7ff fa36 	bl	7e4 <strlen>
    1378:	6863      	ldr	r3, [r4, #4]
    137a:	6120      	str	r0, [r4, #16]
    137c:	4298      	cmp	r0, r3
    137e:	bf88      	it	hi
    1380:	6123      	strhi	r3, [r4, #16]
    1382:	6923      	ldr	r3, [r4, #16]
    1384:	6063      	str	r3, [r4, #4]
    1386:	e005      	b.n	1394 <_printf_i+0x1b8>
    1388:	f104 0742 	add.w	r7, r4, #66	; 0x42
    138c:	f884 6042 	strb.w	r6, [r4, #66]	; 0x42
    1390:	2301      	movs	r3, #1
    1392:	6123      	str	r3, [r4, #16]
    1394:	2300      	movs	r3, #0
    1396:	f884 3043 	strb.w	r3, [r4, #67]	; 0x43
    139a:	f8cd a000 	str.w	sl, [sp]
    139e:	4640      	mov	r0, r8
    13a0:	4621      	mov	r1, r4
    13a2:	aa03      	add	r2, sp, #12
    13a4:	464b      	mov	r3, r9
    13a6:	f7ff fea7 	bl	10f8 <_printf_common>
    13aa:	3001      	adds	r0, #1
    13ac:	d102      	bne.n	13b4 <_printf_i+0x1d8>
    13ae:	f04f 30ff 	mov.w	r0, #4294967295	; 0xffffffff
    13b2:	e01f      	b.n	13f4 <_printf_i+0x218>
    13b4:	4640      	mov	r0, r8
    13b6:	4649      	mov	r1, r9
    13b8:	463a      	mov	r2, r7
    13ba:	6923      	ldr	r3, [r4, #16]
    13bc:	47d0      	blx	sl
    13be:	3001      	adds	r0, #1
    13c0:	d0f5      	beq.n	13ae <_printf_i+0x1d2>
    13c2:	6823      	ldr	r3, [r4, #0]
    13c4:	079b      	lsls	r3, r3, #30
    13c6:	d405      	bmi.n	13d4 <_printf_i+0x1f8>
    13c8:	68e0      	ldr	r0, [r4, #12]
    13ca:	9b03      	ldr	r3, [sp, #12]
    13cc:	4298      	cmp	r0, r3
    13ce:	bfb8      	it	lt
    13d0:	4618      	movlt	r0, r3
    13d2:	e00f      	b.n	13f4 <_printf_i+0x218>
    13d4:	2500      	movs	r5, #0
    13d6:	68e2      	ldr	r2, [r4, #12]
    13d8:	9b03      	ldr	r3, [sp, #12]
    13da:	1ad3      	subs	r3, r2, r3
    13dc:	429d      	cmp	r5, r3
    13de:	daf3      	bge.n	13c8 <_printf_i+0x1ec>
    13e0:	4640      	mov	r0, r8
    13e2:	4649      	mov	r1, r9
    13e4:	f104 0219 	add.w	r2, r4, #25
    13e8:	2301      	movs	r3, #1
    13ea:	47d0      	blx	sl
    13ec:	3001      	adds	r0, #1
    13ee:	d0de      	beq.n	13ae <_printf_i+0x1d2>
    13f0:	3501      	adds	r5, #1
    13f2:	e7f0      	b.n	13d6 <_printf_i+0x1fa>
    13f4:	b004      	add	sp, #16
    13f6:	e8bd 87f0 	ldmia.w	sp!, {r4, r5, r6, r7, r8, r9, sl, pc}
    13fa:	bf00      	nop
    13fc:	00004ac1 	andeq	r4, r0, r1, asr #21
    1400:	00004ad2 	ldrdeq	r4, [r0], -r2

00001404 <_scanf_float>:
    1404:	e92d 4ff0 	stmdb	sp!, {r4, r5, r6, r7, r8, r9, sl, fp, lr}
    1408:	4616      	mov	r6, r2
    140a:	688a      	ldr	r2, [r1, #8]
    140c:	b087      	sub	sp, #28
    140e:	9302      	str	r3, [sp, #8]
    1410:	1e53      	subs	r3, r2, #1
    1412:	f5b3 7fae 	cmp.w	r3, #348	; 0x15c
    1416:	4607      	mov	r7, r0
    1418:	460c      	mov	r4, r1
    141a:	d906      	bls.n	142a <_scanf_float+0x26>
    141c:	f46f 73ae 	mvn.w	r3, #348	; 0x15c
    1420:	441a      	add	r2, r3
    1422:	f240 135d 	movw	r3, #349	; 0x15d
    1426:	608b      	str	r3, [r1, #8]
    1428:	e000      	b.n	142c <_scanf_float+0x28>
    142a:	2200      	movs	r2, #0
    142c:	6823      	ldr	r3, [r4, #0]
    142e:	46a0      	mov	r8, r4
    1430:	f443 63f0 	orr.w	r3, r3, #1920	; 0x780
    1434:	f04f 0b00 	mov.w	fp, #0
    1438:	f848 3b1c 	str.w	r3, [r8], #28
    143c:	4645      	mov	r5, r8
    143e:	46da      	mov	sl, fp
    1440:	f8cd b014 	str.w	fp, [sp, #20]
    1444:	f8cd b010 	str.w	fp, [sp, #16]
    1448:	46d9      	mov	r9, fp
    144a:	f8cd b00c 	str.w	fp, [sp, #12]
    144e:	68a1      	ldr	r1, [r4, #8]
    1450:	2900      	cmp	r1, #0
    1452:	f000 80e9 	beq.w	1628 <_scanf_float+0x224>
    1456:	6833      	ldr	r3, [r6, #0]
    1458:	781b      	ldrb	r3, [r3, #0]
    145a:	2b49      	cmp	r3, #73	; 0x49
    145c:	d075      	beq.n	154a <_scanf_float+0x146>
    145e:	d816      	bhi.n	148e <_scanf_float+0x8a>
    1460:	2b39      	cmp	r3, #57	; 0x39
    1462:	d80d      	bhi.n	1480 <_scanf_float+0x7c>
    1464:	2b31      	cmp	r3, #49	; 0x31
    1466:	d23e      	bcs.n	14e6 <_scanf_float+0xe2>
    1468:	2b2d      	cmp	r3, #45	; 0x2d
    146a:	d045      	beq.n	14f8 <_scanf_float+0xf4>
    146c:	d802      	bhi.n	1474 <_scanf_float+0x70>
    146e:	2b2b      	cmp	r3, #43	; 0x2b
    1470:	d042      	beq.n	14f8 <_scanf_float+0xf4>
    1472:	e0d9      	b.n	1628 <_scanf_float+0x224>
    1474:	2b2e      	cmp	r3, #46	; 0x2e
    1476:	f000 8097 	beq.w	15a8 <_scanf_float+0x1a4>
    147a:	2b30      	cmp	r3, #48	; 0x30
    147c:	d023      	beq.n	14c6 <_scanf_float+0xc2>
    147e:	e0d3      	b.n	1628 <_scanf_float+0x224>
    1480:	2b45      	cmp	r3, #69	; 0x45
    1482:	f000 809a 	beq.w	15ba <_scanf_float+0x1b6>
    1486:	2b46      	cmp	r3, #70	; 0x46
    1488:	d07c      	beq.n	1584 <_scanf_float+0x180>
    148a:	2b41      	cmp	r3, #65	; 0x41
    148c:	e00c      	b.n	14a8 <_scanf_float+0xa4>
    148e:	2b65      	cmp	r3, #101	; 0x65
    1490:	f000 8093 	beq.w	15ba <_scanf_float+0x1b6>
    1494:	d80a      	bhi.n	14ac <_scanf_float+0xa8>
    1496:	2b54      	cmp	r3, #84	; 0x54
    1498:	d07a      	beq.n	1590 <_scanf_float+0x18c>
    149a:	d802      	bhi.n	14a2 <_scanf_float+0x9e>
    149c:	2b4e      	cmp	r3, #78	; 0x4e
    149e:	d033      	beq.n	1508 <_scanf_float+0x104>
    14a0:	e0c2      	b.n	1628 <_scanf_float+0x224>
    14a2:	2b59      	cmp	r3, #89	; 0x59
    14a4:	d07a      	beq.n	159c <_scanf_float+0x198>
    14a6:	2b61      	cmp	r3, #97	; 0x61
    14a8:	d049      	beq.n	153e <_scanf_float+0x13a>
    14aa:	e0bd      	b.n	1628 <_scanf_float+0x224>
    14ac:	2b6e      	cmp	r3, #110	; 0x6e
    14ae:	d02b      	beq.n	1508 <_scanf_float+0x104>
    14b0:	d804      	bhi.n	14bc <_scanf_float+0xb8>
    14b2:	2b66      	cmp	r3, #102	; 0x66
    14b4:	d066      	beq.n	1584 <_scanf_float+0x180>
    14b6:	2b69      	cmp	r3, #105	; 0x69
    14b8:	d047      	beq.n	154a <_scanf_float+0x146>
    14ba:	e0b5      	b.n	1628 <_scanf_float+0x224>
    14bc:	2b74      	cmp	r3, #116	; 0x74
    14be:	d067      	beq.n	1590 <_scanf_float+0x18c>
    14c0:	2b79      	cmp	r3, #121	; 0x79
    14c2:	d06b      	beq.n	159c <_scanf_float+0x198>
    14c4:	e0b0      	b.n	1628 <_scanf_float+0x224>
    14c6:	6820      	ldr	r0, [r4, #0]
    14c8:	f410 7f80 	tst.w	r0, #256	; 0x100
    14cc:	d00b      	beq.n	14e6 <_scanf_float+0xe2>
    14ce:	f020 0080 	bic.w	r0, r0, #128	; 0x80
    14d2:	6020      	str	r0, [r4, #0]
    14d4:	f109 0901 	add.w	r9, r9, #1
    14d8:	2a00      	cmp	r2, #0
    14da:	f000 808c 	beq.w	15f6 <_scanf_float+0x1f2>
    14de:	3101      	adds	r1, #1
    14e0:	3a01      	subs	r2, #1
    14e2:	60a1      	str	r1, [r4, #8]
    14e4:	e087      	b.n	15f6 <_scanf_float+0x1f2>
    14e6:	eb0a 010b 	add.w	r1, sl, fp
    14ea:	2900      	cmp	r1, #0
    14ec:	f040 809c 	bne.w	1628 <_scanf_float+0x224>
    14f0:	6821      	ldr	r1, [r4, #0]
    14f2:	f421 71c0 	bic.w	r1, r1, #384	; 0x180
    14f6:	e005      	b.n	1504 <_scanf_float+0x100>
    14f8:	6821      	ldr	r1, [r4, #0]
    14fa:	0608      	lsls	r0, r1, #24
    14fc:	f140 8094 	bpl.w	1628 <_scanf_float+0x224>
    1500:	f021 0180 	bic.w	r1, r1, #128	; 0x80
    1504:	6021      	str	r1, [r4, #0]
    1506:	e074      	b.n	15f2 <_scanf_float+0x1ee>
    1508:	f1ba 0f00 	cmp.w	sl, #0
    150c:	d10e      	bne.n	152c <_scanf_float+0x128>
    150e:	f1b9 0f00 	cmp.w	r9, #0
    1512:	d10e      	bne.n	1532 <_scanf_float+0x12e>
    1514:	6821      	ldr	r1, [r4, #0]
    1516:	f401 60e0 	and.w	r0, r1, #1792	; 0x700
    151a:	f5b0 6fe0 	cmp.w	r0, #1792	; 0x700
    151e:	d108      	bne.n	1532 <_scanf_float+0x12e>
    1520:	f421 61f0 	bic.w	r1, r1, #1920	; 0x780
    1524:	6021      	str	r1, [r4, #0]
    1526:	f04f 0a01 	mov.w	sl, #1
    152a:	e062      	b.n	15f2 <_scanf_float+0x1ee>
    152c:	f1ba 0f02 	cmp.w	sl, #2
    1530:	d05d      	beq.n	15ee <_scanf_float+0x1ea>
    1532:	f1bb 0f01 	cmp.w	fp, #1
    1536:	d020      	beq.n	157a <_scanf_float+0x176>
    1538:	f1bb 0f04 	cmp.w	fp, #4
    153c:	e01c      	b.n	1578 <_scanf_float+0x174>
    153e:	f1ba 0f01 	cmp.w	sl, #1
    1542:	d171      	bne.n	1628 <_scanf_float+0x224>
    1544:	f04f 0a02 	mov.w	sl, #2
    1548:	e053      	b.n	15f2 <_scanf_float+0x1ee>
    154a:	f1bb 0f00 	cmp.w	fp, #0
    154e:	d10e      	bne.n	156e <_scanf_float+0x16a>
    1550:	f1b9 0f00 	cmp.w	r9, #0
    1554:	d16b      	bne.n	162e <_scanf_float+0x22a>
    1556:	6821      	ldr	r1, [r4, #0]
    1558:	f401 60e0 	and.w	r0, r1, #1792	; 0x700
    155c:	f5b0 6fe0 	cmp.w	r0, #1792	; 0x700
    1560:	d169      	bne.n	1636 <_scanf_float+0x232>
    1562:	f421 61f0 	bic.w	r1, r1, #1920	; 0x780
    1566:	6021      	str	r1, [r4, #0]
    1568:	f04f 0b01 	mov.w	fp, #1
    156c:	e041      	b.n	15f2 <_scanf_float+0x1ee>
    156e:	f1bb 0f03 	cmp.w	fp, #3
    1572:	d002      	beq.n	157a <_scanf_float+0x176>
    1574:	f1bb 0f05 	cmp.w	fp, #5
    1578:	d156      	bne.n	1628 <_scanf_float+0x224>
    157a:	f10b 0b01 	add.w	fp, fp, #1
    157e:	fa5f fb8b 	uxtb.w	fp, fp
    1582:	e036      	b.n	15f2 <_scanf_float+0x1ee>
    1584:	f1bb 0f02 	cmp.w	fp, #2
    1588:	d14e      	bne.n	1628 <_scanf_float+0x224>
    158a:	f04f 0b03 	mov.w	fp, #3
    158e:	e030      	b.n	15f2 <_scanf_float+0x1ee>
    1590:	f1bb 0f06 	cmp.w	fp, #6
    1594:	d148      	bne.n	1628 <_scanf_float+0x224>
    1596:	f04f 0b07 	mov.w	fp, #7
    159a:	e02a      	b.n	15f2 <_scanf_float+0x1ee>
    159c:	f1bb 0f07 	cmp.w	fp, #7
    15a0:	d142      	bne.n	1628 <_scanf_float+0x224>
    15a2:	f04f 0b08 	mov.w	fp, #8
    15a6:	e024      	b.n	15f2 <_scanf_float+0x1ee>
    15a8:	6821      	ldr	r1, [r4, #0]
    15aa:	0588      	lsls	r0, r1, #22
    15ac:	d53c      	bpl.n	1628 <_scanf_float+0x224>
    15ae:	f421 7120 	bic.w	r1, r1, #640	; 0x280
    15b2:	6021      	str	r1, [r4, #0]
    15b4:	f8cd 900c 	str.w	r9, [sp, #12]
    15b8:	e01b      	b.n	15f2 <_scanf_float+0x1ee>
    15ba:	6821      	ldr	r1, [r4, #0]
    15bc:	f401 60a0 	and.w	r0, r1, #1280	; 0x500
    15c0:	f5b0 6f80 	cmp.w	r0, #1024	; 0x400
    15c4:	d004      	beq.n	15d0 <_scanf_float+0x1cc>
    15c6:	0548      	lsls	r0, r1, #21
    15c8:	d52e      	bpl.n	1628 <_scanf_float+0x224>
    15ca:	f1b9 0f00 	cmp.w	r9, #0
    15ce:	d032      	beq.n	1636 <_scanf_float+0x232>
    15d0:	0588      	lsls	r0, r1, #22
    15d2:	d404      	bmi.n	15de <_scanf_float+0x1da>
    15d4:	9803      	ldr	r0, [sp, #12]
    15d6:	9505      	str	r5, [sp, #20]
    15d8:	ebc0 0009 	rsb	r0, r0, r9
    15dc:	9004      	str	r0, [sp, #16]
    15de:	f421 61f0 	bic.w	r1, r1, #1920	; 0x780
    15e2:	f441 71c0 	orr.w	r1, r1, #384	; 0x180
    15e6:	6021      	str	r1, [r4, #0]
    15e8:	f04f 0900 	mov.w	r9, #0
    15ec:	e001      	b.n	15f2 <_scanf_float+0x1ee>
    15ee:	f04f 0a03 	mov.w	sl, #3
    15f2:	702b      	strb	r3, [r5, #0]
    15f4:	3501      	adds	r5, #1
    15f6:	68a3      	ldr	r3, [r4, #8]
    15f8:	3b01      	subs	r3, #1
    15fa:	60a3      	str	r3, [r4, #8]
    15fc:	6923      	ldr	r3, [r4, #16]
    15fe:	3301      	adds	r3, #1
    1600:	6123      	str	r3, [r4, #16]
    1602:	6873      	ldr	r3, [r6, #4]
    1604:	3b01      	subs	r3, #1
    1606:	2b00      	cmp	r3, #0
    1608:	6073      	str	r3, [r6, #4]
    160a:	dd03      	ble.n	1614 <_scanf_float+0x210>
    160c:	6833      	ldr	r3, [r6, #0]
    160e:	3301      	adds	r3, #1
    1610:	6033      	str	r3, [r6, #0]
    1612:	e71c      	b.n	144e <_scanf_float+0x4a>
    1614:	9201      	str	r2, [sp, #4]
    1616:	f8d4 3180 	ldr.w	r3, [r4, #384]	; 0x180
    161a:	4638      	mov	r0, r7
    161c:	4631      	mov	r1, r6
    161e:	4798      	blx	r3
    1620:	9a01      	ldr	r2, [sp, #4]
    1622:	2800      	cmp	r0, #0
    1624:	f43f af13 	beq.w	144e <_scanf_float+0x4a>
    1628:	f1b9 0f00 	cmp.w	r9, #0
    162c:	d003      	beq.n	1636 <_scanf_float+0x232>
    162e:	6823      	ldr	r3, [r4, #0]
    1630:	f423 7380 	bic.w	r3, r3, #256	; 0x100
    1634:	6023      	str	r3, [r4, #0]
    1636:	f10a 3aff 	add.w	sl, sl, #4294967295	; 0xffffffff
    163a:	f1ba 0f01 	cmp.w	sl, #1
    163e:	d810      	bhi.n	1662 <_scanf_float+0x25e>
    1640:	4545      	cmp	r5, r8
    1642:	462a      	mov	r2, r5
    1644:	d90b      	bls.n	165e <_scanf_float+0x25a>
    1646:	f8d4 317c 	ldr.w	r3, [r4, #380]	; 0x17c
    164a:	f812 1c01 	ldrb.w	r1, [r2, #-1]
    164e:	4638      	mov	r0, r7
    1650:	4632      	mov	r2, r6
    1652:	4798      	blx	r3
    1654:	6923      	ldr	r3, [r4, #16]
    1656:	3d01      	subs	r5, #1
    1658:	3b01      	subs	r3, #1
    165a:	6123      	str	r3, [r4, #16]
    165c:	e7f0      	b.n	1640 <_scanf_float+0x23c>
    165e:	2601      	movs	r6, #1
    1660:	e0b5      	b.n	17ce <_scanf_float+0x3ca>
    1662:	f10b 33ff 	add.w	r3, fp, #4294967295	; 0xffffffff
    1666:	2b06      	cmp	r3, #6
    1668:	d82c      	bhi.n	16c4 <_scanf_float+0x2c0>
    166a:	f1bb 0f02 	cmp.w	fp, #2
    166e:	d91a      	bls.n	16a6 <_scanf_float+0x2a2>
    1670:	f1ab 0b03 	sub.w	fp, fp, #3
    1674:	fa5f fb8b 	uxtb.w	fp, fp
    1678:	46aa      	mov	sl, r5
    167a:	ebcb 0c05 	rsb	ip, fp, r5
    167e:	45e2      	cmp	sl, ip
    1680:	d00e      	beq.n	16a0 <_scanf_float+0x29c>
    1682:	f8d4 317c 	ldr.w	r3, [r4, #380]	; 0x17c
    1686:	f81a 1d01 	ldrb.w	r1, [sl, #-1]!
    168a:	4638      	mov	r0, r7
    168c:	f8cd c004 	str.w	ip, [sp, #4]
    1690:	4632      	mov	r2, r6
    1692:	4798      	blx	r3
    1694:	6923      	ldr	r3, [r4, #16]
    1696:	f8dd c004 	ldr.w	ip, [sp, #4]
    169a:	3b01      	subs	r3, #1
    169c:	6123      	str	r3, [r4, #16]
    169e:	e7ee      	b.n	167e <_scanf_float+0x27a>
    16a0:	ebcb 0505 	rsb	r5, fp, r5
    16a4:	e00e      	b.n	16c4 <_scanf_float+0x2c0>
    16a6:	4545      	cmp	r5, r8
    16a8:	462a      	mov	r2, r5
    16aa:	d9d8      	bls.n	165e <_scanf_float+0x25a>
    16ac:	f8d4 317c 	ldr.w	r3, [r4, #380]	; 0x17c
    16b0:	f812 1c01 	ldrb.w	r1, [r2, #-1]
    16b4:	4638      	mov	r0, r7
    16b6:	4632      	mov	r2, r6
    16b8:	4798      	blx	r3
    16ba:	6923      	ldr	r3, [r4, #16]
    16bc:	3d01      	subs	r5, #1
    16be:	3b01      	subs	r3, #1
    16c0:	6123      	str	r3, [r4, #16]
    16c2:	e7f0      	b.n	16a6 <_scanf_float+0x2a2>
    16c4:	6823      	ldr	r3, [r4, #0]
    16c6:	05da      	lsls	r2, r3, #23
    16c8:	d52e      	bpl.n	1728 <_scanf_float+0x324>
    16ca:	055b      	lsls	r3, r3, #21
    16cc:	d50e      	bpl.n	16ec <_scanf_float+0x2e8>
    16ce:	4545      	cmp	r5, r8
    16d0:	462a      	mov	r2, r5
    16d2:	d9c4      	bls.n	165e <_scanf_float+0x25a>
    16d4:	f8d4 317c 	ldr.w	r3, [r4, #380]	; 0x17c
    16d8:	f812 1c01 	ldrb.w	r1, [r2, #-1]
    16dc:	4638      	mov	r0, r7
    16de:	4632      	mov	r2, r6
    16e0:	4798      	blx	r3
    16e2:	6923      	ldr	r3, [r4, #16]
    16e4:	3d01      	subs	r5, #1
    16e6:	3b01      	subs	r3, #1
    16e8:	6123      	str	r3, [r4, #16]
    16ea:	e7f0      	b.n	16ce <_scanf_float+0x2ca>
    16ec:	f815 1c01 	ldrb.w	r1, [r5, #-1]
    16f0:	6923      	ldr	r3, [r4, #16]
    16f2:	2965      	cmp	r1, #101	; 0x65
    16f4:	f103 33ff 	add.w	r3, r3, #4294967295	; 0xffffffff
    16f8:	f105 3aff 	add.w	sl, r5, #4294967295	; 0xffffffff
    16fc:	6123      	str	r3, [r4, #16]
    16fe:	d00d      	beq.n	171c <_scanf_float+0x318>
    1700:	2945      	cmp	r1, #69	; 0x45
    1702:	d00b      	beq.n	171c <_scanf_float+0x318>
    1704:	f8d4 317c 	ldr.w	r3, [r4, #380]	; 0x17c
    1708:	4638      	mov	r0, r7
    170a:	4632      	mov	r2, r6
    170c:	4798      	blx	r3
    170e:	6923      	ldr	r3, [r4, #16]
    1710:	f815 1c02 	ldrb.w	r1, [r5, #-2]
    1714:	3b01      	subs	r3, #1
    1716:	f1a5 0a02 	sub.w	sl, r5, #2
    171a:	6123      	str	r3, [r4, #16]
    171c:	f8d4 317c 	ldr.w	r3, [r4, #380]	; 0x17c
    1720:	4638      	mov	r0, r7
    1722:	4632      	mov	r2, r6
    1724:	4798      	blx	r3
    1726:	4655      	mov	r5, sl
    1728:	6826      	ldr	r6, [r4, #0]
    172a:	f016 0610 	ands.w	r6, r6, #16
    172e:	d14d      	bne.n	17cc <_scanf_float+0x3c8>
    1730:	702e      	strb	r6, [r5, #0]
    1732:	6823      	ldr	r3, [r4, #0]
    1734:	f403 63c0 	and.w	r3, r3, #1536	; 0x600
    1738:	f5b3 6f80 	cmp.w	r3, #1024	; 0x400
    173c:	d105      	bne.n	174a <_scanf_float+0x346>
    173e:	9903      	ldr	r1, [sp, #12]
    1740:	ebc1 0309 	rsb	r3, r1, r9
    1744:	425a      	negs	r2, r3
    1746:	b963      	cbnz	r3, 1762 <_scanf_float+0x35e>
    1748:	e015      	b.n	1776 <_scanf_float+0x372>
    174a:	9d04      	ldr	r5, [sp, #16]
    174c:	b19d      	cbz	r5, 1776 <_scanf_float+0x372>
    174e:	9d05      	ldr	r5, [sp, #20]
    1750:	4632      	mov	r2, r6
    1752:	1c69      	adds	r1, r5, #1
    1754:	4638      	mov	r0, r7
    1756:	230a      	movs	r3, #10
    1758:	f7ff f862 	bl	820 <_strtol_r>
    175c:	9d04      	ldr	r5, [sp, #16]
    175e:	1b42      	subs	r2, r0, r5
    1760:	9d05      	ldr	r5, [sp, #20]
    1762:	f204 136f 	addw	r3, r4, #367	; 0x16f
    1766:	429d      	cmp	r5, r3
    1768:	bf28      	it	cs
    176a:	f504 75b7 	addcs.w	r5, r4, #366	; 0x16e
    176e:	4628      	mov	r0, r5
    1770:	4919      	ldr	r1, [pc, #100]	; (17d8 <_scanf_float+0x3d4>)
    1772:	f7ff f813 	bl	79c <siprintf>
    1776:	4641      	mov	r1, r8
    1778:	2200      	movs	r2, #0
    177a:	4638      	mov	r0, r7
    177c:	f001 fb3c 	bl	2df8 <_strtod_r>
    1780:	6822      	ldr	r2, [r4, #0]
    1782:	9d02      	ldr	r5, [sp, #8]
    1784:	f012 0f02 	tst.w	r2, #2
    1788:	4680      	mov	r8, r0
    178a:	4689      	mov	r9, r1
    178c:	682b      	ldr	r3, [r5, #0]
    178e:	d002      	beq.n	1796 <_scanf_float+0x392>
    1790:	1d1a      	adds	r2, r3, #4
    1792:	602a      	str	r2, [r5, #0]
    1794:	e006      	b.n	17a4 <_scanf_float+0x3a0>
    1796:	9d02      	ldr	r5, [sp, #8]
    1798:	f012 0f04 	tst.w	r2, #4
    179c:	f103 0204 	add.w	r2, r3, #4
    17a0:	602a      	str	r2, [r5, #0]
    17a2:	d003      	beq.n	17ac <_scanf_float+0x3a8>
    17a4:	681b      	ldr	r3, [r3, #0]
    17a6:	e9c3 8900 	strd	r8, r9, [r3]
    17aa:	e00b      	b.n	17c4 <_scanf_float+0x3c0>
    17ac:	681d      	ldr	r5, [r3, #0]
    17ae:	f001 fac7 	bl	2d40 <__fpclassifyd>
    17b2:	b910      	cbnz	r0, 17ba <_scanf_float+0x3b6>
    17b4:	f001 fae6 	bl	2d84 <nanf>
    17b8:	e003      	b.n	17c2 <_scanf_float+0x3be>
    17ba:	4640      	mov	r0, r8
    17bc:	4649      	mov	r1, r9
    17be:	f003 f8f7 	bl	49b0 <__aeabi_d2f>
    17c2:	6028      	str	r0, [r5, #0]
    17c4:	68e3      	ldr	r3, [r4, #12]
    17c6:	3301      	adds	r3, #1
    17c8:	60e3      	str	r3, [r4, #12]
    17ca:	e000      	b.n	17ce <_scanf_float+0x3ca>
    17cc:	2600      	movs	r6, #0
    17ce:	4630      	mov	r0, r6
    17d0:	b007      	add	sp, #28
    17d2:	e8bd 8ff0 	ldmia.w	sp!, {r4, r5, r6, r7, r8, r9, sl, fp, pc}
    17d6:	bf00      	nop
    17d8:	00004ae3 	andeq	r4, r0, r3, ror #21

000017dc <quorem>:
    17dc:	e92d 4ff7 	stmdb	sp!, {r0, r1, r2, r4, r5, r6, r7, r8, r9, sl, fp, lr}
    17e0:	6903      	ldr	r3, [r0, #16]
    17e2:	690c      	ldr	r4, [r1, #16]
    17e4:	4680      	mov	r8, r0
    17e6:	42a3      	cmp	r3, r4
    17e8:	f2c0 8083 	blt.w	18f2 <quorem+0x116>
    17ec:	3c01      	subs	r4, #1
    17ee:	00a2      	lsls	r2, r4, #2
    17f0:	f101 0714 	add.w	r7, r1, #20
    17f4:	f100 0514 	add.w	r5, r0, #20
    17f8:	4691      	mov	r9, r2
    17fa:	9200      	str	r2, [sp, #0]
    17fc:	f857 6024 	ldr.w	r6, [r7, r4, lsl #2]
    1800:	442a      	add	r2, r5
    1802:	9201      	str	r2, [sp, #4]
    1804:	f855 2024 	ldr.w	r2, [r5, r4, lsl #2]
    1808:	3601      	adds	r6, #1
    180a:	fbb2 f6f6 	udiv	r6, r2, r6
    180e:	44b9      	add	r9, r7
    1810:	2e00      	cmp	r6, #0
    1812:	d03b      	beq.n	188c <quorem+0xb0>
    1814:	f04f 0e00 	mov.w	lr, #0
    1818:	463a      	mov	r2, r7
    181a:	4628      	mov	r0, r5
    181c:	46f3      	mov	fp, lr
    181e:	f852 cb04 	ldr.w	ip, [r2], #4
    1822:	6803      	ldr	r3, [r0, #0]
    1824:	fa1f fa8c 	uxth.w	sl, ip
    1828:	ea4f 4c1c 	mov.w	ip, ip, lsr #16
    182c:	fb0a ea06 	mla	sl, sl, r6, lr
    1830:	fb0c fc06 	mul.w	ip, ip, r6
    1834:	eb0c 4c1a 	add.w	ip, ip, sl, lsr #16
    1838:	fa1f fa8a 	uxth.w	sl, sl
    183c:	ebca 0b0b 	rsb	fp, sl, fp
    1840:	ea4f 4e1c 	mov.w	lr, ip, lsr #16
    1844:	fa1f fa83 	uxth.w	sl, r3
    1848:	fa1f fc8c 	uxth.w	ip, ip
    184c:	44da      	add	sl, fp
    184e:	ebcc 4c13 	rsb	ip, ip, r3, lsr #16
    1852:	eb0c 4c2a 	add.w	ip, ip, sl, asr #16
    1856:	fa1f fa8a 	uxth.w	sl, sl
    185a:	ea4a 4a0c 	orr.w	sl, sl, ip, lsl #16
    185e:	454a      	cmp	r2, r9
    1860:	ea4f 4b2c 	mov.w	fp, ip, asr #16
    1864:	f840 ab04 	str.w	sl, [r0], #4
    1868:	d9d9      	bls.n	181e <quorem+0x42>
    186a:	9a00      	ldr	r2, [sp, #0]
    186c:	58ab      	ldr	r3, [r5, r2]
    186e:	b96b      	cbnz	r3, 188c <quorem+0xb0>
    1870:	9a01      	ldr	r2, [sp, #4]
    1872:	1f13      	subs	r3, r2, #4
    1874:	42ab      	cmp	r3, r5
    1876:	461a      	mov	r2, r3
    1878:	d802      	bhi.n	1880 <quorem+0xa4>
    187a:	f8c8 4010 	str.w	r4, [r8, #16]
    187e:	e005      	b.n	188c <quorem+0xb0>
    1880:	6812      	ldr	r2, [r2, #0]
    1882:	3b04      	subs	r3, #4
    1884:	2a00      	cmp	r2, #0
    1886:	d1f8      	bne.n	187a <quorem+0x9e>
    1888:	3c01      	subs	r4, #1
    188a:	e7f3      	b.n	1874 <quorem+0x98>
    188c:	4640      	mov	r0, r8
    188e:	f001 f87c 	bl	298a <__mcmp>
    1892:	2800      	cmp	r0, #0
    1894:	db2b      	blt.n	18ee <quorem+0x112>
    1896:	3601      	adds	r6, #1
    1898:	462b      	mov	r3, r5
    189a:	2000      	movs	r0, #0
    189c:	f857 cb04 	ldr.w	ip, [r7], #4
    18a0:	681a      	ldr	r2, [r3, #0]
    18a2:	fa1f f18c 	uxth.w	r1, ip
    18a6:	1a41      	subs	r1, r0, r1
    18a8:	fa1f fa82 	uxth.w	sl, r2
    18ac:	ea4f 4c1c 	mov.w	ip, ip, lsr #16
    18b0:	4451      	add	r1, sl
    18b2:	ebcc 4212 	rsb	r2, ip, r2, lsr #16
    18b6:	eb02 4221 	add.w	r2, r2, r1, asr #16
    18ba:	b289      	uxth	r1, r1
    18bc:	1410      	asrs	r0, r2, #16
    18be:	454f      	cmp	r7, r9
    18c0:	ea41 4202 	orr.w	r2, r1, r2, lsl #16
    18c4:	f843 2b04 	str.w	r2, [r3], #4
    18c8:	d9e8      	bls.n	189c <quorem+0xc0>
    18ca:	f855 2024 	ldr.w	r2, [r5, r4, lsl #2]
    18ce:	eb05 0384 	add.w	r3, r5, r4, lsl #2
    18d2:	b962      	cbnz	r2, 18ee <quorem+0x112>
    18d4:	3b04      	subs	r3, #4
    18d6:	42ab      	cmp	r3, r5
    18d8:	461a      	mov	r2, r3
    18da:	d802      	bhi.n	18e2 <quorem+0x106>
    18dc:	f8c8 4010 	str.w	r4, [r8, #16]
    18e0:	e005      	b.n	18ee <quorem+0x112>
    18e2:	6812      	ldr	r2, [r2, #0]
    18e4:	3b04      	subs	r3, #4
    18e6:	2a00      	cmp	r2, #0
    18e8:	d1f8      	bne.n	18dc <quorem+0x100>
    18ea:	3c01      	subs	r4, #1
    18ec:	e7f3      	b.n	18d6 <quorem+0xfa>
    18ee:	4630      	mov	r0, r6
    18f0:	e000      	b.n	18f4 <quorem+0x118>
    18f2:	2000      	movs	r0, #0
    18f4:	b003      	add	sp, #12
    18f6:	e8bd 8ff0 	ldmia.w	sp!, {r4, r5, r6, r7, r8, r9, sl, fp, pc}
    18fa:	0000      	movs	r0, r0
    18fc:	0000      	movs	r0, r0
	...

00001900 <_dtoa_r>:
    1900:	e92d 4ff0 	stmdb	sp!, {r4, r5, r6, r7, r8, r9, sl, fp, lr}
    1904:	6a45      	ldr	r5, [r0, #36]	; 0x24
    1906:	b09b      	sub	sp, #108	; 0x6c
    1908:	4682      	mov	sl, r0
    190a:	9c27      	ldr	r4, [sp, #156]	; 0x9c
    190c:	e9cd 2304 	strd	r2, r3, [sp, #16]
    1910:	b945      	cbnz	r5, 1924 <_dtoa_r+0x24>
    1912:	2010      	movs	r0, #16
    1914:	f7fe fe80 	bl	618 <malloc>
    1918:	f8ca 0024 	str.w	r0, [sl, #36]	; 0x24
    191c:	6045      	str	r5, [r0, #4]
    191e:	6085      	str	r5, [r0, #8]
    1920:	6005      	str	r5, [r0, #0]
    1922:	60c5      	str	r5, [r0, #12]
    1924:	f8da 3024 	ldr.w	r3, [sl, #36]	; 0x24
    1928:	6819      	ldr	r1, [r3, #0]
    192a:	b161      	cbz	r1, 1946 <_dtoa_r+0x46>
    192c:	685b      	ldr	r3, [r3, #4]
    192e:	2201      	movs	r2, #1
    1930:	604b      	str	r3, [r1, #4]
    1932:	fa02 f303 	lsl.w	r3, r2, r3
    1936:	4650      	mov	r0, sl
    1938:	608b      	str	r3, [r1, #8]
    193a:	f000 fe03 	bl	2544 <_Bfree>
    193e:	f8da 3024 	ldr.w	r3, [sl, #36]	; 0x24
    1942:	2200      	movs	r2, #0
    1944:	601a      	str	r2, [r3, #0]
    1946:	9805      	ldr	r0, [sp, #20]
    1948:	2800      	cmp	r0, #0
    194a:	da05      	bge.n	1958 <_dtoa_r+0x58>
    194c:	2301      	movs	r3, #1
    194e:	f020 4100 	bic.w	r1, r0, #2147483648	; 0x80000000
    1952:	6023      	str	r3, [r4, #0]
    1954:	9105      	str	r1, [sp, #20]
    1956:	e001      	b.n	195c <_dtoa_r+0x5c>
    1958:	2300      	movs	r3, #0
    195a:	6023      	str	r3, [r4, #0]
    195c:	9f05      	ldr	r7, [sp, #20]
    195e:	4a9c      	ldr	r2, [pc, #624]	; (1bd0 <_dtoa_r+0x2d0>)
    1960:	f027 4300 	bic.w	r3, r7, #2147483648	; 0x80000000
    1964:	0d1b      	lsrs	r3, r3, #20
    1966:	051b      	lsls	r3, r3, #20
    1968:	4293      	cmp	r3, r2
    196a:	d11d      	bne.n	19a8 <_dtoa_r+0xa8>
    196c:	9a26      	ldr	r2, [sp, #152]	; 0x98
    196e:	f242 730f 	movw	r3, #9999	; 0x270f
    1972:	6013      	str	r3, [r2, #0]
    1974:	9b04      	ldr	r3, [sp, #16]
    1976:	b943      	cbnz	r3, 198a <_dtoa_r+0x8a>
    1978:	4b96      	ldr	r3, [pc, #600]	; (1bd4 <_dtoa_r+0x2d4>)
    197a:	4a97      	ldr	r2, [pc, #604]	; (1bd8 <_dtoa_r+0x2d8>)
    197c:	f3c7 0013 	ubfx	r0, r7, #0, #20
    1980:	2800      	cmp	r0, #0
    1982:	bf0c      	ite	eq
    1984:	4610      	moveq	r0, r2
    1986:	4618      	movne	r0, r3
    1988:	e000      	b.n	198c <_dtoa_r+0x8c>
    198a:	4892      	ldr	r0, [pc, #584]	; (1bd4 <_dtoa_r+0x2d4>)
    198c:	9f28      	ldr	r7, [sp, #160]	; 0xa0
    198e:	2f00      	cmp	r7, #0
    1990:	f000 8571 	beq.w	2476 <_dtoa_r+0xb76>
    1994:	78c3      	ldrb	r3, [r0, #3]
    1996:	b113      	cbz	r3, 199e <_dtoa_r+0x9e>
    1998:	f100 0308 	add.w	r3, r0, #8
    199c:	e000      	b.n	19a0 <_dtoa_r+0xa0>
    199e:	1cc3      	adds	r3, r0, #3
    19a0:	9f28      	ldr	r7, [sp, #160]	; 0xa0
    19a2:	603b      	str	r3, [r7, #0]
    19a4:	f000 bd67 	b.w	2476 <_dtoa_r+0xb76>
    19a8:	e9dd 4504 	ldrd	r4, r5, [sp, #16]
    19ac:	2200      	movs	r2, #0
    19ae:	4620      	mov	r0, r4
    19b0:	4629      	mov	r1, r5
    19b2:	2300      	movs	r3, #0
    19b4:	f002 ff82 	bl	48bc <__aeabi_dcmpeq>
    19b8:	4680      	mov	r8, r0
    19ba:	b158      	cbz	r0, 19d4 <_dtoa_r+0xd4>
    19bc:	9f26      	ldr	r7, [sp, #152]	; 0x98
    19be:	2301      	movs	r3, #1
    19c0:	603b      	str	r3, [r7, #0]
    19c2:	9f28      	ldr	r7, [sp, #160]	; 0xa0
    19c4:	2f00      	cmp	r7, #0
    19c6:	f000 8553 	beq.w	2470 <_dtoa_r+0xb70>
    19ca:	4884      	ldr	r0, [pc, #528]	; (1bdc <_dtoa_r+0x2dc>)
    19cc:	6038      	str	r0, [r7, #0]
    19ce:	3801      	subs	r0, #1
    19d0:	f000 bd51 	b.w	2476 <_dtoa_r+0xb76>
    19d4:	ab19      	add	r3, sp, #100	; 0x64
    19d6:	9300      	str	r3, [sp, #0]
    19d8:	ab18      	add	r3, sp, #96	; 0x60
    19da:	9301      	str	r3, [sp, #4]
    19dc:	4650      	mov	r0, sl
    19de:	4622      	mov	r2, r4
    19e0:	462b      	mov	r3, r5
    19e2:	f001 f8c4 	bl	2b6e <__d2b>
    19e6:	f3c7 560a 	ubfx	r6, r7, #20, #11
    19ea:	4683      	mov	fp, r0
    19ec:	b15e      	cbz	r6, 1a06 <_dtoa_r+0x106>
    19ee:	f3c5 0313 	ubfx	r3, r5, #0, #20
    19f2:	f043 517f 	orr.w	r1, r3, #1069547520	; 0x3fc00000
    19f6:	4620      	mov	r0, r4
    19f8:	f441 1140 	orr.w	r1, r1, #3145728	; 0x300000
    19fc:	f2a6 36ff 	subw	r6, r6, #1023	; 0x3ff
    1a00:	f8cd 8054 	str.w	r8, [sp, #84]	; 0x54
    1a04:	e01c      	b.n	1a40 <_dtoa_r+0x140>
    1a06:	9b19      	ldr	r3, [sp, #100]	; 0x64
    1a08:	9e18      	ldr	r6, [sp, #96]	; 0x60
    1a0a:	441e      	add	r6, r3
    1a0c:	f46f 6382 	mvn.w	r3, #1040	; 0x410
    1a10:	429e      	cmp	r6, r3
    1a12:	db09      	blt.n	1a28 <_dtoa_r+0x128>
    1a14:	9904      	ldr	r1, [sp, #16]
    1a16:	331f      	adds	r3, #31
    1a18:	f206 4012 	addw	r0, r6, #1042	; 0x412
    1a1c:	1b9b      	subs	r3, r3, r6
    1a1e:	fa21 f000 	lsr.w	r0, r1, r0
    1a22:	409f      	lsls	r7, r3
    1a24:	4338      	orrs	r0, r7
    1a26:	e004      	b.n	1a32 <_dtoa_r+0x132>
    1a28:	486d      	ldr	r0, [pc, #436]	; (1be0 <_dtoa_r+0x2e0>)
    1a2a:	9a04      	ldr	r2, [sp, #16]
    1a2c:	1b80      	subs	r0, r0, r6
    1a2e:	fa02 f000 	lsl.w	r0, r2, r0
    1a32:	f002 fc65 	bl	4300 <__aeabi_ui2d>
    1a36:	2701      	movs	r7, #1
    1a38:	f1a1 71f8 	sub.w	r1, r1, #32505856	; 0x1f00000
    1a3c:	3e01      	subs	r6, #1
    1a3e:	9715      	str	r7, [sp, #84]	; 0x54
    1a40:	2200      	movs	r2, #0
    1a42:	4b68      	ldr	r3, [pc, #416]	; (1be4 <_dtoa_r+0x2e4>)
    1a44:	f002 fb1e 	bl	4084 <__aeabi_dsub>
    1a48:	a35b      	add	r3, pc, #364	; (adr r3, 1bb8 <_dtoa_r+0x2b8>)
    1a4a:	e9d3 2300 	ldrd	r2, r3, [r3]
    1a4e:	f002 fccd 	bl	43ec <__aeabi_dmul>
    1a52:	a35b      	add	r3, pc, #364	; (adr r3, 1bc0 <_dtoa_r+0x2c0>)
    1a54:	e9d3 2300 	ldrd	r2, r3, [r3]
    1a58:	f002 fb16 	bl	4088 <__adddf3>
    1a5c:	4604      	mov	r4, r0
    1a5e:	4630      	mov	r0, r6
    1a60:	460d      	mov	r5, r1
    1a62:	f002 fc5d 	bl	4320 <__aeabi_i2d>
    1a66:	a358      	add	r3, pc, #352	; (adr r3, 1bc8 <_dtoa_r+0x2c8>)
    1a68:	e9d3 2300 	ldrd	r2, r3, [r3]
    1a6c:	f002 fcbe 	bl	43ec <__aeabi_dmul>
    1a70:	4602      	mov	r2, r0
    1a72:	460b      	mov	r3, r1
    1a74:	4620      	mov	r0, r4
    1a76:	4629      	mov	r1, r5
    1a78:	f002 fb06 	bl	4088 <__adddf3>
    1a7c:	4604      	mov	r4, r0
    1a7e:	460d      	mov	r5, r1
    1a80:	f002 ff4e 	bl	4920 <__aeabi_d2iz>
    1a84:	4629      	mov	r1, r5
    1a86:	4681      	mov	r9, r0
    1a88:	2200      	movs	r2, #0
    1a8a:	4620      	mov	r0, r4
    1a8c:	2300      	movs	r3, #0
    1a8e:	f002 ff1f 	bl	48d0 <__aeabi_dcmplt>
    1a92:	b158      	cbz	r0, 1aac <_dtoa_r+0x1ac>
    1a94:	4648      	mov	r0, r9
    1a96:	f002 fc43 	bl	4320 <__aeabi_i2d>
    1a9a:	4602      	mov	r2, r0
    1a9c:	460b      	mov	r3, r1
    1a9e:	4620      	mov	r0, r4
    1aa0:	4629      	mov	r1, r5
    1aa2:	f002 ff0b 	bl	48bc <__aeabi_dcmpeq>
    1aa6:	b908      	cbnz	r0, 1aac <_dtoa_r+0x1ac>
    1aa8:	f109 39ff 	add.w	r9, r9, #4294967295	; 0xffffffff
    1aac:	f1b9 0f16 	cmp.w	r9, #22
    1ab0:	d80d      	bhi.n	1ace <_dtoa_r+0x1ce>
    1ab2:	4b4d      	ldr	r3, [pc, #308]	; (1be8 <_dtoa_r+0x2e8>)
    1ab4:	eb03 03c9 	add.w	r3, r3, r9, lsl #3
    1ab8:	e9d3 0100 	ldrd	r0, r1, [r3]
    1abc:	e9dd 2304 	ldrd	r2, r3, [sp, #16]
    1ac0:	f002 ff24 	bl	490c <__aeabi_dcmpgt>
    1ac4:	b130      	cbz	r0, 1ad4 <_dtoa_r+0x1d4>
    1ac6:	f109 39ff 	add.w	r9, r9, #4294967295	; 0xffffffff
    1aca:	2700      	movs	r7, #0
    1acc:	e000      	b.n	1ad0 <_dtoa_r+0x1d0>
    1ace:	2701      	movs	r7, #1
    1ad0:	9714      	str	r7, [sp, #80]	; 0x50
    1ad2:	e000      	b.n	1ad6 <_dtoa_r+0x1d6>
    1ad4:	9014      	str	r0, [sp, #80]	; 0x50
    1ad6:	9b18      	ldr	r3, [sp, #96]	; 0x60
    1ad8:	1b9e      	subs	r6, r3, r6
    1ada:	3e01      	subs	r6, #1
    1adc:	9609      	str	r6, [sp, #36]	; 0x24
    1ade:	d504      	bpl.n	1aea <_dtoa_r+0x1ea>
    1ae0:	4277      	negs	r7, r6
    1ae2:	9708      	str	r7, [sp, #32]
    1ae4:	2700      	movs	r7, #0
    1ae6:	9709      	str	r7, [sp, #36]	; 0x24
    1ae8:	e001      	b.n	1aee <_dtoa_r+0x1ee>
    1aea:	2700      	movs	r7, #0
    1aec:	9708      	str	r7, [sp, #32]
    1aee:	f1b9 0f00 	cmp.w	r9, #0
    1af2:	db07      	blt.n	1b04 <_dtoa_r+0x204>
    1af4:	9f09      	ldr	r7, [sp, #36]	; 0x24
    1af6:	f8cd 9044 	str.w	r9, [sp, #68]	; 0x44
    1afa:	444f      	add	r7, r9
    1afc:	9709      	str	r7, [sp, #36]	; 0x24
    1afe:	2700      	movs	r7, #0
    1b00:	970e      	str	r7, [sp, #56]	; 0x38
    1b02:	e008      	b.n	1b16 <_dtoa_r+0x216>
    1b04:	9f08      	ldr	r7, [sp, #32]
    1b06:	ebc9 0707 	rsb	r7, r9, r7
    1b0a:	9708      	str	r7, [sp, #32]
    1b0c:	f1c9 0700 	rsb	r7, r9, #0
    1b10:	970e      	str	r7, [sp, #56]	; 0x38
    1b12:	2700      	movs	r7, #0
    1b14:	9711      	str	r7, [sp, #68]	; 0x44
    1b16:	9f24      	ldr	r7, [sp, #144]	; 0x90
    1b18:	2f09      	cmp	r7, #9
    1b1a:	d829      	bhi.n	1b70 <_dtoa_r+0x270>
    1b1c:	2f05      	cmp	r7, #5
    1b1e:	bfc4      	itt	gt
    1b20:	3f04      	subgt	r7, #4
    1b22:	9724      	strgt	r7, [sp, #144]	; 0x90
    1b24:	9f24      	ldr	r7, [sp, #144]	; 0x90
    1b26:	bfc8      	it	gt
    1b28:	2500      	movgt	r5, #0
    1b2a:	f1a7 0302 	sub.w	r3, r7, #2
    1b2e:	bfd8      	it	le
    1b30:	2501      	movle	r5, #1
    1b32:	2b03      	cmp	r3, #3
    1b34:	d821      	bhi.n	1b7a <_dtoa_r+0x27a>
    1b36:	e8df f003 	tbb	[pc, r3]
    1b3a:	04020f06 	streq	r0, [r2], #-3846	; 0xf06
    1b3e:	2701      	movs	r7, #1
    1b40:	e002      	b.n	1b48 <_dtoa_r+0x248>
    1b42:	2701      	movs	r7, #1
    1b44:	e009      	b.n	1b5a <_dtoa_r+0x25a>
    1b46:	2700      	movs	r7, #0
    1b48:	970f      	str	r7, [sp, #60]	; 0x3c
    1b4a:	9f25      	ldr	r7, [sp, #148]	; 0x94
    1b4c:	2f00      	cmp	r7, #0
    1b4e:	dd1e      	ble.n	1b8e <_dtoa_r+0x28e>
    1b50:	970b      	str	r7, [sp, #44]	; 0x2c
    1b52:	9707      	str	r7, [sp, #28]
    1b54:	463b      	mov	r3, r7
    1b56:	e01f      	b.n	1b98 <_dtoa_r+0x298>
    1b58:	2700      	movs	r7, #0
    1b5a:	970f      	str	r7, [sp, #60]	; 0x3c
    1b5c:	9f25      	ldr	r7, [sp, #148]	; 0x94
    1b5e:	444f      	add	r7, r9
    1b60:	970b      	str	r7, [sp, #44]	; 0x2c
    1b62:	3701      	adds	r7, #1
    1b64:	463b      	mov	r3, r7
    1b66:	9707      	str	r7, [sp, #28]
    1b68:	2b01      	cmp	r3, #1
    1b6a:	bfb8      	it	lt
    1b6c:	2301      	movlt	r3, #1
    1b6e:	e013      	b.n	1b98 <_dtoa_r+0x298>
    1b70:	2501      	movs	r5, #1
    1b72:	2700      	movs	r7, #0
    1b74:	9724      	str	r7, [sp, #144]	; 0x90
    1b76:	950f      	str	r5, [sp, #60]	; 0x3c
    1b78:	e001      	b.n	1b7e <_dtoa_r+0x27e>
    1b7a:	2701      	movs	r7, #1
    1b7c:	970f      	str	r7, [sp, #60]	; 0x3c
    1b7e:	f04f 37ff 	mov.w	r7, #4294967295	; 0xffffffff
    1b82:	970b      	str	r7, [sp, #44]	; 0x2c
    1b84:	9707      	str	r7, [sp, #28]
    1b86:	2700      	movs	r7, #0
    1b88:	2312      	movs	r3, #18
    1b8a:	9725      	str	r7, [sp, #148]	; 0x94
    1b8c:	e004      	b.n	1b98 <_dtoa_r+0x298>
    1b8e:	2701      	movs	r7, #1
    1b90:	970b      	str	r7, [sp, #44]	; 0x2c
    1b92:	9707      	str	r7, [sp, #28]
    1b94:	463b      	mov	r3, r7
    1b96:	9725      	str	r7, [sp, #148]	; 0x94
    1b98:	f8da 4024 	ldr.w	r4, [sl, #36]	; 0x24
    1b9c:	2200      	movs	r2, #0
    1b9e:	6062      	str	r2, [r4, #4]
    1ba0:	2104      	movs	r1, #4
    1ba2:	f101 0214 	add.w	r2, r1, #20
    1ba6:	429a      	cmp	r2, r3
    1ba8:	d820      	bhi.n	1bec <_dtoa_r+0x2ec>
    1baa:	6862      	ldr	r2, [r4, #4]
    1bac:	0049      	lsls	r1, r1, #1
    1bae:	3201      	adds	r2, #1
    1bb0:	6062      	str	r2, [r4, #4]
    1bb2:	e7f6      	b.n	1ba2 <_dtoa_r+0x2a2>
    1bb4:	f3af 8000 	nop.w
    1bb8:	636f4361 	cmnvs	pc, #-2080374783	; 0x84000001
    1bbc:	3fd287a7 	svccc	0x00d287a7
    1bc0:	8b60c8b3 	blhi	1833e94 <_etext+0x182f0d8>
    1bc4:	3fc68a28 	svccc	0x00c68a28
    1bc8:	509f79fb 			; <UNDEFINED> instruction: 0x509f79fb
    1bcc:	3fd34413 	svccc	0x00d34413
    1bd0:	7ff00000 	svcvc	0x00f00000	; IMB
    1bd4:	00004bf2 	strdeq	r4, [r0], -r2
    1bd8:	00004be9 	andeq	r4, r0, r9, ror #23
    1bdc:	00004ac0 	andeq	r4, r0, r0, asr #21
    1be0:	fffffbee 			; <UNDEFINED> instruction: 0xfffffbee
    1be4:	3ff80000 	svccc	0x00f80000
    1be8:	00004c60 	andeq	r4, r0, r0, ror #24
    1bec:	4650      	mov	r0, sl
    1bee:	6861      	ldr	r1, [r4, #4]
    1bf0:	f000 fc73 	bl	24da <_Balloc>
    1bf4:	f8da 3024 	ldr.w	r3, [sl, #36]	; 0x24
    1bf8:	6020      	str	r0, [r4, #0]
    1bfa:	9f07      	ldr	r7, [sp, #28]
    1bfc:	681b      	ldr	r3, [r3, #0]
    1bfe:	2f0e      	cmp	r7, #14
    1c00:	930a      	str	r3, [sp, #40]	; 0x28
    1c02:	f200 816b 	bhi.w	1edc <_dtoa_r+0x5dc>
    1c06:	2d00      	cmp	r5, #0
    1c08:	f000 8168 	beq.w	1edc <_dtoa_r+0x5dc>
    1c0c:	f1b9 0f00 	cmp.w	r9, #0
    1c10:	e9dd 0104 	ldrd	r0, r1, [sp, #16]
    1c14:	e9cd 0112 	strd	r0, r1, [sp, #72]	; 0x48
    1c18:	dd31      	ble.n	1c7e <_dtoa_r+0x37e>
    1c1a:	4a81      	ldr	r2, [pc, #516]	; (1e20 <_dtoa_r+0x520>)
    1c1c:	f009 030f 	and.w	r3, r9, #15
    1c20:	eb02 03c3 	add.w	r3, r2, r3, lsl #3
    1c24:	ea4f 1429 	mov.w	r4, r9, asr #4
    1c28:	e9d3 0100 	ldrd	r0, r1, [r3]
    1c2c:	e9cd 010c 	strd	r0, r1, [sp, #48]	; 0x30
    1c30:	06e0      	lsls	r0, r4, #27
    1c32:	d50c      	bpl.n	1c4e <_dtoa_r+0x34e>
    1c34:	e9dd 0112 	ldrd	r0, r1, [sp, #72]	; 0x48
    1c38:	4b7a      	ldr	r3, [pc, #488]	; (1e24 <_dtoa_r+0x524>)
    1c3a:	f004 040f 	and.w	r4, r4, #15
    1c3e:	e9d3 2308 	ldrd	r2, r3, [r3, #32]
    1c42:	f002 fcfd 	bl	4640 <__aeabi_ddiv>
    1c46:	2703      	movs	r7, #3
    1c48:	e9cd 0104 	strd	r0, r1, [sp, #16]
    1c4c:	e000      	b.n	1c50 <_dtoa_r+0x350>
    1c4e:	2702      	movs	r7, #2
    1c50:	4d74      	ldr	r5, [pc, #464]	; (1e24 <_dtoa_r+0x524>)
    1c52:	b16c      	cbz	r4, 1c70 <_dtoa_r+0x370>
    1c54:	07e1      	lsls	r1, r4, #31
    1c56:	d508      	bpl.n	1c6a <_dtoa_r+0x36a>
    1c58:	e9dd 010c 	ldrd	r0, r1, [sp, #48]	; 0x30
    1c5c:	e9d5 2300 	ldrd	r2, r3, [r5]
    1c60:	f002 fbc4 	bl	43ec <__aeabi_dmul>
    1c64:	e9cd 010c 	strd	r0, r1, [sp, #48]	; 0x30
    1c68:	3701      	adds	r7, #1
    1c6a:	1064      	asrs	r4, r4, #1
    1c6c:	3508      	adds	r5, #8
    1c6e:	e7f0      	b.n	1c52 <_dtoa_r+0x352>
    1c70:	e9dd 0104 	ldrd	r0, r1, [sp, #16]
    1c74:	e9dd 230c 	ldrd	r2, r3, [sp, #48]	; 0x30
    1c78:	f002 fce2 	bl	4640 <__aeabi_ddiv>
    1c7c:	e01b      	b.n	1cb6 <_dtoa_r+0x3b6>
    1c7e:	f1c9 0400 	rsb	r4, r9, #0
    1c82:	b1dc      	cbz	r4, 1cbc <_dtoa_r+0x3bc>
    1c84:	4b66      	ldr	r3, [pc, #408]	; (1e20 <_dtoa_r+0x520>)
    1c86:	f004 020f 	and.w	r2, r4, #15
    1c8a:	eb03 03c2 	add.w	r3, r3, r2, lsl #3
    1c8e:	e9dd 0112 	ldrd	r0, r1, [sp, #72]	; 0x48
    1c92:	e9d3 2300 	ldrd	r2, r3, [r3]
    1c96:	f002 fba9 	bl	43ec <__aeabi_dmul>
    1c9a:	4d62      	ldr	r5, [pc, #392]	; (1e24 <_dtoa_r+0x524>)
    1c9c:	1124      	asrs	r4, r4, #4
    1c9e:	2702      	movs	r7, #2
    1ca0:	b14c      	cbz	r4, 1cb6 <_dtoa_r+0x3b6>
    1ca2:	07e2      	lsls	r2, r4, #31
    1ca4:	d504      	bpl.n	1cb0 <_dtoa_r+0x3b0>
    1ca6:	e9d5 2300 	ldrd	r2, r3, [r5]
    1caa:	3701      	adds	r7, #1
    1cac:	f002 fb9e 	bl	43ec <__aeabi_dmul>
    1cb0:	1064      	asrs	r4, r4, #1
    1cb2:	3508      	adds	r5, #8
    1cb4:	e7f4      	b.n	1ca0 <_dtoa_r+0x3a0>
    1cb6:	e9cd 0104 	strd	r0, r1, [sp, #16]
    1cba:	e000      	b.n	1cbe <_dtoa_r+0x3be>
    1cbc:	2702      	movs	r7, #2
    1cbe:	9914      	ldr	r1, [sp, #80]	; 0x50
    1cc0:	b1e9      	cbz	r1, 1cfe <_dtoa_r+0x3fe>
    1cc2:	e9dd 4504 	ldrd	r4, r5, [sp, #16]
    1cc6:	2200      	movs	r2, #0
    1cc8:	4620      	mov	r0, r4
    1cca:	4629      	mov	r1, r5
    1ccc:	4b56      	ldr	r3, [pc, #344]	; (1e28 <_dtoa_r+0x528>)
    1cce:	f002 fdff 	bl	48d0 <__aeabi_dcmplt>
    1cd2:	b1c8      	cbz	r0, 1d08 <_dtoa_r+0x408>
    1cd4:	9a07      	ldr	r2, [sp, #28]
    1cd6:	b1e2      	cbz	r2, 1d12 <_dtoa_r+0x412>
    1cd8:	9b0b      	ldr	r3, [sp, #44]	; 0x2c
    1cda:	2b00      	cmp	r3, #0
    1cdc:	f340 80fa 	ble.w	1ed4 <_dtoa_r+0x5d4>
    1ce0:	f109 30ff 	add.w	r0, r9, #4294967295	; 0xffffffff
    1ce4:	9010      	str	r0, [sp, #64]	; 0x40
    1ce6:	4629      	mov	r1, r5
    1ce8:	4620      	mov	r0, r4
    1cea:	2200      	movs	r2, #0
    1cec:	4b4f      	ldr	r3, [pc, #316]	; (1e2c <_dtoa_r+0x52c>)
    1cee:	f002 fb7d 	bl	43ec <__aeabi_dmul>
    1cf2:	e9cd 0104 	strd	r0, r1, [sp, #16]
    1cf6:	990b      	ldr	r1, [sp, #44]	; 0x2c
    1cf8:	3701      	adds	r7, #1
    1cfa:	910c      	str	r1, [sp, #48]	; 0x30
    1cfc:	e00d      	b.n	1d1a <_dtoa_r+0x41a>
    1cfe:	9a07      	ldr	r2, [sp, #28]
    1d00:	f8cd 9040 	str.w	r9, [sp, #64]	; 0x40
    1d04:	920c      	str	r2, [sp, #48]	; 0x30
    1d06:	e008      	b.n	1d1a <_dtoa_r+0x41a>
    1d08:	9b07      	ldr	r3, [sp, #28]
    1d0a:	f8cd 9040 	str.w	r9, [sp, #64]	; 0x40
    1d0e:	930c      	str	r3, [sp, #48]	; 0x30
    1d10:	e003      	b.n	1d1a <_dtoa_r+0x41a>
    1d12:	9807      	ldr	r0, [sp, #28]
    1d14:	f8cd 9040 	str.w	r9, [sp, #64]	; 0x40
    1d18:	900c      	str	r0, [sp, #48]	; 0x30
    1d1a:	4638      	mov	r0, r7
    1d1c:	f002 fb00 	bl	4320 <__aeabi_i2d>
    1d20:	e9dd 2304 	ldrd	r2, r3, [sp, #16]
    1d24:	f002 fb62 	bl	43ec <__aeabi_dmul>
    1d28:	2200      	movs	r2, #0
    1d2a:	4b41      	ldr	r3, [pc, #260]	; (1e30 <_dtoa_r+0x530>)
    1d2c:	f002 f9ac 	bl	4088 <__adddf3>
    1d30:	9f0c      	ldr	r7, [sp, #48]	; 0x30
    1d32:	4604      	mov	r4, r0
    1d34:	f1a1 7550 	sub.w	r5, r1, #54525952	; 0x3400000
    1d38:	b9cf      	cbnz	r7, 1d6e <_dtoa_r+0x46e>
    1d3a:	2200      	movs	r2, #0
    1d3c:	4b3d      	ldr	r3, [pc, #244]	; (1e34 <_dtoa_r+0x534>)
    1d3e:	e9dd 0104 	ldrd	r0, r1, [sp, #16]
    1d42:	f002 f99f 	bl	4084 <__aeabi_dsub>
    1d46:	4622      	mov	r2, r4
    1d48:	462b      	mov	r3, r5
    1d4a:	4606      	mov	r6, r0
    1d4c:	460f      	mov	r7, r1
    1d4e:	f002 fddd 	bl	490c <__aeabi_dcmpgt>
    1d52:	2800      	cmp	r0, #0
    1d54:	f040 8253 	bne.w	21fe <_dtoa_r+0x8fe>
    1d58:	4622      	mov	r2, r4
    1d5a:	f105 4300 	add.w	r3, r5, #2147483648	; 0x80000000
    1d5e:	4630      	mov	r0, r6
    1d60:	4639      	mov	r1, r7
    1d62:	f002 fdb5 	bl	48d0 <__aeabi_dcmplt>
    1d66:	2800      	cmp	r0, #0
    1d68:	f040 823f 	bne.w	21ea <_dtoa_r+0x8ea>
    1d6c:	e0b2      	b.n	1ed4 <_dtoa_r+0x5d4>
    1d6e:	9f0c      	ldr	r7, [sp, #48]	; 0x30
    1d70:	4b2b      	ldr	r3, [pc, #172]	; (1e20 <_dtoa_r+0x520>)
    1d72:	1e7a      	subs	r2, r7, #1
    1d74:	9f0f      	ldr	r7, [sp, #60]	; 0x3c
    1d76:	eb03 03c2 	add.w	r3, r3, r2, lsl #3
    1d7a:	2f00      	cmp	r7, #0
    1d7c:	d05e      	beq.n	1e3c <_dtoa_r+0x53c>
    1d7e:	e9d3 2300 	ldrd	r2, r3, [r3]
    1d82:	2000      	movs	r0, #0
    1d84:	492c      	ldr	r1, [pc, #176]	; (1e38 <_dtoa_r+0x538>)
    1d86:	f002 fc5b 	bl	4640 <__aeabi_ddiv>
    1d8a:	4622      	mov	r2, r4
    1d8c:	462b      	mov	r3, r5
    1d8e:	f002 f979 	bl	4084 <__aeabi_dsub>
    1d92:	e9dd 6704 	ldrd	r6, r7, [sp, #16]
    1d96:	f8dd 8028 	ldr.w	r8, [sp, #40]	; 0x28
    1d9a:	4604      	mov	r4, r0
    1d9c:	460d      	mov	r5, r1
    1d9e:	4639      	mov	r1, r7
    1da0:	4630      	mov	r0, r6
    1da2:	f002 fdbd 	bl	4920 <__aeabi_d2iz>
    1da6:	9002      	str	r0, [sp, #8]
    1da8:	f002 faba 	bl	4320 <__aeabi_i2d>
    1dac:	4602      	mov	r2, r0
    1dae:	460b      	mov	r3, r1
    1db0:	4630      	mov	r0, r6
    1db2:	4639      	mov	r1, r7
    1db4:	f002 f966 	bl	4084 <__aeabi_dsub>
    1db8:	f8dd c008 	ldr.w	ip, [sp, #8]
    1dbc:	4622      	mov	r2, r4
    1dbe:	f10c 0330 	add.w	r3, ip, #48	; 0x30
    1dc2:	f808 3b01 	strb.w	r3, [r8], #1
    1dc6:	462b      	mov	r3, r5
    1dc8:	4606      	mov	r6, r0
    1dca:	460f      	mov	r7, r1
    1dcc:	f002 fd80 	bl	48d0 <__aeabi_dcmplt>
    1dd0:	2800      	cmp	r0, #0
    1dd2:	f040 833b 	bne.w	244c <_dtoa_r+0xb4c>
    1dd6:	4632      	mov	r2, r6
    1dd8:	463b      	mov	r3, r7
    1dda:	2000      	movs	r0, #0
    1ddc:	4912      	ldr	r1, [pc, #72]	; (1e28 <_dtoa_r+0x528>)
    1dde:	f002 f951 	bl	4084 <__aeabi_dsub>
    1de2:	4622      	mov	r2, r4
    1de4:	462b      	mov	r3, r5
    1de6:	f002 fd73 	bl	48d0 <__aeabi_dcmplt>
    1dea:	2800      	cmp	r0, #0
    1dec:	f040 80d5 	bne.w	1f9a <_dtoa_r+0x69a>
    1df0:	980a      	ldr	r0, [sp, #40]	; 0x28
    1df2:	990c      	ldr	r1, [sp, #48]	; 0x30
    1df4:	ebc0 0308 	rsb	r3, r0, r8
    1df8:	428b      	cmp	r3, r1
    1dfa:	da6b      	bge.n	1ed4 <_dtoa_r+0x5d4>
    1dfc:	4620      	mov	r0, r4
    1dfe:	4629      	mov	r1, r5
    1e00:	2200      	movs	r2, #0
    1e02:	4b0a      	ldr	r3, [pc, #40]	; (1e2c <_dtoa_r+0x52c>)
    1e04:	f002 faf2 	bl	43ec <__aeabi_dmul>
    1e08:	2200      	movs	r2, #0
    1e0a:	4604      	mov	r4, r0
    1e0c:	460d      	mov	r5, r1
    1e0e:	4630      	mov	r0, r6
    1e10:	4639      	mov	r1, r7
    1e12:	4b06      	ldr	r3, [pc, #24]	; (1e2c <_dtoa_r+0x52c>)
    1e14:	f002 faea 	bl	43ec <__aeabi_dmul>
    1e18:	4606      	mov	r6, r0
    1e1a:	460f      	mov	r7, r1
    1e1c:	e7bf      	b.n	1d9e <_dtoa_r+0x49e>
    1e1e:	bf00      	nop
    1e20:	00004c60 	andeq	r4, r0, r0, ror #24
    1e24:	00004d28 	andeq	r4, r0, r8, lsr #26
    1e28:	3ff00000 	svccc	0x00f00000	; IMB
    1e2c:	40240000 	eormi	r0, r4, r0
    1e30:	401c0000 	andsmi	r0, ip, r0
    1e34:	40140000 	andsmi	r0, r4, r0
    1e38:	3fe00000 	svccc	0x00e00000
    1e3c:	4622      	mov	r2, r4
    1e3e:	e9d3 0100 	ldrd	r0, r1, [r3]
    1e42:	462b      	mov	r3, r5
    1e44:	f002 fad2 	bl	43ec <__aeabi_dmul>
    1e48:	e9dd 6704 	ldrd	r6, r7, [sp, #16]
    1e4c:	f8dd 8028 	ldr.w	r8, [sp, #40]	; 0x28
    1e50:	9a0c      	ldr	r2, [sp, #48]	; 0x30
    1e52:	e9cd 0116 	strd	r0, r1, [sp, #88]	; 0x58
    1e56:	9c0a      	ldr	r4, [sp, #40]	; 0x28
    1e58:	4490      	add	r8, r2
    1e5a:	4639      	mov	r1, r7
    1e5c:	4630      	mov	r0, r6
    1e5e:	f002 fd5f 	bl	4920 <__aeabi_d2iz>
    1e62:	4605      	mov	r5, r0
    1e64:	f002 fa5c 	bl	4320 <__aeabi_i2d>
    1e68:	4602      	mov	r2, r0
    1e6a:	460b      	mov	r3, r1
    1e6c:	4630      	mov	r0, r6
    1e6e:	4639      	mov	r1, r7
    1e70:	f002 f908 	bl	4084 <__aeabi_dsub>
    1e74:	3530      	adds	r5, #48	; 0x30
    1e76:	f804 5b01 	strb.w	r5, [r4], #1
    1e7a:	4544      	cmp	r4, r8
    1e7c:	4606      	mov	r6, r0
    1e7e:	460f      	mov	r7, r1
    1e80:	d121      	bne.n	1ec6 <_dtoa_r+0x5c6>
    1e82:	2200      	movs	r2, #0
    1e84:	4b87      	ldr	r3, [pc, #540]	; (20a4 <_dtoa_r+0x7a4>)
    1e86:	e9dd 0116 	ldrd	r0, r1, [sp, #88]	; 0x58
    1e8a:	f002 f8fd 	bl	4088 <__adddf3>
    1e8e:	4602      	mov	r2, r0
    1e90:	460b      	mov	r3, r1
    1e92:	4630      	mov	r0, r6
    1e94:	4639      	mov	r1, r7
    1e96:	f002 fd39 	bl	490c <__aeabi_dcmpgt>
    1e9a:	2800      	cmp	r0, #0
    1e9c:	d17d      	bne.n	1f9a <_dtoa_r+0x69a>
    1e9e:	e9dd 2316 	ldrd	r2, r3, [sp, #88]	; 0x58
    1ea2:	2000      	movs	r0, #0
    1ea4:	497f      	ldr	r1, [pc, #508]	; (20a4 <_dtoa_r+0x7a4>)
    1ea6:	f002 f8ed 	bl	4084 <__aeabi_dsub>
    1eaa:	4602      	mov	r2, r0
    1eac:	460b      	mov	r3, r1
    1eae:	4630      	mov	r0, r6
    1eb0:	4639      	mov	r1, r7
    1eb2:	f002 fd0d 	bl	48d0 <__aeabi_dcmplt>
    1eb6:	b168      	cbz	r0, 1ed4 <_dtoa_r+0x5d4>
    1eb8:	46a0      	mov	r8, r4
    1eba:	f818 3c01 	ldrb.w	r3, [r8, #-1]
    1ebe:	3c01      	subs	r4, #1
    1ec0:	2b30      	cmp	r3, #48	; 0x30
    1ec2:	d0f9      	beq.n	1eb8 <_dtoa_r+0x5b8>
    1ec4:	e2c2      	b.n	244c <_dtoa_r+0xb4c>
    1ec6:	2200      	movs	r2, #0
    1ec8:	4b77      	ldr	r3, [pc, #476]	; (20a8 <_dtoa_r+0x7a8>)
    1eca:	f002 fa8f 	bl	43ec <__aeabi_dmul>
    1ece:	4606      	mov	r6, r0
    1ed0:	460f      	mov	r7, r1
    1ed2:	e7c2      	b.n	1e5a <_dtoa_r+0x55a>
    1ed4:	e9dd 0112 	ldrd	r0, r1, [sp, #72]	; 0x48
    1ed8:	e9cd 0104 	strd	r0, r1, [sp, #16]
    1edc:	9b19      	ldr	r3, [sp, #100]	; 0x64
    1ede:	2b00      	cmp	r3, #0
    1ee0:	db7c      	blt.n	1fdc <_dtoa_r+0x6dc>
    1ee2:	f1b9 0f0e 	cmp.w	r9, #14
    1ee6:	dc79      	bgt.n	1fdc <_dtoa_r+0x6dc>
    1ee8:	4b70      	ldr	r3, [pc, #448]	; (20ac <_dtoa_r+0x7ac>)
    1eea:	9f25      	ldr	r7, [sp, #148]	; 0x94
    1eec:	eb03 03c9 	add.w	r3, r3, r9, lsl #3
    1ef0:	2f00      	cmp	r7, #0
    1ef2:	e9d3 4500 	ldrd	r4, r5, [r3]
    1ef6:	da14      	bge.n	1f22 <_dtoa_r+0x622>
    1ef8:	9f07      	ldr	r7, [sp, #28]
    1efa:	2f00      	cmp	r7, #0
    1efc:	dc11      	bgt.n	1f22 <_dtoa_r+0x622>
    1efe:	f040 8176 	bne.w	21ee <_dtoa_r+0x8ee>
    1f02:	4620      	mov	r0, r4
    1f04:	4629      	mov	r1, r5
    1f06:	2200      	movs	r2, #0
    1f08:	4b69      	ldr	r3, [pc, #420]	; (20b0 <_dtoa_r+0x7b0>)
    1f0a:	f002 fa6f 	bl	43ec <__aeabi_dmul>
    1f0e:	e9dd 2304 	ldrd	r2, r3, [sp, #16]
    1f12:	f002 fcf1 	bl	48f8 <__aeabi_dcmpge>
    1f16:	9d07      	ldr	r5, [sp, #28]
    1f18:	462c      	mov	r4, r5
    1f1a:	2800      	cmp	r0, #0
    1f1c:	f040 8169 	bne.w	21f2 <_dtoa_r+0x8f2>
    1f20:	e171      	b.n	2206 <_dtoa_r+0x906>
    1f22:	f8dd 8028 	ldr.w	r8, [sp, #40]	; 0x28
    1f26:	e9dd 6704 	ldrd	r6, r7, [sp, #16]
    1f2a:	4622      	mov	r2, r4
    1f2c:	462b      	mov	r3, r5
    1f2e:	4630      	mov	r0, r6
    1f30:	4639      	mov	r1, r7
    1f32:	f002 fb85 	bl	4640 <__aeabi_ddiv>
    1f36:	f002 fcf3 	bl	4920 <__aeabi_d2iz>
    1f3a:	9004      	str	r0, [sp, #16]
    1f3c:	f002 f9f0 	bl	4320 <__aeabi_i2d>
    1f40:	4622      	mov	r2, r4
    1f42:	462b      	mov	r3, r5
    1f44:	f002 fa52 	bl	43ec <__aeabi_dmul>
    1f48:	4602      	mov	r2, r0
    1f4a:	460b      	mov	r3, r1
    1f4c:	4630      	mov	r0, r6
    1f4e:	4639      	mov	r1, r7
    1f50:	f002 f898 	bl	4084 <__aeabi_dsub>
    1f54:	9f04      	ldr	r7, [sp, #16]
    1f56:	4602      	mov	r2, r0
    1f58:	f107 0630 	add.w	r6, r7, #48	; 0x30
    1f5c:	9f0a      	ldr	r7, [sp, #40]	; 0x28
    1f5e:	f808 6b01 	strb.w	r6, [r8], #1
    1f62:	ebc7 0608 	rsb	r6, r7, r8
    1f66:	9f07      	ldr	r7, [sp, #28]
    1f68:	460b      	mov	r3, r1
    1f6a:	42be      	cmp	r6, r7
    1f6c:	d129      	bne.n	1fc2 <_dtoa_r+0x6c2>
    1f6e:	f002 f88b 	bl	4088 <__adddf3>
    1f72:	4622      	mov	r2, r4
    1f74:	462b      	mov	r3, r5
    1f76:	4606      	mov	r6, r0
    1f78:	460f      	mov	r7, r1
    1f7a:	f002 fcc7 	bl	490c <__aeabi_dcmpgt>
    1f7e:	b970      	cbnz	r0, 1f9e <_dtoa_r+0x69e>
    1f80:	4630      	mov	r0, r6
    1f82:	4639      	mov	r1, r7
    1f84:	4622      	mov	r2, r4
    1f86:	462b      	mov	r3, r5
    1f88:	f002 fc98 	bl	48bc <__aeabi_dcmpeq>
    1f8c:	2800      	cmp	r0, #0
    1f8e:	f000 825f 	beq.w	2450 <_dtoa_r+0xb50>
    1f92:	9f04      	ldr	r7, [sp, #16]
    1f94:	07fb      	lsls	r3, r7, #31
    1f96:	d402      	bmi.n	1f9e <_dtoa_r+0x69e>
    1f98:	e25a      	b.n	2450 <_dtoa_r+0xb50>
    1f9a:	f8dd 9040 	ldr.w	r9, [sp, #64]	; 0x40
    1f9e:	4643      	mov	r3, r8
    1fa0:	4698      	mov	r8, r3
    1fa2:	f818 2c01 	ldrb.w	r2, [r8, #-1]
    1fa6:	3b01      	subs	r3, #1
    1fa8:	2a39      	cmp	r2, #57	; 0x39
    1faa:	d106      	bne.n	1fba <_dtoa_r+0x6ba>
    1fac:	9f0a      	ldr	r7, [sp, #40]	; 0x28
    1fae:	429f      	cmp	r7, r3
    1fb0:	d1f6      	bne.n	1fa0 <_dtoa_r+0x6a0>
    1fb2:	2230      	movs	r2, #48	; 0x30
    1fb4:	f109 0901 	add.w	r9, r9, #1
    1fb8:	703a      	strb	r2, [r7, #0]
    1fba:	781a      	ldrb	r2, [r3, #0]
    1fbc:	3201      	adds	r2, #1
    1fbe:	701a      	strb	r2, [r3, #0]
    1fc0:	e246      	b.n	2450 <_dtoa_r+0xb50>
    1fc2:	2200      	movs	r2, #0
    1fc4:	4b38      	ldr	r3, [pc, #224]	; (20a8 <_dtoa_r+0x7a8>)
    1fc6:	f002 fa11 	bl	43ec <__aeabi_dmul>
    1fca:	2200      	movs	r2, #0
    1fcc:	2300      	movs	r3, #0
    1fce:	4606      	mov	r6, r0
    1fd0:	460f      	mov	r7, r1
    1fd2:	f002 fc73 	bl	48bc <__aeabi_dcmpeq>
    1fd6:	2800      	cmp	r0, #0
    1fd8:	d0a7      	beq.n	1f2a <_dtoa_r+0x62a>
    1fda:	e239      	b.n	2450 <_dtoa_r+0xb50>
    1fdc:	9f0f      	ldr	r7, [sp, #60]	; 0x3c
    1fde:	2f00      	cmp	r7, #0
    1fe0:	d030      	beq.n	2044 <_dtoa_r+0x744>
    1fe2:	9f24      	ldr	r7, [sp, #144]	; 0x90
    1fe4:	2f01      	cmp	r7, #1
    1fe6:	dc0a      	bgt.n	1ffe <_dtoa_r+0x6fe>
    1fe8:	9f15      	ldr	r7, [sp, #84]	; 0x54
    1fea:	b117      	cbz	r7, 1ff2 <_dtoa_r+0x6f2>
    1fec:	f203 4333 	addw	r3, r3, #1075	; 0x433
    1ff0:	e002      	b.n	1ff8 <_dtoa_r+0x6f8>
    1ff2:	9b18      	ldr	r3, [sp, #96]	; 0x60
    1ff4:	f1c3 0336 	rsb	r3, r3, #54	; 0x36
    1ff8:	9d0e      	ldr	r5, [sp, #56]	; 0x38
    1ffa:	9e08      	ldr	r6, [sp, #32]
    1ffc:	e016      	b.n	202c <_dtoa_r+0x72c>
    1ffe:	9f07      	ldr	r7, [sp, #28]
    2000:	1e7d      	subs	r5, r7, #1
    2002:	9f0e      	ldr	r7, [sp, #56]	; 0x38
    2004:	42af      	cmp	r7, r5
    2006:	db01      	blt.n	200c <_dtoa_r+0x70c>
    2008:	1b7d      	subs	r5, r7, r5
    200a:	e006      	b.n	201a <_dtoa_r+0x71a>
    200c:	9f0e      	ldr	r7, [sp, #56]	; 0x38
    200e:	950e      	str	r5, [sp, #56]	; 0x38
    2010:	1beb      	subs	r3, r5, r7
    2012:	9f11      	ldr	r7, [sp, #68]	; 0x44
    2014:	2500      	movs	r5, #0
    2016:	441f      	add	r7, r3
    2018:	9711      	str	r7, [sp, #68]	; 0x44
    201a:	9f07      	ldr	r7, [sp, #28]
    201c:	2f00      	cmp	r7, #0
    201e:	da03      	bge.n	2028 <_dtoa_r+0x728>
    2020:	9808      	ldr	r0, [sp, #32]
    2022:	2300      	movs	r3, #0
    2024:	1bc6      	subs	r6, r0, r7
    2026:	e001      	b.n	202c <_dtoa_r+0x72c>
    2028:	9e08      	ldr	r6, [sp, #32]
    202a:	9b07      	ldr	r3, [sp, #28]
    202c:	9f08      	ldr	r7, [sp, #32]
    202e:	4650      	mov	r0, sl
    2030:	441f      	add	r7, r3
    2032:	9708      	str	r7, [sp, #32]
    2034:	9f09      	ldr	r7, [sp, #36]	; 0x24
    2036:	2101      	movs	r1, #1
    2038:	441f      	add	r7, r3
    203a:	9709      	str	r7, [sp, #36]	; 0x24
    203c:	f000 fb62 	bl	2704 <__i2b>
    2040:	4604      	mov	r4, r0
    2042:	e002      	b.n	204a <_dtoa_r+0x74a>
    2044:	9d0e      	ldr	r5, [sp, #56]	; 0x38
    2046:	9e08      	ldr	r6, [sp, #32]
    2048:	9c0f      	ldr	r4, [sp, #60]	; 0x3c
    204a:	b16e      	cbz	r6, 2068 <_dtoa_r+0x768>
    204c:	9f09      	ldr	r7, [sp, #36]	; 0x24
    204e:	2f00      	cmp	r7, #0
    2050:	dd0a      	ble.n	2068 <_dtoa_r+0x768>
    2052:	463b      	mov	r3, r7
    2054:	9f08      	ldr	r7, [sp, #32]
    2056:	42b3      	cmp	r3, r6
    2058:	bfa8      	it	ge
    205a:	4633      	movge	r3, r6
    205c:	1aff      	subs	r7, r7, r3
    205e:	9708      	str	r7, [sp, #32]
    2060:	9f09      	ldr	r7, [sp, #36]	; 0x24
    2062:	1af6      	subs	r6, r6, r3
    2064:	1aff      	subs	r7, r7, r3
    2066:	9709      	str	r7, [sp, #36]	; 0x24
    2068:	9f0e      	ldr	r7, [sp, #56]	; 0x38
    206a:	2f00      	cmp	r7, #0
    206c:	dd28      	ble.n	20c0 <_dtoa_r+0x7c0>
    206e:	9f0f      	ldr	r7, [sp, #60]	; 0x3c
    2070:	b307      	cbz	r7, 20b4 <_dtoa_r+0x7b4>
    2072:	2d00      	cmp	r5, #0
    2074:	dd10      	ble.n	2098 <_dtoa_r+0x798>
    2076:	4621      	mov	r1, r4
    2078:	462a      	mov	r2, r5
    207a:	4650      	mov	r0, sl
    207c:	f000 fbe4 	bl	2848 <__pow5mult>
    2080:	4604      	mov	r4, r0
    2082:	465a      	mov	r2, fp
    2084:	4621      	mov	r1, r4
    2086:	4650      	mov	r0, sl
    2088:	f000 fb45 	bl	2716 <__multiply>
    208c:	4659      	mov	r1, fp
    208e:	4607      	mov	r7, r0
    2090:	4650      	mov	r0, sl
    2092:	f000 fa57 	bl	2544 <_Bfree>
    2096:	46bb      	mov	fp, r7
    2098:	9f0e      	ldr	r7, [sp, #56]	; 0x38
    209a:	1b7a      	subs	r2, r7, r5
    209c:	d010      	beq.n	20c0 <_dtoa_r+0x7c0>
    209e:	4650      	mov	r0, sl
    20a0:	4659      	mov	r1, fp
    20a2:	e00a      	b.n	20ba <_dtoa_r+0x7ba>
    20a4:	3fe00000 	svccc	0x00e00000
    20a8:	40240000 	eormi	r0, r4, r0
    20ac:	00004c60 	andeq	r4, r0, r0, ror #24
    20b0:	40140000 	andsmi	r0, r4, r0
    20b4:	9a0e      	ldr	r2, [sp, #56]	; 0x38
    20b6:	4650      	mov	r0, sl
    20b8:	4659      	mov	r1, fp
    20ba:	f000 fbc5 	bl	2848 <__pow5mult>
    20be:	4683      	mov	fp, r0
    20c0:	4650      	mov	r0, sl
    20c2:	2101      	movs	r1, #1
    20c4:	f000 fb1e 	bl	2704 <__i2b>
    20c8:	9f11      	ldr	r7, [sp, #68]	; 0x44
    20ca:	4605      	mov	r5, r0
    20cc:	2f00      	cmp	r7, #0
    20ce:	dd05      	ble.n	20dc <_dtoa_r+0x7dc>
    20d0:	4629      	mov	r1, r5
    20d2:	4650      	mov	r0, sl
    20d4:	463a      	mov	r2, r7
    20d6:	f000 fbb7 	bl	2848 <__pow5mult>
    20da:	4605      	mov	r5, r0
    20dc:	9f24      	ldr	r7, [sp, #144]	; 0x90
    20de:	2f01      	cmp	r7, #1
    20e0:	dc12      	bgt.n	2108 <_dtoa_r+0x808>
    20e2:	9804      	ldr	r0, [sp, #16]
    20e4:	b980      	cbnz	r0, 2108 <_dtoa_r+0x808>
    20e6:	9905      	ldr	r1, [sp, #20]
    20e8:	f3c1 0313 	ubfx	r3, r1, #0, #20
    20ec:	b973      	cbnz	r3, 210c <_dtoa_r+0x80c>
    20ee:	f021 4700 	bic.w	r7, r1, #2147483648	; 0x80000000
    20f2:	0d3f      	lsrs	r7, r7, #20
    20f4:	053f      	lsls	r7, r7, #20
    20f6:	b157      	cbz	r7, 210e <_dtoa_r+0x80e>
    20f8:	9f08      	ldr	r7, [sp, #32]
    20fa:	3701      	adds	r7, #1
    20fc:	9708      	str	r7, [sp, #32]
    20fe:	9f09      	ldr	r7, [sp, #36]	; 0x24
    2100:	3701      	adds	r7, #1
    2102:	9709      	str	r7, [sp, #36]	; 0x24
    2104:	2701      	movs	r7, #1
    2106:	e002      	b.n	210e <_dtoa_r+0x80e>
    2108:	2700      	movs	r7, #0
    210a:	e000      	b.n	210e <_dtoa_r+0x80e>
    210c:	9f04      	ldr	r7, [sp, #16]
    210e:	9811      	ldr	r0, [sp, #68]	; 0x44
    2110:	b140      	cbz	r0, 2124 <_dtoa_r+0x824>
    2112:	692b      	ldr	r3, [r5, #16]
    2114:	eb05 0383 	add.w	r3, r5, r3, lsl #2
    2118:	6918      	ldr	r0, [r3, #16]
    211a:	f000 faa6 	bl	266a <__hi0bits>
    211e:	f1c0 0020 	rsb	r0, r0, #32
    2122:	e000      	b.n	2126 <_dtoa_r+0x826>
    2124:	2001      	movs	r0, #1
    2126:	9b09      	ldr	r3, [sp, #36]	; 0x24
    2128:	4403      	add	r3, r0
    212a:	f013 031f 	ands.w	r3, r3, #31
    212e:	d00f      	beq.n	2150 <_dtoa_r+0x850>
    2130:	f1c3 0220 	rsb	r2, r3, #32
    2134:	2a04      	cmp	r2, #4
    2136:	dd09      	ble.n	214c <_dtoa_r+0x84c>
    2138:	9908      	ldr	r1, [sp, #32]
    213a:	9a09      	ldr	r2, [sp, #36]	; 0x24
    213c:	f1c3 031c 	rsb	r3, r3, #28
    2140:	4419      	add	r1, r3
    2142:	441a      	add	r2, r3
    2144:	9108      	str	r1, [sp, #32]
    2146:	441e      	add	r6, r3
    2148:	9209      	str	r2, [sp, #36]	; 0x24
    214a:	e009      	b.n	2160 <_dtoa_r+0x860>
    214c:	d008      	beq.n	2160 <_dtoa_r+0x860>
    214e:	4613      	mov	r3, r2
    2150:	9808      	ldr	r0, [sp, #32]
    2152:	9909      	ldr	r1, [sp, #36]	; 0x24
    2154:	331c      	adds	r3, #28
    2156:	4418      	add	r0, r3
    2158:	4419      	add	r1, r3
    215a:	9008      	str	r0, [sp, #32]
    215c:	441e      	add	r6, r3
    215e:	9109      	str	r1, [sp, #36]	; 0x24
    2160:	9a08      	ldr	r2, [sp, #32]
    2162:	2a00      	cmp	r2, #0
    2164:	dd04      	ble.n	2170 <_dtoa_r+0x870>
    2166:	4659      	mov	r1, fp
    2168:	4650      	mov	r0, sl
    216a:	f000 fbbb 	bl	28e4 <__lshift>
    216e:	4683      	mov	fp, r0
    2170:	9b09      	ldr	r3, [sp, #36]	; 0x24
    2172:	2b00      	cmp	r3, #0
    2174:	dd05      	ble.n	2182 <_dtoa_r+0x882>
    2176:	4629      	mov	r1, r5
    2178:	4650      	mov	r0, sl
    217a:	461a      	mov	r2, r3
    217c:	f000 fbb2 	bl	28e4 <__lshift>
    2180:	4605      	mov	r5, r0
    2182:	9814      	ldr	r0, [sp, #80]	; 0x50
    2184:	b1e0      	cbz	r0, 21c0 <_dtoa_r+0x8c0>
    2186:	4658      	mov	r0, fp
    2188:	4629      	mov	r1, r5
    218a:	f000 fbfe 	bl	298a <__mcmp>
    218e:	2800      	cmp	r0, #0
    2190:	da16      	bge.n	21c0 <_dtoa_r+0x8c0>
    2192:	4659      	mov	r1, fp
    2194:	4650      	mov	r0, sl
    2196:	220a      	movs	r2, #10
    2198:	2300      	movs	r3, #0
    219a:	f000 f9ea 	bl	2572 <__multadd>
    219e:	990f      	ldr	r1, [sp, #60]	; 0x3c
    21a0:	f109 39ff 	add.w	r9, r9, #4294967295	; 0xffffffff
    21a4:	4683      	mov	fp, r0
    21a6:	b149      	cbz	r1, 21bc <_dtoa_r+0x8bc>
    21a8:	4621      	mov	r1, r4
    21aa:	220a      	movs	r2, #10
    21ac:	4650      	mov	r0, sl
    21ae:	2300      	movs	r3, #0
    21b0:	f000 f9df 	bl	2572 <__multadd>
    21b4:	9a0b      	ldr	r2, [sp, #44]	; 0x2c
    21b6:	4604      	mov	r4, r0
    21b8:	9207      	str	r2, [sp, #28]
    21ba:	e001      	b.n	21c0 <_dtoa_r+0x8c0>
    21bc:	9b0b      	ldr	r3, [sp, #44]	; 0x2c
    21be:	9307      	str	r3, [sp, #28]
    21c0:	9807      	ldr	r0, [sp, #28]
    21c2:	2800      	cmp	r0, #0
    21c4:	dc29      	bgt.n	221a <_dtoa_r+0x91a>
    21c6:	9924      	ldr	r1, [sp, #144]	; 0x90
    21c8:	2902      	cmp	r1, #2
    21ca:	dd26      	ble.n	221a <_dtoa_r+0x91a>
    21cc:	b988      	cbnz	r0, 21f2 <_dtoa_r+0x8f2>
    21ce:	4629      	mov	r1, r5
    21d0:	2205      	movs	r2, #5
    21d2:	9b07      	ldr	r3, [sp, #28]
    21d4:	4650      	mov	r0, sl
    21d6:	f000 f9cc 	bl	2572 <__multadd>
    21da:	4605      	mov	r5, r0
    21dc:	4629      	mov	r1, r5
    21de:	4658      	mov	r0, fp
    21e0:	f000 fbd3 	bl	298a <__mcmp>
    21e4:	2800      	cmp	r0, #0
    21e6:	dc0e      	bgt.n	2206 <_dtoa_r+0x906>
    21e8:	e003      	b.n	21f2 <_dtoa_r+0x8f2>
    21ea:	9d0c      	ldr	r5, [sp, #48]	; 0x30
    21ec:	e000      	b.n	21f0 <_dtoa_r+0x8f0>
    21ee:	2500      	movs	r5, #0
    21f0:	462c      	mov	r4, r5
    21f2:	9f25      	ldr	r7, [sp, #148]	; 0x94
    21f4:	f8dd 8028 	ldr.w	r8, [sp, #40]	; 0x28
    21f8:	ea6f 0907 	mvn.w	r9, r7
    21fc:	e00a      	b.n	2214 <_dtoa_r+0x914>
    21fe:	9d0c      	ldr	r5, [sp, #48]	; 0x30
    2200:	f8dd 9040 	ldr.w	r9, [sp, #64]	; 0x40
    2204:	462c      	mov	r4, r5
    2206:	9f0a      	ldr	r7, [sp, #40]	; 0x28
    2208:	2331      	movs	r3, #49	; 0x31
    220a:	f107 0801 	add.w	r8, r7, #1
    220e:	703b      	strb	r3, [r7, #0]
    2210:	f109 0901 	add.w	r9, r9, #1
    2214:	4627      	mov	r7, r4
    2216:	2400      	movs	r4, #0
    2218:	e107      	b.n	242a <_dtoa_r+0xb2a>
    221a:	980f      	ldr	r0, [sp, #60]	; 0x3c
    221c:	2800      	cmp	r0, #0
    221e:	f000 80bb 	beq.w	2398 <_dtoa_r+0xa98>
    2222:	2e00      	cmp	r6, #0
    2224:	dd05      	ble.n	2232 <_dtoa_r+0x932>
    2226:	4621      	mov	r1, r4
    2228:	4650      	mov	r0, sl
    222a:	4632      	mov	r2, r6
    222c:	f000 fb5a 	bl	28e4 <__lshift>
    2230:	4604      	mov	r4, r0
    2232:	b19f      	cbz	r7, 225c <_dtoa_r+0x95c>
    2234:	6861      	ldr	r1, [r4, #4]
    2236:	4650      	mov	r0, sl
    2238:	f000 f94f 	bl	24da <_Balloc>
    223c:	6922      	ldr	r2, [r4, #16]
    223e:	4606      	mov	r6, r0
    2240:	3202      	adds	r2, #2
    2242:	f104 010c 	add.w	r1, r4, #12
    2246:	0092      	lsls	r2, r2, #2
    2248:	300c      	adds	r0, #12
    224a:	f7fe f9ed 	bl	628 <memcpy>
    224e:	4650      	mov	r0, sl
    2250:	4631      	mov	r1, r6
    2252:	2201      	movs	r2, #1
    2254:	f000 fb46 	bl	28e4 <__lshift>
    2258:	4607      	mov	r7, r0
    225a:	e000      	b.n	225e <_dtoa_r+0x95e>
    225c:	4627      	mov	r7, r4
    225e:	9e0a      	ldr	r6, [sp, #40]	; 0x28
    2260:	4629      	mov	r1, r5
    2262:	4658      	mov	r0, fp
    2264:	f7ff faba 	bl	17dc <quorem>
    2268:	4621      	mov	r1, r4
    226a:	f100 0c30 	add.w	ip, r0, #48	; 0x30
    226e:	4680      	mov	r8, r0
    2270:	4658      	mov	r0, fp
    2272:	f8cd c008 	str.w	ip, [sp, #8]
    2276:	f000 fb88 	bl	298a <__mcmp>
    227a:	463a      	mov	r2, r7
    227c:	9008      	str	r0, [sp, #32]
    227e:	4629      	mov	r1, r5
    2280:	4650      	mov	r0, sl
    2282:	f000 fb9f 	bl	29c4 <__mdiff>
    2286:	68c3      	ldr	r3, [r0, #12]
    2288:	4602      	mov	r2, r0
    228a:	f8dd c008 	ldr.w	ip, [sp, #8]
    228e:	b94b      	cbnz	r3, 22a4 <_dtoa_r+0x9a4>
    2290:	4611      	mov	r1, r2
    2292:	4658      	mov	r0, fp
    2294:	9203      	str	r2, [sp, #12]
    2296:	f000 fb78 	bl	298a <__mcmp>
    229a:	9a03      	ldr	r2, [sp, #12]
    229c:	4603      	mov	r3, r0
    229e:	f8dd c008 	ldr.w	ip, [sp, #8]
    22a2:	e000      	b.n	22a6 <_dtoa_r+0x9a6>
    22a4:	2301      	movs	r3, #1
    22a6:	4650      	mov	r0, sl
    22a8:	4611      	mov	r1, r2
    22aa:	9303      	str	r3, [sp, #12]
    22ac:	f8cd c008 	str.w	ip, [sp, #8]
    22b0:	f000 f948 	bl	2544 <_Bfree>
    22b4:	9b03      	ldr	r3, [sp, #12]
    22b6:	f8dd c008 	ldr.w	ip, [sp, #8]
    22ba:	b963      	cbnz	r3, 22d6 <_dtoa_r+0x9d6>
    22bc:	9924      	ldr	r1, [sp, #144]	; 0x90
    22be:	b951      	cbnz	r1, 22d6 <_dtoa_r+0x9d6>
    22c0:	9804      	ldr	r0, [sp, #16]
    22c2:	f000 0201 	and.w	r2, r0, #1
    22c6:	b932      	cbnz	r2, 22d6 <_dtoa_r+0x9d6>
    22c8:	f1bc 0f39 	cmp.w	ip, #57	; 0x39
    22cc:	d035      	beq.n	233a <_dtoa_r+0xa3a>
    22ce:	9b08      	ldr	r3, [sp, #32]
    22d0:	2b00      	cmp	r3, #0
    22d2:	dc24      	bgt.n	231e <_dtoa_r+0xa1e>
    22d4:	e025      	b.n	2322 <_dtoa_r+0xa22>
    22d6:	9808      	ldr	r0, [sp, #32]
    22d8:	2800      	cmp	r0, #0
    22da:	da02      	bge.n	22e2 <_dtoa_r+0x9e2>
    22dc:	2b00      	cmp	r3, #0
    22de:	dc08      	bgt.n	22f2 <_dtoa_r+0x9f2>
    22e0:	e01f      	b.n	2322 <_dtoa_r+0xa22>
    22e2:	d123      	bne.n	232c <_dtoa_r+0xa2c>
    22e4:	9924      	ldr	r1, [sp, #144]	; 0x90
    22e6:	bb09      	cbnz	r1, 232c <_dtoa_r+0xa2c>
    22e8:	9804      	ldr	r0, [sp, #16]
    22ea:	f000 0201 	and.w	r2, r0, #1
    22ee:	b9ea      	cbnz	r2, 232c <_dtoa_r+0xa2c>
    22f0:	e7f4      	b.n	22dc <_dtoa_r+0x9dc>
    22f2:	4659      	mov	r1, fp
    22f4:	2201      	movs	r2, #1
    22f6:	4650      	mov	r0, sl
    22f8:	f8cd c008 	str.w	ip, [sp, #8]
    22fc:	f000 faf2 	bl	28e4 <__lshift>
    2300:	4629      	mov	r1, r5
    2302:	4683      	mov	fp, r0
    2304:	f000 fb41 	bl	298a <__mcmp>
    2308:	2800      	cmp	r0, #0
    230a:	f8dd c008 	ldr.w	ip, [sp, #8]
    230e:	dc03      	bgt.n	2318 <_dtoa_r+0xa18>
    2310:	d107      	bne.n	2322 <_dtoa_r+0xa22>
    2312:	f01c 0f01 	tst.w	ip, #1
    2316:	d004      	beq.n	2322 <_dtoa_r+0xa22>
    2318:	f1bc 0f39 	cmp.w	ip, #57	; 0x39
    231c:	d00d      	beq.n	233a <_dtoa_r+0xa3a>
    231e:	f108 0c31 	add.w	ip, r8, #49	; 0x31
    2322:	f106 0801 	add.w	r8, r6, #1
    2326:	f886 c000 	strb.w	ip, [r6]
    232a:	e07e      	b.n	242a <_dtoa_r+0xb2a>
    232c:	2b00      	cmp	r3, #0
    232e:	f106 0801 	add.w	r8, r6, #1
    2332:	dd09      	ble.n	2348 <_dtoa_r+0xa48>
    2334:	f1bc 0f39 	cmp.w	ip, #57	; 0x39
    2338:	d103      	bne.n	2342 <_dtoa_r+0xa42>
    233a:	2339      	movs	r3, #57	; 0x39
    233c:	7033      	strb	r3, [r6, #0]
    233e:	3601      	adds	r6, #1
    2340:	e05b      	b.n	23fa <_dtoa_r+0xafa>
    2342:	f10c 0301 	add.w	r3, ip, #1
    2346:	e068      	b.n	241a <_dtoa_r+0xb1a>
    2348:	990a      	ldr	r1, [sp, #40]	; 0x28
    234a:	9a07      	ldr	r2, [sp, #28]
    234c:	ebc1 0308 	rsb	r3, r1, r8
    2350:	4646      	mov	r6, r8
    2352:	4293      	cmp	r3, r2
    2354:	f806 cc01 	strb.w	ip, [r6, #-1]
    2358:	d03c      	beq.n	23d4 <_dtoa_r+0xad4>
    235a:	4659      	mov	r1, fp
    235c:	220a      	movs	r2, #10
    235e:	2300      	movs	r3, #0
    2360:	4650      	mov	r0, sl
    2362:	f000 f906 	bl	2572 <__multadd>
    2366:	42bc      	cmp	r4, r7
    2368:	4683      	mov	fp, r0
    236a:	4621      	mov	r1, r4
    236c:	4650      	mov	r0, sl
    236e:	f04f 020a 	mov.w	r2, #10
    2372:	f04f 0300 	mov.w	r3, #0
    2376:	d104      	bne.n	2382 <_dtoa_r+0xa82>
    2378:	f000 f8fb 	bl	2572 <__multadd>
    237c:	4604      	mov	r4, r0
    237e:	4607      	mov	r7, r0
    2380:	e76e      	b.n	2260 <_dtoa_r+0x960>
    2382:	f000 f8f6 	bl	2572 <__multadd>
    2386:	4639      	mov	r1, r7
    2388:	4604      	mov	r4, r0
    238a:	220a      	movs	r2, #10
    238c:	4650      	mov	r0, sl
    238e:	2300      	movs	r3, #0
    2390:	f000 f8ef 	bl	2572 <__multadd>
    2394:	4607      	mov	r7, r0
    2396:	e763      	b.n	2260 <_dtoa_r+0x960>
    2398:	9e0f      	ldr	r6, [sp, #60]	; 0x3c
    239a:	4658      	mov	r0, fp
    239c:	4629      	mov	r1, r5
    239e:	f7ff fa1d 	bl	17dc <quorem>
    23a2:	9f0a      	ldr	r7, [sp, #40]	; 0x28
    23a4:	f100 0c30 	add.w	ip, r0, #48	; 0x30
    23a8:	f807 c006 	strb.w	ip, [r7, r6]
    23ac:	9f07      	ldr	r7, [sp, #28]
    23ae:	3601      	adds	r6, #1
    23b0:	42be      	cmp	r6, r7
    23b2:	db07      	blt.n	23c4 <_dtoa_r+0xac4>
    23b4:	9e0a      	ldr	r6, [sp, #40]	; 0x28
    23b6:	2f01      	cmp	r7, #1
    23b8:	bfac      	ite	ge
    23ba:	19f6      	addge	r6, r6, r7
    23bc:	3601      	addlt	r6, #1
    23be:	4627      	mov	r7, r4
    23c0:	2400      	movs	r4, #0
    23c2:	e007      	b.n	23d4 <_dtoa_r+0xad4>
    23c4:	4659      	mov	r1, fp
    23c6:	4650      	mov	r0, sl
    23c8:	220a      	movs	r2, #10
    23ca:	2300      	movs	r3, #0
    23cc:	f000 f8d1 	bl	2572 <__multadd>
    23d0:	4683      	mov	fp, r0
    23d2:	e7e2      	b.n	239a <_dtoa_r+0xa9a>
    23d4:	4659      	mov	r1, fp
    23d6:	2201      	movs	r2, #1
    23d8:	4650      	mov	r0, sl
    23da:	f8cd c008 	str.w	ip, [sp, #8]
    23de:	f000 fa81 	bl	28e4 <__lshift>
    23e2:	4629      	mov	r1, r5
    23e4:	4683      	mov	fp, r0
    23e6:	f000 fad0 	bl	298a <__mcmp>
    23ea:	2800      	cmp	r0, #0
    23ec:	f8dd c008 	ldr.w	ip, [sp, #8]
    23f0:	dc03      	bgt.n	23fa <_dtoa_r+0xafa>
    23f2:	d114      	bne.n	241e <_dtoa_r+0xb1e>
    23f4:	f01c 0f01 	tst.w	ip, #1
    23f8:	d011      	beq.n	241e <_dtoa_r+0xb1e>
    23fa:	f816 3c01 	ldrb.w	r3, [r6, #-1]
    23fe:	46b0      	mov	r8, r6
    2400:	2b39      	cmp	r3, #57	; 0x39
    2402:	f106 36ff 	add.w	r6, r6, #4294967295	; 0xffffffff
    2406:	d107      	bne.n	2418 <_dtoa_r+0xb18>
    2408:	980a      	ldr	r0, [sp, #40]	; 0x28
    240a:	42b0      	cmp	r0, r6
    240c:	d1f5      	bne.n	23fa <_dtoa_r+0xafa>
    240e:	2331      	movs	r3, #49	; 0x31
    2410:	f109 0901 	add.w	r9, r9, #1
    2414:	7003      	strb	r3, [r0, #0]
    2416:	e008      	b.n	242a <_dtoa_r+0xb2a>
    2418:	3301      	adds	r3, #1
    241a:	7033      	strb	r3, [r6, #0]
    241c:	e005      	b.n	242a <_dtoa_r+0xb2a>
    241e:	46b0      	mov	r8, r6
    2420:	f818 3c01 	ldrb.w	r3, [r8, #-1]
    2424:	3e01      	subs	r6, #1
    2426:	2b30      	cmp	r3, #48	; 0x30
    2428:	d0f9      	beq.n	241e <_dtoa_r+0xb1e>
    242a:	4650      	mov	r0, sl
    242c:	4629      	mov	r1, r5
    242e:	f000 f889 	bl	2544 <_Bfree>
    2432:	b16f      	cbz	r7, 2450 <_dtoa_r+0xb50>
    2434:	b12c      	cbz	r4, 2442 <_dtoa_r+0xb42>
    2436:	42bc      	cmp	r4, r7
    2438:	d003      	beq.n	2442 <_dtoa_r+0xb42>
    243a:	4650      	mov	r0, sl
    243c:	4621      	mov	r1, r4
    243e:	f000 f881 	bl	2544 <_Bfree>
    2442:	4650      	mov	r0, sl
    2444:	4639      	mov	r1, r7
    2446:	f000 f87d 	bl	2544 <_Bfree>
    244a:	e001      	b.n	2450 <_dtoa_r+0xb50>
    244c:	f8dd 9040 	ldr.w	r9, [sp, #64]	; 0x40
    2450:	4650      	mov	r0, sl
    2452:	4659      	mov	r1, fp
    2454:	f000 f876 	bl	2544 <_Bfree>
    2458:	2300      	movs	r3, #0
    245a:	9f26      	ldr	r7, [sp, #152]	; 0x98
    245c:	f888 3000 	strb.w	r3, [r8]
    2460:	f109 0301 	add.w	r3, r9, #1
    2464:	603b      	str	r3, [r7, #0]
    2466:	9f28      	ldr	r7, [sp, #160]	; 0xa0
    2468:	b127      	cbz	r7, 2474 <_dtoa_r+0xb74>
    246a:	f8c7 8000 	str.w	r8, [r7]
    246e:	e001      	b.n	2474 <_dtoa_r+0xb74>
    2470:	4802      	ldr	r0, [pc, #8]	; (247c <_dtoa_r+0xb7c>)
    2472:	e000      	b.n	2476 <_dtoa_r+0xb76>
    2474:	980a      	ldr	r0, [sp, #40]	; 0x28
    2476:	b01b      	add	sp, #108	; 0x6c
    2478:	e8bd 8ff0 	ldmia.w	sp!, {r4, r5, r6, r7, r8, r9, sl, fp, pc}
    247c:	00004abf 			; <UNDEFINED> instruction: 0x00004abf

00002480 <_localeconv_r>:
    2480:	4800      	ldr	r0, [pc, #0]	; (2484 <_localeconv_r+0x4>)
    2482:	4770      	bx	lr
    2484:	10000134 	andne	r0, r0, r4, lsr r1

00002488 <memchr>:
    2488:	b510      	push	{r4, lr}
    248a:	b2c9      	uxtb	r1, r1
    248c:	4402      	add	r2, r0
    248e:	4290      	cmp	r0, r2
    2490:	4603      	mov	r3, r0
    2492:	d005      	beq.n	24a0 <memchr+0x18>
    2494:	781c      	ldrb	r4, [r3, #0]
    2496:	3001      	adds	r0, #1
    2498:	428c      	cmp	r4, r1
    249a:	d1f8      	bne.n	248e <memchr+0x6>
    249c:	4618      	mov	r0, r3
    249e:	bd10      	pop	{r4, pc}
    24a0:	2000      	movs	r0, #0
    24a2:	bd10      	pop	{r4, pc}

000024a4 <memmove>:
    24a4:	4281      	cmp	r1, r0
    24a6:	b570      	push	{r4, r5, r6, lr}
    24a8:	d301      	bcc.n	24ae <memmove+0xa>
    24aa:	2300      	movs	r3, #0
    24ac:	e00e      	b.n	24cc <memmove+0x28>
    24ae:	188c      	adds	r4, r1, r2
    24b0:	42a0      	cmp	r0, r4
    24b2:	d2fa      	bcs.n	24aa <memmove+0x6>
    24b4:	1885      	adds	r5, r0, r2
    24b6:	4613      	mov	r3, r2
    24b8:	f113 33ff 	adds.w	r3, r3, #4294967295	; 0xffffffff
    24bc:	d305      	bcc.n	24ca <memmove+0x26>
    24be:	4251      	negs	r1, r2
    24c0:	1866      	adds	r6, r4, r1
    24c2:	5cf6      	ldrb	r6, [r6, r3]
    24c4:	4429      	add	r1, r5
    24c6:	54ce      	strb	r6, [r1, r3]
    24c8:	e7f6      	b.n	24b8 <memmove+0x14>
    24ca:	bd70      	pop	{r4, r5, r6, pc}
    24cc:	4293      	cmp	r3, r2
    24ce:	d003      	beq.n	24d8 <memmove+0x34>
    24d0:	5ccc      	ldrb	r4, [r1, r3]
    24d2:	54c4      	strb	r4, [r0, r3]
    24d4:	3301      	adds	r3, #1
    24d6:	e7f9      	b.n	24cc <memmove+0x28>
    24d8:	bd70      	pop	{r4, r5, r6, pc}

000024da <_Balloc>:
    24da:	b570      	push	{r4, r5, r6, lr}
    24dc:	6a45      	ldr	r5, [r0, #36]	; 0x24
    24de:	4604      	mov	r4, r0
    24e0:	460e      	mov	r6, r1
    24e2:	b93d      	cbnz	r5, 24f4 <_Balloc+0x1a>
    24e4:	2010      	movs	r0, #16
    24e6:	f7fe f897 	bl	618 <malloc>
    24ea:	6260      	str	r0, [r4, #36]	; 0x24
    24ec:	6045      	str	r5, [r0, #4]
    24ee:	6085      	str	r5, [r0, #8]
    24f0:	6005      	str	r5, [r0, #0]
    24f2:	60c5      	str	r5, [r0, #12]
    24f4:	6a65      	ldr	r5, [r4, #36]	; 0x24
    24f6:	68eb      	ldr	r3, [r5, #12]
    24f8:	b143      	cbz	r3, 250c <_Balloc+0x32>
    24fa:	6a63      	ldr	r3, [r4, #36]	; 0x24
    24fc:	68da      	ldr	r2, [r3, #12]
    24fe:	f852 0026 	ldr.w	r0, [r2, r6, lsl #2]
    2502:	b178      	cbz	r0, 2524 <_Balloc+0x4a>
    2504:	6801      	ldr	r1, [r0, #0]
    2506:	f842 1026 	str.w	r1, [r2, r6, lsl #2]
    250a:	e017      	b.n	253c <_Balloc+0x62>
    250c:	4620      	mov	r0, r4
    250e:	2104      	movs	r1, #4
    2510:	2221      	movs	r2, #33	; 0x21
    2512:	f000 fbe0 	bl	2cd6 <_calloc_r>
    2516:	6a63      	ldr	r3, [r4, #36]	; 0x24
    2518:	60e8      	str	r0, [r5, #12]
    251a:	68db      	ldr	r3, [r3, #12]
    251c:	2b00      	cmp	r3, #0
    251e:	d1ec      	bne.n	24fa <_Balloc+0x20>
    2520:	2000      	movs	r0, #0
    2522:	bd70      	pop	{r4, r5, r6, pc}
    2524:	2101      	movs	r1, #1
    2526:	fa01 f506 	lsl.w	r5, r1, r6
    252a:	1d6a      	adds	r2, r5, #5
    252c:	4620      	mov	r0, r4
    252e:	0092      	lsls	r2, r2, #2
    2530:	f000 fbd1 	bl	2cd6 <_calloc_r>
    2534:	2800      	cmp	r0, #0
    2536:	d0f3      	beq.n	2520 <_Balloc+0x46>
    2538:	6046      	str	r6, [r0, #4]
    253a:	6085      	str	r5, [r0, #8]
    253c:	2200      	movs	r2, #0
    253e:	6102      	str	r2, [r0, #16]
    2540:	60c2      	str	r2, [r0, #12]
    2542:	bd70      	pop	{r4, r5, r6, pc}

00002544 <_Bfree>:
    2544:	b570      	push	{r4, r5, r6, lr}
    2546:	6a44      	ldr	r4, [r0, #36]	; 0x24
    2548:	4606      	mov	r6, r0
    254a:	460d      	mov	r5, r1
    254c:	b93c      	cbnz	r4, 255e <_Bfree+0x1a>
    254e:	2010      	movs	r0, #16
    2550:	f7fe f862 	bl	618 <malloc>
    2554:	6270      	str	r0, [r6, #36]	; 0x24
    2556:	6044      	str	r4, [r0, #4]
    2558:	6084      	str	r4, [r0, #8]
    255a:	6004      	str	r4, [r0, #0]
    255c:	60c4      	str	r4, [r0, #12]
    255e:	b13d      	cbz	r5, 2570 <_Bfree+0x2c>
    2560:	6a73      	ldr	r3, [r6, #36]	; 0x24
    2562:	686a      	ldr	r2, [r5, #4]
    2564:	68db      	ldr	r3, [r3, #12]
    2566:	f853 1022 	ldr.w	r1, [r3, r2, lsl #2]
    256a:	6029      	str	r1, [r5, #0]
    256c:	f843 5022 	str.w	r5, [r3, r2, lsl #2]
    2570:	bd70      	pop	{r4, r5, r6, pc}

00002572 <__multadd>:
    2572:	e92d 41f0 	stmdb	sp!, {r4, r5, r6, r7, r8, lr}
    2576:	460c      	mov	r4, r1
    2578:	461e      	mov	r6, r3
    257a:	690d      	ldr	r5, [r1, #16]
    257c:	4607      	mov	r7, r0
    257e:	3114      	adds	r1, #20
    2580:	2300      	movs	r3, #0
    2582:	6808      	ldr	r0, [r1, #0]
    2584:	3301      	adds	r3, #1
    2586:	fa1f fc80 	uxth.w	ip, r0
    258a:	0c00      	lsrs	r0, r0, #16
    258c:	fb02 6c0c 	mla	ip, r2, ip, r6
    2590:	4350      	muls	r0, r2
    2592:	eb00 401c 	add.w	r0, r0, ip, lsr #16
    2596:	fa1f fc8c 	uxth.w	ip, ip
    259a:	0c06      	lsrs	r6, r0, #16
    259c:	42ab      	cmp	r3, r5
    259e:	eb0c 4000 	add.w	r0, ip, r0, lsl #16
    25a2:	f841 0b04 	str.w	r0, [r1], #4
    25a6:	dbec      	blt.n	2582 <__multadd+0x10>
    25a8:	b1d6      	cbz	r6, 25e0 <__multadd+0x6e>
    25aa:	68a3      	ldr	r3, [r4, #8]
    25ac:	429d      	cmp	r5, r3
    25ae:	db12      	blt.n	25d6 <__multadd+0x64>
    25b0:	6861      	ldr	r1, [r4, #4]
    25b2:	4638      	mov	r0, r7
    25b4:	3101      	adds	r1, #1
    25b6:	f7ff ff90 	bl	24da <_Balloc>
    25ba:	6922      	ldr	r2, [r4, #16]
    25bc:	f104 010c 	add.w	r1, r4, #12
    25c0:	3202      	adds	r2, #2
    25c2:	4680      	mov	r8, r0
    25c4:	0092      	lsls	r2, r2, #2
    25c6:	300c      	adds	r0, #12
    25c8:	f7fe f82e 	bl	628 <memcpy>
    25cc:	4621      	mov	r1, r4
    25ce:	4638      	mov	r0, r7
    25d0:	f7ff ffb8 	bl	2544 <_Bfree>
    25d4:	4644      	mov	r4, r8
    25d6:	eb04 0385 	add.w	r3, r4, r5, lsl #2
    25da:	3501      	adds	r5, #1
    25dc:	615e      	str	r6, [r3, #20]
    25de:	6125      	str	r5, [r4, #16]
    25e0:	4620      	mov	r0, r4
    25e2:	e8bd 81f0 	ldmia.w	sp!, {r4, r5, r6, r7, r8, pc}

000025e6 <__s2b>:
    25e6:	e92d 43f8 	stmdb	sp!, {r3, r4, r5, r6, r7, r8, r9, lr}
    25ea:	4614      	mov	r4, r2
    25ec:	4698      	mov	r8, r3
    25ee:	f103 0208 	add.w	r2, r3, #8
    25f2:	2309      	movs	r3, #9
    25f4:	460d      	mov	r5, r1
    25f6:	fb92 f2f3 	sdiv	r2, r2, r3
    25fa:	4606      	mov	r6, r0
    25fc:	2301      	movs	r3, #1
    25fe:	2100      	movs	r1, #0
    2600:	429a      	cmp	r2, r3
    2602:	dd02      	ble.n	260a <__s2b+0x24>
    2604:	005b      	lsls	r3, r3, #1
    2606:	3101      	adds	r1, #1
    2608:	e7fa      	b.n	2600 <__s2b+0x1a>
    260a:	4630      	mov	r0, r6
    260c:	f7ff ff65 	bl	24da <_Balloc>
    2610:	9b08      	ldr	r3, [sp, #32]
    2612:	2c09      	cmp	r4, #9
    2614:	6143      	str	r3, [r0, #20]
    2616:	f04f 0301 	mov.w	r3, #1
    261a:	4601      	mov	r1, r0
    261c:	6103      	str	r3, [r0, #16]
    261e:	dd11      	ble.n	2644 <__s2b+0x5e>
    2620:	f105 0909 	add.w	r9, r5, #9
    2624:	464f      	mov	r7, r9
    2626:	4425      	add	r5, r4
    2628:	f817 3b01 	ldrb.w	r3, [r7], #1
    262c:	4630      	mov	r0, r6
    262e:	220a      	movs	r2, #10
    2630:	3b30      	subs	r3, #48	; 0x30
    2632:	f7ff ff9e 	bl	2572 <__multadd>
    2636:	42af      	cmp	r7, r5
    2638:	4601      	mov	r1, r0
    263a:	d1f5      	bne.n	2628 <__s2b+0x42>
    263c:	eb09 0704 	add.w	r7, r9, r4
    2640:	3f08      	subs	r7, #8
    2642:	e002      	b.n	264a <__s2b+0x64>
    2644:	f105 070a 	add.w	r7, r5, #10
    2648:	2409      	movs	r4, #9
    264a:	4625      	mov	r5, r4
    264c:	4545      	cmp	r5, r8
    264e:	da09      	bge.n	2664 <__s2b+0x7e>
    2650:	1b3b      	subs	r3, r7, r4
    2652:	5d5b      	ldrb	r3, [r3, r5]
    2654:	4630      	mov	r0, r6
    2656:	220a      	movs	r2, #10
    2658:	3b30      	subs	r3, #48	; 0x30
    265a:	f7ff ff8a 	bl	2572 <__multadd>
    265e:	3501      	adds	r5, #1
    2660:	4601      	mov	r1, r0
    2662:	e7f3      	b.n	264c <__s2b+0x66>
    2664:	4608      	mov	r0, r1
    2666:	e8bd 83f8 	ldmia.w	sp!, {r3, r4, r5, r6, r7, r8, r9, pc}

0000266a <__hi0bits>:
    266a:	0c03      	lsrs	r3, r0, #16
    266c:	041b      	lsls	r3, r3, #16
    266e:	b913      	cbnz	r3, 2676 <__hi0bits+0xc>
    2670:	0400      	lsls	r0, r0, #16
    2672:	2310      	movs	r3, #16
    2674:	e000      	b.n	2678 <__hi0bits+0xe>
    2676:	2300      	movs	r3, #0
    2678:	f010 4f7f 	tst.w	r0, #4278190080	; 0xff000000
    267c:	bf04      	itt	eq
    267e:	0200      	lsleq	r0, r0, #8
    2680:	3308      	addeq	r3, #8
    2682:	f010 4f70 	tst.w	r0, #4026531840	; 0xf0000000
    2686:	bf04      	itt	eq
    2688:	0100      	lsleq	r0, r0, #4
    268a:	3304      	addeq	r3, #4
    268c:	f010 4f40 	tst.w	r0, #3221225472	; 0xc0000000
    2690:	bf04      	itt	eq
    2692:	0080      	lsleq	r0, r0, #2
    2694:	3302      	addeq	r3, #2
    2696:	2800      	cmp	r0, #0
    2698:	db03      	blt.n	26a2 <__hi0bits+0x38>
    269a:	0042      	lsls	r2, r0, #1
    269c:	d503      	bpl.n	26a6 <__hi0bits+0x3c>
    269e:	1c58      	adds	r0, r3, #1
    26a0:	4770      	bx	lr
    26a2:	4618      	mov	r0, r3
    26a4:	4770      	bx	lr
    26a6:	2020      	movs	r0, #32
    26a8:	4770      	bx	lr

000026aa <__lo0bits>:
    26aa:	6803      	ldr	r3, [r0, #0]
    26ac:	f013 0207 	ands.w	r2, r3, #7
    26b0:	d00b      	beq.n	26ca <__lo0bits+0x20>
    26b2:	07d9      	lsls	r1, r3, #31
    26b4:	d422      	bmi.n	26fc <__lo0bits+0x52>
    26b6:	079a      	lsls	r2, r3, #30
    26b8:	d503      	bpl.n	26c2 <__lo0bits+0x18>
    26ba:	085b      	lsrs	r3, r3, #1
    26bc:	6003      	str	r3, [r0, #0]
    26be:	2001      	movs	r0, #1
    26c0:	4770      	bx	lr
    26c2:	089b      	lsrs	r3, r3, #2
    26c4:	6003      	str	r3, [r0, #0]
    26c6:	2002      	movs	r0, #2
    26c8:	4770      	bx	lr
    26ca:	b299      	uxth	r1, r3
    26cc:	b909      	cbnz	r1, 26d2 <__lo0bits+0x28>
    26ce:	0c1b      	lsrs	r3, r3, #16
    26d0:	2210      	movs	r2, #16
    26d2:	f013 0fff 	tst.w	r3, #255	; 0xff
    26d6:	bf04      	itt	eq
    26d8:	0a1b      	lsreq	r3, r3, #8
    26da:	3208      	addeq	r2, #8
    26dc:	0719      	lsls	r1, r3, #28
    26de:	bf04      	itt	eq
    26e0:	091b      	lsreq	r3, r3, #4
    26e2:	3204      	addeq	r2, #4
    26e4:	0799      	lsls	r1, r3, #30
    26e6:	bf04      	itt	eq
    26e8:	089b      	lsreq	r3, r3, #2
    26ea:	3202      	addeq	r2, #2
    26ec:	07d9      	lsls	r1, r3, #31
    26ee:	d402      	bmi.n	26f6 <__lo0bits+0x4c>
    26f0:	085b      	lsrs	r3, r3, #1
    26f2:	d005      	beq.n	2700 <__lo0bits+0x56>
    26f4:	3201      	adds	r2, #1
    26f6:	6003      	str	r3, [r0, #0]
    26f8:	4610      	mov	r0, r2
    26fa:	4770      	bx	lr
    26fc:	2000      	movs	r0, #0
    26fe:	4770      	bx	lr
    2700:	2020      	movs	r0, #32
    2702:	4770      	bx	lr

00002704 <__i2b>:
    2704:	b510      	push	{r4, lr}
    2706:	460c      	mov	r4, r1
    2708:	2101      	movs	r1, #1
    270a:	f7ff fee6 	bl	24da <_Balloc>
    270e:	2201      	movs	r2, #1
    2710:	6144      	str	r4, [r0, #20]
    2712:	6102      	str	r2, [r0, #16]
    2714:	bd10      	pop	{r4, pc}

00002716 <__multiply>:
    2716:	e92d 4ff0 	stmdb	sp!, {r4, r5, r6, r7, r8, r9, sl, fp, lr}
    271a:	4616      	mov	r6, r2
    271c:	6933      	ldr	r3, [r6, #16]
    271e:	690a      	ldr	r2, [r1, #16]
    2720:	b085      	sub	sp, #20
    2722:	429a      	cmp	r2, r3
    2724:	460d      	mov	r5, r1
    2726:	da01      	bge.n	272c <__multiply+0x16>
    2728:	4635      	mov	r5, r6
    272a:	460e      	mov	r6, r1
    272c:	f8d5 8010 	ldr.w	r8, [r5, #16]
    2730:	6937      	ldr	r7, [r6, #16]
    2732:	68ab      	ldr	r3, [r5, #8]
    2734:	6869      	ldr	r1, [r5, #4]
    2736:	eb08 0407 	add.w	r4, r8, r7
    273a:	429c      	cmp	r4, r3
    273c:	bfc8      	it	gt
    273e:	3101      	addgt	r1, #1
    2740:	f7ff fecb 	bl	24da <_Balloc>
    2744:	f100 0314 	add.w	r3, r0, #20
    2748:	eb03 0184 	add.w	r1, r3, r4, lsl #2
    274c:	9101      	str	r1, [sp, #4]
    274e:	461a      	mov	r2, r3
    2750:	f8dd a004 	ldr.w	sl, [sp, #4]
    2754:	4552      	cmp	r2, sl
    2756:	d203      	bcs.n	2760 <__multiply+0x4a>
    2758:	2100      	movs	r1, #0
    275a:	f842 1b04 	str.w	r1, [r2], #4
    275e:	e7f7      	b.n	2750 <__multiply+0x3a>
    2760:	f105 0114 	add.w	r1, r5, #20
    2764:	f106 0214 	add.w	r2, r6, #20
    2768:	eb01 0888 	add.w	r8, r1, r8, lsl #2
    276c:	eb02 0787 	add.w	r7, r2, r7, lsl #2
    2770:	f8cd 8008 	str.w	r8, [sp, #8]
    2774:	9703      	str	r7, [sp, #12]
    2776:	9e03      	ldr	r6, [sp, #12]
    2778:	4615      	mov	r5, r2
    277a:	42b2      	cmp	r2, r6
    277c:	d256      	bcs.n	282c <__multiply+0x116>
    277e:	f8b5 c000 	ldrh.w	ip, [r5]
    2782:	3204      	adds	r2, #4
    2784:	f1bc 0f00 	cmp.w	ip, #0
    2788:	d025      	beq.n	27d6 <__multiply+0xc0>
    278a:	460f      	mov	r7, r1
    278c:	461d      	mov	r5, r3
    278e:	2600      	movs	r6, #0
    2790:	f857 9b04 	ldr.w	r9, [r7], #4
    2794:	f8d5 8000 	ldr.w	r8, [r5]
    2798:	fa1f fb89 	uxth.w	fp, r9
    279c:	fa1f fa88 	uxth.w	sl, r8
    27a0:	fb0c aa0b 	mla	sl, ip, fp, sl
    27a4:	ea4f 4919 	mov.w	r9, r9, lsr #16
    27a8:	ea4f 4818 	mov.w	r8, r8, lsr #16
    27ac:	fb0c 8809 	mla	r8, ip, r9, r8
    27b0:	44b2      	add	sl, r6
    27b2:	eb08 481a 	add.w	r8, r8, sl, lsr #16
    27b6:	fa1f fa8a 	uxth.w	sl, sl
    27ba:	ea4a 4a08 	orr.w	sl, sl, r8, lsl #16
    27be:	ea4f 4618 	mov.w	r6, r8, lsr #16
    27c2:	f8dd 8008 	ldr.w	r8, [sp, #8]
    27c6:	46ab      	mov	fp, r5
    27c8:	45b8      	cmp	r8, r7
    27ca:	f84b ab04 	str.w	sl, [fp], #4
    27ce:	d901      	bls.n	27d4 <__multiply+0xbe>
    27d0:	465d      	mov	r5, fp
    27d2:	e7dd      	b.n	2790 <__multiply+0x7a>
    27d4:	606e      	str	r6, [r5, #4]
    27d6:	f832 8c02 	ldrh.w	r8, [r2, #-2]
    27da:	f1b8 0f00 	cmp.w	r8, #0
    27de:	d023      	beq.n	2828 <__multiply+0x112>
    27e0:	681e      	ldr	r6, [r3, #0]
    27e2:	460f      	mov	r7, r1
    27e4:	461d      	mov	r5, r3
    27e6:	f04f 0900 	mov.w	r9, #0
    27ea:	f8b7 a000 	ldrh.w	sl, [r7]
    27ee:	f8b5 c002 	ldrh.w	ip, [r5, #2]
    27f2:	b2b6      	uxth	r6, r6
    27f4:	fb08 cc0a 	mla	ip, r8, sl, ip
    27f8:	44e1      	add	r9, ip
    27fa:	ea46 4609 	orr.w	r6, r6, r9, lsl #16
    27fe:	46ac      	mov	ip, r5
    2800:	f84c 6b04 	str.w	r6, [ip], #4
    2804:	f857 6b04 	ldr.w	r6, [r7], #4
    2808:	f8b5 a004 	ldrh.w	sl, [r5, #4]
    280c:	0c36      	lsrs	r6, r6, #16
    280e:	fb08 a606 	mla	r6, r8, r6, sl
    2812:	f8dd a008 	ldr.w	sl, [sp, #8]
    2816:	eb06 4619 	add.w	r6, r6, r9, lsr #16
    281a:	4557      	cmp	r7, sl
    281c:	ea4f 4916 	mov.w	r9, r6, lsr #16
    2820:	d201      	bcs.n	2826 <__multiply+0x110>
    2822:	4665      	mov	r5, ip
    2824:	e7e1      	b.n	27ea <__multiply+0xd4>
    2826:	606e      	str	r6, [r5, #4]
    2828:	3304      	adds	r3, #4
    282a:	e7a4      	b.n	2776 <__multiply+0x60>
    282c:	9b01      	ldr	r3, [sp, #4]
    282e:	2c00      	cmp	r4, #0
    2830:	dc03      	bgt.n	283a <__multiply+0x124>
    2832:	6104      	str	r4, [r0, #16]
    2834:	b005      	add	sp, #20
    2836:	e8bd 8ff0 	ldmia.w	sp!, {r4, r5, r6, r7, r8, r9, sl, fp, pc}
    283a:	f853 2d04 	ldr.w	r2, [r3, #-4]!
    283e:	2a00      	cmp	r2, #0
    2840:	d1f7      	bne.n	2832 <__multiply+0x11c>
    2842:	3c01      	subs	r4, #1
    2844:	e7f3      	b.n	282e <__multiply+0x118>
	...

00002848 <__pow5mult>:
    2848:	f012 0303 	ands.w	r3, r2, #3
    284c:	e92d 41f0 	stmdb	sp!, {r4, r5, r6, r7, r8, lr}
    2850:	4605      	mov	r5, r0
    2852:	460e      	mov	r6, r1
    2854:	4617      	mov	r7, r2
    2856:	d007      	beq.n	2868 <__pow5mult+0x20>
    2858:	4a21      	ldr	r2, [pc, #132]	; (28e0 <__pow5mult+0x98>)
    285a:	3b01      	subs	r3, #1
    285c:	f852 2023 	ldr.w	r2, [r2, r3, lsl #2]
    2860:	2300      	movs	r3, #0
    2862:	f7ff fe86 	bl	2572 <__multadd>
    2866:	4606      	mov	r6, r0
    2868:	10bf      	asrs	r7, r7, #2
    286a:	d035      	beq.n	28d8 <__pow5mult+0x90>
    286c:	6a6c      	ldr	r4, [r5, #36]	; 0x24
    286e:	b93c      	cbnz	r4, 2880 <__pow5mult+0x38>
    2870:	2010      	movs	r0, #16
    2872:	f7fd fed1 	bl	618 <malloc>
    2876:	6268      	str	r0, [r5, #36]	; 0x24
    2878:	6044      	str	r4, [r0, #4]
    287a:	6084      	str	r4, [r0, #8]
    287c:	6004      	str	r4, [r0, #0]
    287e:	60c4      	str	r4, [r0, #12]
    2880:	f8d5 8024 	ldr.w	r8, [r5, #36]	; 0x24
    2884:	f8d8 4008 	ldr.w	r4, [r8, #8]
    2888:	b97c      	cbnz	r4, 28aa <__pow5mult+0x62>
    288a:	4628      	mov	r0, r5
    288c:	f240 2171 	movw	r1, #625	; 0x271
    2890:	f7ff ff38 	bl	2704 <__i2b>
    2894:	2300      	movs	r3, #0
    2896:	f8c8 0008 	str.w	r0, [r8, #8]
    289a:	4604      	mov	r4, r0
    289c:	6003      	str	r3, [r0, #0]
    289e:	e004      	b.n	28aa <__pow5mult+0x62>
    28a0:	107f      	asrs	r7, r7, #1
    28a2:	d019      	beq.n	28d8 <__pow5mult+0x90>
    28a4:	6820      	ldr	r0, [r4, #0]
    28a6:	b170      	cbz	r0, 28c6 <__pow5mult+0x7e>
    28a8:	4604      	mov	r4, r0
    28aa:	07fb      	lsls	r3, r7, #31
    28ac:	d5f8      	bpl.n	28a0 <__pow5mult+0x58>
    28ae:	4631      	mov	r1, r6
    28b0:	4622      	mov	r2, r4
    28b2:	4628      	mov	r0, r5
    28b4:	f7ff ff2f 	bl	2716 <__multiply>
    28b8:	4631      	mov	r1, r6
    28ba:	4680      	mov	r8, r0
    28bc:	4628      	mov	r0, r5
    28be:	f7ff fe41 	bl	2544 <_Bfree>
    28c2:	4646      	mov	r6, r8
    28c4:	e7ec      	b.n	28a0 <__pow5mult+0x58>
    28c6:	4628      	mov	r0, r5
    28c8:	4621      	mov	r1, r4
    28ca:	4622      	mov	r2, r4
    28cc:	f7ff ff23 	bl	2716 <__multiply>
    28d0:	2300      	movs	r3, #0
    28d2:	6020      	str	r0, [r4, #0]
    28d4:	6003      	str	r3, [r0, #0]
    28d6:	e7e7      	b.n	28a8 <__pow5mult+0x60>
    28d8:	4630      	mov	r0, r6
    28da:	e8bd 81f0 	ldmia.w	sp!, {r4, r5, r6, r7, r8, pc}
    28de:	bf00      	nop
    28e0:	00004d50 	andeq	r4, r0, r0, asr sp

000028e4 <__lshift>:
    28e4:	e92d 47f0 	stmdb	sp!, {r4, r5, r6, r7, r8, r9, sl, lr}
    28e8:	460c      	mov	r4, r1
    28ea:	6923      	ldr	r3, [r4, #16]
    28ec:	ea4f 1a62 	mov.w	sl, r2, asr #5
    28f0:	eb0a 0903 	add.w	r9, sl, r3
    28f4:	6849      	ldr	r1, [r1, #4]
    28f6:	68a3      	ldr	r3, [r4, #8]
    28f8:	4680      	mov	r8, r0
    28fa:	4615      	mov	r5, r2
    28fc:	f109 0701 	add.w	r7, r9, #1
    2900:	429f      	cmp	r7, r3
    2902:	dd02      	ble.n	290a <__lshift+0x26>
    2904:	3101      	adds	r1, #1
    2906:	005b      	lsls	r3, r3, #1
    2908:	e7fa      	b.n	2900 <__lshift+0x1c>
    290a:	4640      	mov	r0, r8
    290c:	f7ff fde5 	bl	24da <_Balloc>
    2910:	2300      	movs	r3, #0
    2912:	4606      	mov	r6, r0
    2914:	f100 0214 	add.w	r2, r0, #20
    2918:	4553      	cmp	r3, sl
    291a:	da04      	bge.n	2926 <__lshift+0x42>
    291c:	2100      	movs	r1, #0
    291e:	f842 1023 	str.w	r1, [r2, r3, lsl #2]
    2922:	3301      	adds	r3, #1
    2924:	e7f8      	b.n	2918 <__lshift+0x34>
    2926:	6920      	ldr	r0, [r4, #16]
    2928:	ea2a 71ea 	bic.w	r1, sl, sl, asr #31
    292c:	f104 0314 	add.w	r3, r4, #20
    2930:	f015 0c1f 	ands.w	ip, r5, #31
    2934:	eb02 0181 	add.w	r1, r2, r1, lsl #2
    2938:	eb03 0e80 	add.w	lr, r3, r0, lsl #2
    293c:	d016      	beq.n	296c <__lshift+0x88>
    293e:	f1cc 0a20 	rsb	sl, ip, #32
    2942:	2500      	movs	r5, #0
    2944:	6818      	ldr	r0, [r3, #0]
    2946:	460a      	mov	r2, r1
    2948:	fa00 f00c 	lsl.w	r0, r0, ip
    294c:	4305      	orrs	r5, r0
    294e:	f842 5b04 	str.w	r5, [r2], #4
    2952:	f853 5b04 	ldr.w	r5, [r3], #4
    2956:	4573      	cmp	r3, lr
    2958:	fa25 f50a 	lsr.w	r5, r5, sl
    295c:	d201      	bcs.n	2962 <__lshift+0x7e>
    295e:	4611      	mov	r1, r2
    2960:	e7f0      	b.n	2944 <__lshift+0x60>
    2962:	604d      	str	r5, [r1, #4]
    2964:	b145      	cbz	r5, 2978 <__lshift+0x94>
    2966:	f109 0702 	add.w	r7, r9, #2
    296a:	e005      	b.n	2978 <__lshift+0x94>
    296c:	f853 2b04 	ldr.w	r2, [r3], #4
    2970:	4573      	cmp	r3, lr
    2972:	f841 2b04 	str.w	r2, [r1], #4
    2976:	d3f9      	bcc.n	296c <__lshift+0x88>
    2978:	3f01      	subs	r7, #1
    297a:	4640      	mov	r0, r8
    297c:	6137      	str	r7, [r6, #16]
    297e:	4621      	mov	r1, r4
    2980:	f7ff fde0 	bl	2544 <_Bfree>
    2984:	4630      	mov	r0, r6
    2986:	e8bd 87f0 	ldmia.w	sp!, {r4, r5, r6, r7, r8, r9, sl, pc}

0000298a <__mcmp>:
    298a:	6902      	ldr	r2, [r0, #16]
    298c:	690b      	ldr	r3, [r1, #16]
    298e:	b510      	push	{r4, lr}
    2990:	1ad2      	subs	r2, r2, r3
    2992:	d113      	bne.n	29bc <__mcmp+0x32>
    2994:	009c      	lsls	r4, r3, #2
    2996:	3014      	adds	r0, #20
    2998:	f101 0214 	add.w	r2, r1, #20
    299c:	1903      	adds	r3, r0, r4
    299e:	4422      	add	r2, r4
    29a0:	f853 4d04 	ldr.w	r4, [r3, #-4]!
    29a4:	f852 1d04 	ldr.w	r1, [r2, #-4]!
    29a8:	428c      	cmp	r4, r1
    29aa:	d003      	beq.n	29b4 <__mcmp+0x2a>
    29ac:	d208      	bcs.n	29c0 <__mcmp+0x36>
    29ae:	f04f 30ff 	mov.w	r0, #4294967295	; 0xffffffff
    29b2:	bd10      	pop	{r4, pc}
    29b4:	4298      	cmp	r0, r3
    29b6:	d3f3      	bcc.n	29a0 <__mcmp+0x16>
    29b8:	2000      	movs	r0, #0
    29ba:	bd10      	pop	{r4, pc}
    29bc:	4610      	mov	r0, r2
    29be:	bd10      	pop	{r4, pc}
    29c0:	2001      	movs	r0, #1
    29c2:	bd10      	pop	{r4, pc}

000029c4 <__mdiff>:
    29c4:	e92d 47f0 	stmdb	sp!, {r4, r5, r6, r7, r8, r9, sl, lr}
    29c8:	4606      	mov	r6, r0
    29ca:	460c      	mov	r4, r1
    29cc:	4608      	mov	r0, r1
    29ce:	4611      	mov	r1, r2
    29d0:	4615      	mov	r5, r2
    29d2:	f7ff ffda 	bl	298a <__mcmp>
    29d6:	1e07      	subs	r7, r0, #0
    29d8:	d108      	bne.n	29ec <__mdiff+0x28>
    29da:	4630      	mov	r0, r6
    29dc:	4639      	mov	r1, r7
    29de:	f7ff fd7c 	bl	24da <_Balloc>
    29e2:	2301      	movs	r3, #1
    29e4:	6103      	str	r3, [r0, #16]
    29e6:	6147      	str	r7, [r0, #20]
    29e8:	e8bd 87f0 	ldmia.w	sp!, {r4, r5, r6, r7, r8, r9, sl, pc}
    29ec:	db01      	blt.n	29f2 <__mdiff+0x2e>
    29ee:	2700      	movs	r7, #0
    29f0:	e003      	b.n	29fa <__mdiff+0x36>
    29f2:	4623      	mov	r3, r4
    29f4:	2701      	movs	r7, #1
    29f6:	462c      	mov	r4, r5
    29f8:	461d      	mov	r5, r3
    29fa:	6861      	ldr	r1, [r4, #4]
    29fc:	4630      	mov	r0, r6
    29fe:	f7ff fd6c 	bl	24da <_Balloc>
    2a02:	6922      	ldr	r2, [r4, #16]
    2a04:	692b      	ldr	r3, [r5, #16]
    2a06:	3414      	adds	r4, #20
    2a08:	f105 0614 	add.w	r6, r5, #20
    2a0c:	eb06 0a83 	add.w	sl, r6, r3, lsl #2
    2a10:	60c7      	str	r7, [r0, #12]
    2a12:	eb04 0c82 	add.w	ip, r4, r2, lsl #2
    2a16:	f100 0314 	add.w	r3, r0, #20
    2a1a:	2100      	movs	r1, #0
    2a1c:	f854 7b04 	ldr.w	r7, [r4], #4
    2a20:	f856 9b04 	ldr.w	r9, [r6], #4
    2a24:	fa1f f887 	uxth.w	r8, r7
    2a28:	fa1f f589 	uxth.w	r5, r9
    2a2c:	4441      	add	r1, r8
    2a2e:	ea4f 4919 	mov.w	r9, r9, lsr #16
    2a32:	ebc5 0801 	rsb	r8, r5, r1
    2a36:	ebc9 4717 	rsb	r7, r9, r7, lsr #16
    2a3a:	eb07 4728 	add.w	r7, r7, r8, asr #16
    2a3e:	fa1f f888 	uxth.w	r8, r8
    2a42:	1439      	asrs	r1, r7, #16
    2a44:	45b2      	cmp	sl, r6
    2a46:	ea48 4707 	orr.w	r7, r8, r7, lsl #16
    2a4a:	4625      	mov	r5, r4
    2a4c:	f843 7b04 	str.w	r7, [r3], #4
    2a50:	d8e4      	bhi.n	2a1c <__mdiff+0x58>
    2a52:	4565      	cmp	r5, ip
    2a54:	d20d      	bcs.n	2a72 <__mdiff+0xae>
    2a56:	f855 4b04 	ldr.w	r4, [r5], #4
    2a5a:	b2a6      	uxth	r6, r4
    2a5c:	440e      	add	r6, r1
    2a5e:	0c24      	lsrs	r4, r4, #16
    2a60:	eb04 4426 	add.w	r4, r4, r6, asr #16
    2a64:	b2b6      	uxth	r6, r6
    2a66:	1421      	asrs	r1, r4, #16
    2a68:	ea46 4404 	orr.w	r4, r6, r4, lsl #16
    2a6c:	f843 4b04 	str.w	r4, [r3], #4
    2a70:	e7ef      	b.n	2a52 <__mdiff+0x8e>
    2a72:	f853 1d04 	ldr.w	r1, [r3, #-4]!
    2a76:	b909      	cbnz	r1, 2a7c <__mdiff+0xb8>
    2a78:	3a01      	subs	r2, #1
    2a7a:	e7fa      	b.n	2a72 <__mdiff+0xae>
    2a7c:	6102      	str	r2, [r0, #16]
    2a7e:	e8bd 87f0 	ldmia.w	sp!, {r4, r5, r6, r7, r8, r9, sl, pc}
	...

00002a84 <__ulp>:
    2a84:	4b0f      	ldr	r3, [pc, #60]	; (2ac4 <__ulp+0x40>)
    2a86:	400b      	ands	r3, r1
    2a88:	f1a3 7350 	sub.w	r3, r3, #54525952	; 0x3400000
    2a8c:	2b00      	cmp	r3, #0
    2a8e:	dd01      	ble.n	2a94 <__ulp+0x10>
    2a90:	4619      	mov	r1, r3
    2a92:	e009      	b.n	2aa8 <__ulp+0x24>
    2a94:	425b      	negs	r3, r3
    2a96:	151b      	asrs	r3, r3, #20
    2a98:	2b13      	cmp	r3, #19
    2a9a:	f04f 0100 	mov.w	r1, #0
    2a9e:	dc05      	bgt.n	2aac <__ulp+0x28>
    2aa0:	f44f 2200 	mov.w	r2, #524288	; 0x80000
    2aa4:	fa42 f103 	asr.w	r1, r2, r3
    2aa8:	2000      	movs	r0, #0
    2aaa:	4770      	bx	lr
    2aac:	2b32      	cmp	r3, #50	; 0x32
    2aae:	f04f 0201 	mov.w	r2, #1
    2ab2:	bfda      	itte	le
    2ab4:	f1c3 0333 	rsble	r3, r3, #51	; 0x33
    2ab8:	fa02 f303 	lslle.w	r3, r2, r3
    2abc:	4613      	movgt	r3, r2
    2abe:	4618      	mov	r0, r3
    2ac0:	4770      	bx	lr
    2ac2:	bf00      	nop
    2ac4:	7ff00000 	svcvc	0x00f00000	; IMB

00002ac8 <__b2d>:
    2ac8:	e92d 41f0 	stmdb	sp!, {r4, r5, r6, r7, r8, lr}
    2acc:	6906      	ldr	r6, [r0, #16]
    2ace:	f100 0714 	add.w	r7, r0, #20
    2ad2:	eb07 0686 	add.w	r6, r7, r6, lsl #2
    2ad6:	f856 4c04 	ldr.w	r4, [r6, #-4]
    2ada:	4688      	mov	r8, r1
    2adc:	4620      	mov	r0, r4
    2ade:	f7ff fdc4 	bl	266a <__hi0bits>
    2ae2:	f1c0 0320 	rsb	r3, r0, #32
    2ae6:	280a      	cmp	r0, #10
    2ae8:	f1a6 0504 	sub.w	r5, r6, #4
    2aec:	f8c8 3000 	str.w	r3, [r8]
    2af0:	dc14      	bgt.n	2b1c <__b2d+0x54>
    2af2:	42bd      	cmp	r5, r7
    2af4:	f1c0 010b 	rsb	r1, r0, #11
    2af8:	bf88      	it	hi
    2afa:	f856 5c08 	ldrhi.w	r5, [r6, #-8]
    2afe:	fa24 fc01 	lsr.w	ip, r4, r1
    2b02:	bf98      	it	ls
    2b04:	2500      	movls	r5, #0
    2b06:	3015      	adds	r0, #21
    2b08:	fa25 f101 	lsr.w	r1, r5, r1
    2b0c:	4084      	lsls	r4, r0
    2b0e:	f04c 537f 	orr.w	r3, ip, #1069547520	; 0x3fc00000
    2b12:	f443 1340 	orr.w	r3, r3, #3145728	; 0x300000
    2b16:	ea41 0204 	orr.w	r2, r1, r4
    2b1a:	e024      	b.n	2b66 <__b2d+0x9e>
    2b1c:	42bd      	cmp	r5, r7
    2b1e:	bf86      	itte	hi
    2b20:	f1a6 0508 	subhi.w	r5, r6, #8
    2b24:	f856 1c08 	ldrhi.w	r1, [r6, #-8]
    2b28:	2100      	movls	r1, #0
    2b2a:	f1b0 060b 	subs.w	r6, r0, #11
    2b2e:	d015      	beq.n	2b5c <__b2d+0x94>
    2b30:	40b4      	lsls	r4, r6
    2b32:	f1c0 002b 	rsb	r0, r0, #43	; 0x2b
    2b36:	fa21 fc00 	lsr.w	ip, r1, r0
    2b3a:	f044 547f 	orr.w	r4, r4, #1069547520	; 0x3fc00000
    2b3e:	f444 1440 	orr.w	r4, r4, #3145728	; 0x300000
    2b42:	42bd      	cmp	r5, r7
    2b44:	ea44 030c 	orr.w	r3, r4, ip
    2b48:	bf8c      	ite	hi
    2b4a:	f855 4c04 	ldrhi.w	r4, [r5, #-4]
    2b4e:	2400      	movls	r4, #0
    2b50:	fa24 f000 	lsr.w	r0, r4, r0
    2b54:	40b1      	lsls	r1, r6
    2b56:	ea40 0201 	orr.w	r2, r0, r1
    2b5a:	e004      	b.n	2b66 <__b2d+0x9e>
    2b5c:	f044 537f 	orr.w	r3, r4, #1069547520	; 0x3fc00000
    2b60:	f443 1340 	orr.w	r3, r3, #3145728	; 0x300000
    2b64:	460a      	mov	r2, r1
    2b66:	4610      	mov	r0, r2
    2b68:	4619      	mov	r1, r3
    2b6a:	e8bd 81f0 	ldmia.w	sp!, {r4, r5, r6, r7, r8, pc}

00002b6e <__d2b>:
    2b6e:	e92d 43f7 	stmdb	sp!, {r0, r1, r2, r4, r5, r6, r7, r8, r9, lr}
    2b72:	2101      	movs	r1, #1
    2b74:	461d      	mov	r5, r3
    2b76:	f8dd 9028 	ldr.w	r9, [sp, #40]	; 0x28
    2b7a:	f8dd 802c 	ldr.w	r8, [sp, #44]	; 0x2c
    2b7e:	4614      	mov	r4, r2
    2b80:	f7ff fcab 	bl	24da <_Balloc>
    2b84:	f3c5 570a 	ubfx	r7, r5, #20, #11
    2b88:	4606      	mov	r6, r0
    2b8a:	f3c5 0313 	ubfx	r3, r5, #0, #20
    2b8e:	b10f      	cbz	r7, 2b94 <__d2b+0x26>
    2b90:	f443 1380 	orr.w	r3, r3, #1048576	; 0x100000
    2b94:	9301      	str	r3, [sp, #4]
    2b96:	b1d4      	cbz	r4, 2bce <__d2b+0x60>
    2b98:	a802      	add	r0, sp, #8
    2b9a:	f840 4d08 	str.w	r4, [r0, #-8]!
    2b9e:	4668      	mov	r0, sp
    2ba0:	f7ff fd83 	bl	26aa <__lo0bits>
    2ba4:	9b00      	ldr	r3, [sp, #0]
    2ba6:	b148      	cbz	r0, 2bbc <__d2b+0x4e>
    2ba8:	9a01      	ldr	r2, [sp, #4]
    2baa:	f1c0 0120 	rsb	r1, r0, #32
    2bae:	fa02 f101 	lsl.w	r1, r2, r1
    2bb2:	40c2      	lsrs	r2, r0
    2bb4:	430b      	orrs	r3, r1
    2bb6:	6173      	str	r3, [r6, #20]
    2bb8:	9201      	str	r2, [sp, #4]
    2bba:	e000      	b.n	2bbe <__d2b+0x50>
    2bbc:	6173      	str	r3, [r6, #20]
    2bbe:	9b01      	ldr	r3, [sp, #4]
    2bc0:	2b00      	cmp	r3, #0
    2bc2:	bf0c      	ite	eq
    2bc4:	2401      	moveq	r4, #1
    2bc6:	2402      	movne	r4, #2
    2bc8:	61b3      	str	r3, [r6, #24]
    2bca:	6134      	str	r4, [r6, #16]
    2bcc:	e007      	b.n	2bde <__d2b+0x70>
    2bce:	a801      	add	r0, sp, #4
    2bd0:	f7ff fd6b 	bl	26aa <__lo0bits>
    2bd4:	9b01      	ldr	r3, [sp, #4]
    2bd6:	2401      	movs	r4, #1
    2bd8:	6173      	str	r3, [r6, #20]
    2bda:	6134      	str	r4, [r6, #16]
    2bdc:	3020      	adds	r0, #32
    2bde:	b13f      	cbz	r7, 2bf0 <__d2b+0x82>
    2be0:	f2a7 4733 	subw	r7, r7, #1075	; 0x433
    2be4:	4407      	add	r7, r0
    2be6:	f8c9 7000 	str.w	r7, [r9]
    2bea:	f1c0 0035 	rsb	r0, r0, #53	; 0x35
    2bee:	e00a      	b.n	2c06 <__d2b+0x98>
    2bf0:	f2a0 4032 	subw	r0, r0, #1074	; 0x432
    2bf4:	eb06 0384 	add.w	r3, r6, r4, lsl #2
    2bf8:	f8c9 0000 	str.w	r0, [r9]
    2bfc:	6918      	ldr	r0, [r3, #16]
    2bfe:	f7ff fd34 	bl	266a <__hi0bits>
    2c02:	ebc0 1044 	rsb	r0, r0, r4, lsl #5
    2c06:	f8c8 0000 	str.w	r0, [r8]
    2c0a:	4630      	mov	r0, r6
    2c0c:	b003      	add	sp, #12
    2c0e:	e8bd 83f0 	ldmia.w	sp!, {r4, r5, r6, r7, r8, r9, pc}

00002c12 <__ratio>:
    2c12:	e92d 41f3 	stmdb	sp!, {r0, r1, r4, r5, r6, r7, r8, lr}
    2c16:	460e      	mov	r6, r1
    2c18:	4669      	mov	r1, sp
    2c1a:	4680      	mov	r8, r0
    2c1c:	f7ff ff54 	bl	2ac8 <__b2d>
    2c20:	460d      	mov	r5, r1
    2c22:	4604      	mov	r4, r0
    2c24:	a901      	add	r1, sp, #4
    2c26:	4630      	mov	r0, r6
    2c28:	f7ff ff4e 	bl	2ac8 <__b2d>
    2c2c:	9f00      	ldr	r7, [sp, #0]
    2c2e:	460b      	mov	r3, r1
    2c30:	9901      	ldr	r1, [sp, #4]
    2c32:	4602      	mov	r2, r0
    2c34:	1a7f      	subs	r7, r7, r1
    2c36:	f8d8 0010 	ldr.w	r0, [r8, #16]
    2c3a:	6931      	ldr	r1, [r6, #16]
    2c3c:	1a41      	subs	r1, r0, r1
    2c3e:	eb07 1141 	add.w	r1, r7, r1, lsl #5
    2c42:	2900      	cmp	r1, #0
    2c44:	bfcc      	ite	gt
    2c46:	eb05 5501 	addgt.w	r5, r5, r1, lsl #20
    2c4a:	eba3 5301 	suble.w	r3, r3, r1, lsl #20
    2c4e:	4620      	mov	r0, r4
    2c50:	4629      	mov	r1, r5
    2c52:	f001 fcf5 	bl	4640 <__aeabi_ddiv>
    2c56:	b002      	add	sp, #8
    2c58:	e8bd 81f0 	ldmia.w	sp!, {r4, r5, r6, r7, r8, pc}

00002c5c <__copybits>:
    2c5c:	b510      	push	{r4, lr}
    2c5e:	3901      	subs	r1, #1
    2c60:	f102 0314 	add.w	r3, r2, #20
    2c64:	1149      	asrs	r1, r1, #5
    2c66:	6912      	ldr	r2, [r2, #16]
    2c68:	3101      	adds	r1, #1
    2c6a:	eb00 0181 	add.w	r1, r0, r1, lsl #2
    2c6e:	eb03 0282 	add.w	r2, r3, r2, lsl #2
    2c72:	4293      	cmp	r3, r2
    2c74:	d204      	bcs.n	2c80 <__copybits+0x24>
    2c76:	f853 4b04 	ldr.w	r4, [r3], #4
    2c7a:	f840 4b04 	str.w	r4, [r0], #4
    2c7e:	e7f8      	b.n	2c72 <__copybits+0x16>
    2c80:	4288      	cmp	r0, r1
    2c82:	d203      	bcs.n	2c8c <__copybits+0x30>
    2c84:	2300      	movs	r3, #0
    2c86:	f840 3b04 	str.w	r3, [r0], #4
    2c8a:	e7f9      	b.n	2c80 <__copybits+0x24>
    2c8c:	bd10      	pop	{r4, pc}

00002c8e <__any_on>:
    2c8e:	f100 0214 	add.w	r2, r0, #20
    2c92:	6900      	ldr	r0, [r0, #16]
    2c94:	114b      	asrs	r3, r1, #5
    2c96:	4283      	cmp	r3, r0
    2c98:	b510      	push	{r4, lr}
    2c9a:	dc0c      	bgt.n	2cb6 <__any_on+0x28>
    2c9c:	da0c      	bge.n	2cb8 <__any_on+0x2a>
    2c9e:	f011 011f 	ands.w	r1, r1, #31
    2ca2:	d009      	beq.n	2cb8 <__any_on+0x2a>
    2ca4:	f852 0023 	ldr.w	r0, [r2, r3, lsl #2]
    2ca8:	fa20 f401 	lsr.w	r4, r0, r1
    2cac:	fa04 f101 	lsl.w	r1, r4, r1
    2cb0:	4281      	cmp	r1, r0
    2cb2:	d10e      	bne.n	2cd2 <__any_on+0x44>
    2cb4:	e000      	b.n	2cb8 <__any_on+0x2a>
    2cb6:	4603      	mov	r3, r0
    2cb8:	eb02 0383 	add.w	r3, r2, r3, lsl #2
    2cbc:	4293      	cmp	r3, r2
    2cbe:	4619      	mov	r1, r3
    2cc0:	d905      	bls.n	2cce <__any_on+0x40>
    2cc2:	f851 1c04 	ldr.w	r1, [r1, #-4]
    2cc6:	3b04      	subs	r3, #4
    2cc8:	2900      	cmp	r1, #0
    2cca:	d0f7      	beq.n	2cbc <__any_on+0x2e>
    2ccc:	e001      	b.n	2cd2 <__any_on+0x44>
    2cce:	2000      	movs	r0, #0
    2cd0:	bd10      	pop	{r4, pc}
    2cd2:	2001      	movs	r0, #1
    2cd4:	bd10      	pop	{r4, pc}

00002cd6 <_calloc_r>:
    2cd6:	b538      	push	{r3, r4, r5, lr}
    2cd8:	fb02 f401 	mul.w	r4, r2, r1
    2cdc:	4621      	mov	r1, r4
    2cde:	f7fd fcf9 	bl	6d4 <_malloc_r>
    2ce2:	4605      	mov	r5, r0
    2ce4:	b118      	cbz	r0, 2cee <_calloc_r+0x18>
    2ce6:	2100      	movs	r1, #0
    2ce8:	4622      	mov	r2, r4
    2cea:	f7fd fca6 	bl	63a <memset>
    2cee:	4628      	mov	r0, r5
    2cf0:	bd38      	pop	{r3, r4, r5, pc}

00002cf2 <_realloc_r>:
    2cf2:	b5f8      	push	{r3, r4, r5, r6, r7, lr}
    2cf4:	4606      	mov	r6, r0
    2cf6:	4614      	mov	r4, r2
    2cf8:	460d      	mov	r5, r1
    2cfa:	b921      	cbnz	r1, 2d06 <_realloc_r+0x14>
    2cfc:	4611      	mov	r1, r2
    2cfe:	e8bd 40f8 	ldmia.w	sp!, {r3, r4, r5, r6, r7, lr}
    2d02:	f7fd bce7 	b.w	6d4 <_malloc_r>
    2d06:	b91a      	cbnz	r2, 2d10 <_realloc_r+0x1e>
    2d08:	f7fd fca0 	bl	64c <_free_r>
    2d0c:	4620      	mov	r0, r4
    2d0e:	bdf8      	pop	{r3, r4, r5, r6, r7, pc}
    2d10:	f001 f9aa 	bl	4068 <_malloc_usable_size_r>
    2d14:	42a0      	cmp	r0, r4
    2d16:	d20e      	bcs.n	2d36 <_realloc_r+0x44>
    2d18:	4630      	mov	r0, r6
    2d1a:	4621      	mov	r1, r4
    2d1c:	f7fd fcda 	bl	6d4 <_malloc_r>
    2d20:	4607      	mov	r7, r0
    2d22:	b150      	cbz	r0, 2d3a <_realloc_r+0x48>
    2d24:	4629      	mov	r1, r5
    2d26:	4622      	mov	r2, r4
    2d28:	f7fd fc7e 	bl	628 <memcpy>
    2d2c:	4630      	mov	r0, r6
    2d2e:	4629      	mov	r1, r5
    2d30:	f7fd fc8c 	bl	64c <_free_r>
    2d34:	e001      	b.n	2d3a <_realloc_r+0x48>
    2d36:	4628      	mov	r0, r5
    2d38:	bdf8      	pop	{r3, r4, r5, r6, r7, pc}
    2d3a:	4638      	mov	r0, r7
    2d3c:	bdf8      	pop	{r3, r4, r5, r6, r7, pc}
	...

00002d40 <__fpclassifyd>:
    2d40:	f031 4300 	bics.w	r3, r1, #2147483648	; 0x80000000
    2d44:	b510      	push	{r4, lr}
    2d46:	d100      	bne.n	2d4a <__fpclassifyd+0xa>
    2d48:	b178      	cbz	r0, 2d6a <__fpclassifyd+0x2a>
    2d4a:	4a0c      	ldr	r2, [pc, #48]	; (2d7c <__fpclassifyd+0x3c>)
    2d4c:	f5a3 1480 	sub.w	r4, r3, #1048576	; 0x100000
    2d50:	4294      	cmp	r4, r2
    2d52:	d90c      	bls.n	2d6e <__fpclassifyd+0x2e>
    2d54:	f5b3 1f80 	cmp.w	r3, #1048576	; 0x100000
    2d58:	d30b      	bcc.n	2d72 <__fpclassifyd+0x32>
    2d5a:	4a09      	ldr	r2, [pc, #36]	; (2d80 <__fpclassifyd+0x40>)
    2d5c:	4293      	cmp	r3, r2
    2d5e:	d10a      	bne.n	2d76 <__fpclassifyd+0x36>
    2d60:	f1d0 0001 	rsbs	r0, r0, #1
    2d64:	bf38      	it	cc
    2d66:	2000      	movcc	r0, #0
    2d68:	bd10      	pop	{r4, pc}
    2d6a:	2002      	movs	r0, #2
    2d6c:	bd10      	pop	{r4, pc}
    2d6e:	2004      	movs	r0, #4
    2d70:	bd10      	pop	{r4, pc}
    2d72:	2003      	movs	r0, #3
    2d74:	bd10      	pop	{r4, pc}
    2d76:	2000      	movs	r0, #0
    2d78:	bd10      	pop	{r4, pc}
    2d7a:	bf00      	nop
    2d7c:	7fdfffff 	svcvc	0x00dfffff
    2d80:	7ff00000 	svcvc	0x00f00000	; IMB

00002d84 <nanf>:
    2d84:	4800      	ldr	r0, [pc, #0]	; (2d88 <nanf+0x4>)
    2d86:	4770      	bx	lr
    2d88:	7fc00000 	svcvc	0x00c00000

00002d8c <match>:
    2d8c:	b530      	push	{r4, r5, lr}
    2d8e:	6802      	ldr	r2, [r0, #0]
    2d90:	f811 5b01 	ldrb.w	r5, [r1], #1
    2d94:	1c54      	adds	r4, r2, #1
    2d96:	b155      	cbz	r5, 2dae <match+0x22>
    2d98:	7853      	ldrb	r3, [r2, #1]
    2d9a:	4622      	mov	r2, r4
    2d9c:	f1a3 0441 	sub.w	r4, r3, #65	; 0x41
    2da0:	2c19      	cmp	r4, #25
    2da2:	bf98      	it	ls
    2da4:	3320      	addls	r3, #32
    2da6:	42ab      	cmp	r3, r5
    2da8:	d0f2      	beq.n	2d90 <match+0x4>
    2daa:	2000      	movs	r0, #0
    2dac:	bd30      	pop	{r4, r5, pc}
    2dae:	6004      	str	r4, [r0, #0]
    2db0:	2001      	movs	r0, #1
    2db2:	bd30      	pop	{r4, r5, pc}

00002db4 <sulp>:
    2db4:	e92d 41f0 	stmdb	sp!, {r4, r5, r6, r7, r8, lr}
    2db8:	460d      	mov	r5, r1
    2dba:	4690      	mov	r8, r2
    2dbc:	f7ff fe62 	bl	2a84 <__ulp>
    2dc0:	4606      	mov	r6, r0
    2dc2:	460f      	mov	r7, r1
    2dc4:	f1b8 0f00 	cmp.w	r8, #0
    2dc8:	d00f      	beq.n	2dea <sulp+0x36>
    2dca:	f3c5 530a 	ubfx	r3, r5, #20, #11
    2dce:	f1c3 036b 	rsb	r3, r3, #107	; 0x6b
    2dd2:	2b00      	cmp	r3, #0
    2dd4:	dd09      	ble.n	2dea <sulp+0x36>
    2dd6:	051c      	lsls	r4, r3, #20
    2dd8:	f104 537f 	add.w	r3, r4, #1069547520	; 0x3fc00000
    2ddc:	f503 1340 	add.w	r3, r3, #3145728	; 0x300000
    2de0:	2200      	movs	r2, #0
    2de2:	f001 fb03 	bl	43ec <__aeabi_dmul>
    2de6:	e8bd 81f0 	ldmia.w	sp!, {r4, r5, r6, r7, r8, pc}
    2dea:	4630      	mov	r0, r6
    2dec:	4639      	mov	r1, r7
    2dee:	e8bd 81f0 	ldmia.w	sp!, {r4, r5, r6, r7, r8, pc}
    2df2:	0000      	movs	r0, r0
    2df4:	0000      	movs	r0, r0
	...

00002df8 <_strtod_r>:
    2df8:	e92d 4ff0 	stmdb	sp!, {r4, r5, r6, r7, r8, r9, sl, fp, lr}
    2dfc:	2300      	movs	r3, #0
    2dfe:	b09f      	sub	sp, #124	; 0x7c
    2e00:	4681      	mov	r9, r0
    2e02:	9104      	str	r1, [sp, #16]
    2e04:	9215      	str	r2, [sp, #84]	; 0x54
    2e06:	931a      	str	r3, [sp, #104]	; 0x68
    2e08:	f04f 0a00 	mov.w	sl, #0
    2e0c:	f04f 0b00 	mov.w	fp, #0
    2e10:	9119      	str	r1, [sp, #100]	; 0x64
    2e12:	9a19      	ldr	r2, [sp, #100]	; 0x64
    2e14:	7813      	ldrb	r3, [r2, #0]
    2e16:	2b0d      	cmp	r3, #13
    2e18:	d805      	bhi.n	2e26 <_strtod_r+0x2e>
    2e1a:	2b09      	cmp	r3, #9
    2e1c:	d214      	bcs.n	2e48 <_strtod_r+0x50>
    2e1e:	2b00      	cmp	r3, #0
    2e20:	f000 81b1 	beq.w	3186 <_strtod_r+0x38e>
    2e24:	e013      	b.n	2e4e <_strtod_r+0x56>
    2e26:	2b2b      	cmp	r3, #43	; 0x2b
    2e28:	d007      	beq.n	2e3a <_strtod_r+0x42>
    2e2a:	2b2d      	cmp	r3, #45	; 0x2d
    2e2c:	d002      	beq.n	2e34 <_strtod_r+0x3c>
    2e2e:	2b20      	cmp	r3, #32
    2e30:	d10d      	bne.n	2e4e <_strtod_r+0x56>
    2e32:	e009      	b.n	2e48 <_strtod_r+0x50>
    2e34:	2601      	movs	r6, #1
    2e36:	9609      	str	r6, [sp, #36]	; 0x24
    2e38:	e001      	b.n	2e3e <_strtod_r+0x46>
    2e3a:	2700      	movs	r7, #0
    2e3c:	9709      	str	r7, [sp, #36]	; 0x24
    2e3e:	1c53      	adds	r3, r2, #1
    2e40:	9319      	str	r3, [sp, #100]	; 0x64
    2e42:	7853      	ldrb	r3, [r2, #1]
    2e44:	b92b      	cbnz	r3, 2e52 <_strtod_r+0x5a>
    2e46:	e19e      	b.n	3186 <_strtod_r+0x38e>
    2e48:	3201      	adds	r2, #1
    2e4a:	9219      	str	r2, [sp, #100]	; 0x64
    2e4c:	e7e1      	b.n	2e12 <_strtod_r+0x1a>
    2e4e:	2600      	movs	r6, #0
    2e50:	9609      	str	r6, [sp, #36]	; 0x24
    2e52:	9c19      	ldr	r4, [sp, #100]	; 0x64
    2e54:	7823      	ldrb	r3, [r4, #0]
    2e56:	2b30      	cmp	r3, #48	; 0x30
    2e58:	d15a      	bne.n	2f10 <_strtod_r+0x118>
    2e5a:	7863      	ldrb	r3, [r4, #1]
    2e5c:	2b58      	cmp	r3, #88	; 0x58
    2e5e:	d001      	beq.n	2e64 <_strtod_r+0x6c>
    2e60:	2b78      	cmp	r3, #120	; 0x78
    2e62:	d149      	bne.n	2ef8 <_strtod_r+0x100>
    2e64:	9f09      	ldr	r7, [sp, #36]	; 0x24
    2e66:	ab1a      	add	r3, sp, #104	; 0x68
    2e68:	9300      	str	r3, [sp, #0]
    2e6a:	9701      	str	r7, [sp, #4]
    2e6c:	4648      	mov	r0, r9
    2e6e:	a919      	add	r1, sp, #100	; 0x64
    2e70:	4a9c      	ldr	r2, [pc, #624]	; (30e4 <_strtod_r+0x2ec>)
    2e72:	ab1b      	add	r3, sp, #108	; 0x6c
    2e74:	f000 fe26 	bl	3ac4 <__gethex>
    2e78:	f010 0607 	ands.w	r6, r0, #7
    2e7c:	4605      	mov	r5, r0
    2e7e:	f000 85ad 	beq.w	39dc <_strtod_r+0xbe4>
    2e82:	2e06      	cmp	r6, #6
    2e84:	d102      	bne.n	2e8c <_strtod_r+0x94>
    2e86:	3401      	adds	r4, #1
    2e88:	9419      	str	r4, [sp, #100]	; 0x64
    2e8a:	e17e      	b.n	318a <_strtod_r+0x392>
    2e8c:	9a1a      	ldr	r2, [sp, #104]	; 0x68
    2e8e:	b13a      	cbz	r2, 2ea0 <_strtod_r+0xa8>
    2e90:	a81c      	add	r0, sp, #112	; 0x70
    2e92:	2135      	movs	r1, #53	; 0x35
    2e94:	f7ff fee2 	bl	2c5c <__copybits>
    2e98:	4648      	mov	r0, r9
    2e9a:	991a      	ldr	r1, [sp, #104]	; 0x68
    2e9c:	f7ff fb52 	bl	2544 <_Bfree>
    2ea0:	9a1b      	ldr	r2, [sp, #108]	; 0x6c
    2ea2:	2e06      	cmp	r6, #6
    2ea4:	d821      	bhi.n	2eea <_strtod_r+0xf2>
    2ea6:	e8df f006 	tbb	[pc, r6]
    2eaa:	17080d04 	strne	r0, [r8, -r4, lsl #26]
    2eae:	00040d1c 	andeq	r0, r4, ip, lsl sp
    2eb2:	f04f 0b00 	mov.w	fp, #0
    2eb6:	46da      	mov	sl, fp
    2eb8:	e017      	b.n	2eea <_strtod_r+0xf2>
    2eba:	f8dd a070 	ldr.w	sl, [sp, #112]	; 0x70
    2ebe:	f8dd b074 	ldr.w	fp, [sp, #116]	; 0x74
    2ec2:	e012      	b.n	2eea <_strtod_r+0xf2>
    2ec4:	9b1d      	ldr	r3, [sp, #116]	; 0x74
    2ec6:	f202 4233 	addw	r2, r2, #1075	; 0x433
    2eca:	f423 1380 	bic.w	r3, r3, #1048576	; 0x100000
    2ece:	f8dd a070 	ldr.w	sl, [sp, #112]	; 0x70
    2ed2:	ea43 5b02 	orr.w	fp, r3, r2, lsl #20
    2ed6:	e008      	b.n	2eea <_strtod_r+0xf2>
    2ed8:	f8df b20c 	ldr.w	fp, [pc, #524]	; 30e8 <_strtod_r+0x2f0>
    2edc:	f04f 0a00 	mov.w	sl, #0
    2ee0:	e003      	b.n	2eea <_strtod_r+0xf2>
    2ee2:	f06f 4b00 	mvn.w	fp, #2147483648	; 0x80000000
    2ee6:	f04f 3aff 	mov.w	sl, #4294967295	; 0xffffffff
    2eea:	072b      	lsls	r3, r5, #28
    2eec:	f140 8576 	bpl.w	39dc <_strtod_r+0xbe4>
    2ef0:	f04b 4b00 	orr.w	fp, fp, #2147483648	; 0x80000000
    2ef4:	f000 bd72 	b.w	39dc <_strtod_r+0xbe4>
    2ef8:	9b19      	ldr	r3, [sp, #100]	; 0x64
    2efa:	1c5a      	adds	r2, r3, #1
    2efc:	9219      	str	r2, [sp, #100]	; 0x64
    2efe:	785b      	ldrb	r3, [r3, #1]
    2f00:	2b30      	cmp	r3, #48	; 0x30
    2f02:	d0f9      	beq.n	2ef8 <_strtod_r+0x100>
    2f04:	2b00      	cmp	r3, #0
    2f06:	f000 8569 	beq.w	39dc <_strtod_r+0xbe4>
    2f0a:	2301      	movs	r3, #1
    2f0c:	9305      	str	r3, [sp, #20]
    2f0e:	e001      	b.n	2f14 <_strtod_r+0x11c>
    2f10:	2600      	movs	r6, #0
    2f12:	9605      	str	r6, [sp, #20]
    2f14:	9f19      	ldr	r7, [sp, #100]	; 0x64
    2f16:	f04f 0800 	mov.w	r8, #0
    2f1a:	9707      	str	r7, [sp, #28]
    2f1c:	f8cd 800c 	str.w	r8, [sp, #12]
    2f20:	4644      	mov	r4, r8
    2f22:	9e19      	ldr	r6, [sp, #100]	; 0x64
    2f24:	7835      	ldrb	r5, [r6, #0]
    2f26:	f1a5 0330 	sub.w	r3, r5, #48	; 0x30
    2f2a:	b2da      	uxtb	r2, r3
    2f2c:	2a09      	cmp	r2, #9
    2f2e:	d810      	bhi.n	2f52 <_strtod_r+0x15a>
    2f30:	2c08      	cmp	r4, #8
    2f32:	bfd8      	it	le
    2f34:	9f03      	ldrle	r7, [sp, #12]
    2f36:	f04f 020a 	mov.w	r2, #10
    2f3a:	bfd8      	it	le
    2f3c:	fb02 3707 	mlale	r7, r2, r7, r3
    2f40:	f106 0601 	add.w	r6, r6, #1
    2f44:	bfd4      	ite	le
    2f46:	9703      	strle	r7, [sp, #12]
    2f48:	fb02 3808 	mlagt	r8, r2, r8, r3
    2f4c:	3401      	adds	r4, #1
    2f4e:	9619      	str	r6, [sp, #100]	; 0x64
    2f50:	e7e7      	b.n	2f22 <_strtod_r+0x12a>
    2f52:	4648      	mov	r0, r9
    2f54:	f7ff fa94 	bl	2480 <_localeconv_r>
    2f58:	6807      	ldr	r7, [r0, #0]
    2f5a:	4648      	mov	r0, r9
    2f5c:	f7ff fa90 	bl	2480 <_localeconv_r>
    2f60:	6800      	ldr	r0, [r0, #0]
    2f62:	f7fd fc3f 	bl	7e4 <strlen>
    2f66:	4639      	mov	r1, r7
    2f68:	4602      	mov	r2, r0
    2f6a:	4630      	mov	r0, r6
    2f6c:	f7fd fc42 	bl	7f4 <strncmp>
    2f70:	4606      	mov	r6, r0
    2f72:	b128      	cbz	r0, 2f80 <_strtod_r+0x188>
    2f74:	2300      	movs	r3, #0
    2f76:	462a      	mov	r2, r5
    2f78:	4619      	mov	r1, r3
    2f7a:	4625      	mov	r5, r4
    2f7c:	930a      	str	r3, [sp, #40]	; 0x28
    2f7e:	e05f      	b.n	3040 <_strtod_r+0x248>
    2f80:	4648      	mov	r0, r9
    2f82:	9d19      	ldr	r5, [sp, #100]	; 0x64
    2f84:	f7ff fa7c 	bl	2480 <_localeconv_r>
    2f88:	6800      	ldr	r0, [r0, #0]
    2f8a:	f7fd fc2b 	bl	7e4 <strlen>
    2f8e:	182b      	adds	r3, r5, r0
    2f90:	9319      	str	r3, [sp, #100]	; 0x64
    2f92:	5c2a      	ldrb	r2, [r5, r0]
    2f94:	2c00      	cmp	r4, #0
    2f96:	d145      	bne.n	3024 <_strtod_r+0x22c>
    2f98:	4623      	mov	r3, r4
    2f9a:	2a30      	cmp	r2, #48	; 0x30
    2f9c:	d105      	bne.n	2faa <_strtod_r+0x1b2>
    2f9e:	9a19      	ldr	r2, [sp, #100]	; 0x64
    2fa0:	3301      	adds	r3, #1
    2fa2:	1c51      	adds	r1, r2, #1
    2fa4:	9119      	str	r1, [sp, #100]	; 0x64
    2fa6:	7852      	ldrb	r2, [r2, #1]
    2fa8:	e7f7      	b.n	2f9a <_strtod_r+0x1a2>
    2faa:	f1a2 0131 	sub.w	r1, r2, #49	; 0x31
    2fae:	2908      	cmp	r1, #8
    2fb0:	d842      	bhi.n	3038 <_strtod_r+0x240>
    2fb2:	9e19      	ldr	r6, [sp, #100]	; 0x64
    2fb4:	4619      	mov	r1, r3
    2fb6:	2300      	movs	r3, #0
    2fb8:	9607      	str	r6, [sp, #28]
    2fba:	461d      	mov	r5, r3
    2fbc:	3a30      	subs	r2, #48	; 0x30
    2fbe:	f103 0001 	add.w	r0, r3, #1
    2fc2:	d029      	beq.n	3018 <_strtod_r+0x220>
    2fc4:	4401      	add	r1, r0
    2fc6:	1c6e      	adds	r6, r5, #1
    2fc8:	1b77      	subs	r7, r6, r5
    2fca:	4287      	cmp	r7, r0
    2fcc:	da10      	bge.n	2ff0 <_strtod_r+0x1f8>
    2fce:	1e77      	subs	r7, r6, #1
    2fd0:	2f08      	cmp	r7, #8
    2fd2:	dc06      	bgt.n	2fe2 <_strtod_r+0x1ea>
    2fd4:	9f03      	ldr	r7, [sp, #12]
    2fd6:	f04f 0c0a 	mov.w	ip, #10
    2fda:	fb0c f707 	mul.w	r7, ip, r7
    2fde:	9703      	str	r7, [sp, #12]
    2fe0:	e004      	b.n	2fec <_strtod_r+0x1f4>
    2fe2:	2e10      	cmp	r6, #16
    2fe4:	bfdc      	itt	le
    2fe6:	270a      	movle	r7, #10
    2fe8:	fb07 f808 	mulle.w	r8, r7, r8
    2fec:	3601      	adds	r6, #1
    2fee:	e7eb      	b.n	2fc8 <_strtod_r+0x1d0>
    2ff0:	2b00      	cmp	r3, #0
    2ff2:	bfac      	ite	ge
    2ff4:	18eb      	addge	r3, r5, r3
    2ff6:	1c2b      	addlt	r3, r5, #0
    2ff8:	2b08      	cmp	r3, #8
    2ffa:	f103 0501 	add.w	r5, r3, #1
    2ffe:	dc05      	bgt.n	300c <_strtod_r+0x214>
    3000:	9e03      	ldr	r6, [sp, #12]
    3002:	230a      	movs	r3, #10
    3004:	fb03 2606 	mla	r6, r3, r6, r2
    3008:	9603      	str	r6, [sp, #12]
    300a:	e004      	b.n	3016 <_strtod_r+0x21e>
    300c:	2d10      	cmp	r5, #16
    300e:	bfdc      	itt	le
    3010:	230a      	movle	r3, #10
    3012:	fb03 2808 	mlale	r8, r3, r8, r2
    3016:	2000      	movs	r0, #0
    3018:	9b19      	ldr	r3, [sp, #100]	; 0x64
    301a:	1c5a      	adds	r2, r3, #1
    301c:	9219      	str	r2, [sp, #100]	; 0x64
    301e:	785a      	ldrb	r2, [r3, #1]
    3020:	4603      	mov	r3, r0
    3022:	e002      	b.n	302a <_strtod_r+0x232>
    3024:	4625      	mov	r5, r4
    3026:	4633      	mov	r3, r6
    3028:	4631      	mov	r1, r6
    302a:	f1a2 0030 	sub.w	r0, r2, #48	; 0x30
    302e:	2809      	cmp	r0, #9
    3030:	d9c4      	bls.n	2fbc <_strtod_r+0x1c4>
    3032:	2701      	movs	r7, #1
    3034:	970a      	str	r7, [sp, #40]	; 0x28
    3036:	e003      	b.n	3040 <_strtod_r+0x248>
    3038:	2500      	movs	r5, #0
    303a:	2001      	movs	r0, #1
    303c:	4629      	mov	r1, r5
    303e:	900a      	str	r0, [sp, #40]	; 0x28
    3040:	f022 0620 	bic.w	r6, r2, #32
    3044:	2e45      	cmp	r6, #69	; 0x45
    3046:	d153      	bne.n	30f0 <_strtod_r+0x2f8>
    3048:	b925      	cbnz	r5, 3054 <_strtod_r+0x25c>
    304a:	b91b      	cbnz	r3, 3054 <_strtod_r+0x25c>
    304c:	9e05      	ldr	r6, [sp, #20]
    304e:	2e00      	cmp	r6, #0
    3050:	f000 8099 	beq.w	3186 <_strtod_r+0x38e>
    3054:	9f19      	ldr	r7, [sp, #100]	; 0x64
    3056:	1c7a      	adds	r2, r7, #1
    3058:	9219      	str	r2, [sp, #100]	; 0x64
    305a:	787a      	ldrb	r2, [r7, #1]
    305c:	9704      	str	r7, [sp, #16]
    305e:	2a2b      	cmp	r2, #43	; 0x2b
    3060:	d004      	beq.n	306c <_strtod_r+0x274>
    3062:	2a2d      	cmp	r2, #45	; 0x2d
    3064:	d005      	beq.n	3072 <_strtod_r+0x27a>
    3066:	2600      	movs	r6, #0
    3068:	960f      	str	r6, [sp, #60]	; 0x3c
    306a:	e008      	b.n	307e <_strtod_r+0x286>
    306c:	2000      	movs	r0, #0
    306e:	900f      	str	r0, [sp, #60]	; 0x3c
    3070:	e001      	b.n	3076 <_strtod_r+0x27e>
    3072:	2701      	movs	r7, #1
    3074:	970f      	str	r7, [sp, #60]	; 0x3c
    3076:	9e04      	ldr	r6, [sp, #16]
    3078:	1cb2      	adds	r2, r6, #2
    307a:	9219      	str	r2, [sp, #100]	; 0x64
    307c:	78b2      	ldrb	r2, [r6, #2]
    307e:	f1a2 0730 	sub.w	r7, r2, #48	; 0x30
    3082:	2f09      	cmp	r7, #9
    3084:	d832      	bhi.n	30ec <_strtod_r+0x2f4>
    3086:	2a30      	cmp	r2, #48	; 0x30
    3088:	d104      	bne.n	3094 <_strtod_r+0x29c>
    308a:	9a19      	ldr	r2, [sp, #100]	; 0x64
    308c:	1c57      	adds	r7, r2, #1
    308e:	9719      	str	r7, [sp, #100]	; 0x64
    3090:	7852      	ldrb	r2, [r2, #1]
    3092:	e7f8      	b.n	3086 <_strtod_r+0x28e>
    3094:	f1a2 0731 	sub.w	r7, r2, #49	; 0x31
    3098:	2f08      	cmp	r7, #8
    309a:	d829      	bhi.n	30f0 <_strtod_r+0x2f8>
    309c:	9819      	ldr	r0, [sp, #100]	; 0x64
    309e:	f1a2 0730 	sub.w	r7, r2, #48	; 0x30
    30a2:	9006      	str	r0, [sp, #24]
    30a4:	9a19      	ldr	r2, [sp, #100]	; 0x64
    30a6:	1c56      	adds	r6, r2, #1
    30a8:	9619      	str	r6, [sp, #100]	; 0x64
    30aa:	7852      	ldrb	r2, [r2, #1]
    30ac:	960e      	str	r6, [sp, #56]	; 0x38
    30ae:	f1a2 0630 	sub.w	r6, r2, #48	; 0x30
    30b2:	2e09      	cmp	r6, #9
    30b4:	d805      	bhi.n	30c2 <_strtod_r+0x2ca>
    30b6:	f04f 0c0a 	mov.w	ip, #10
    30ba:	fb0c 2707 	mla	r7, ip, r7, r2
    30be:	3f30      	subs	r7, #48	; 0x30
    30c0:	e7f0      	b.n	30a4 <_strtod_r+0x2ac>
    30c2:	980e      	ldr	r0, [sp, #56]	; 0x38
    30c4:	9e06      	ldr	r6, [sp, #24]
    30c6:	ebc6 0c00 	rsb	ip, r6, r0
    30ca:	f1bc 0f08 	cmp.w	ip, #8
    30ce:	f644 6c1f 	movw	ip, #19999	; 0x4e1f
    30d2:	dc02      	bgt.n	30da <_strtod_r+0x2e2>
    30d4:	4567      	cmp	r7, ip
    30d6:	bfb8      	it	lt
    30d8:	46bc      	movlt	ip, r7
    30da:	9f0f      	ldr	r7, [sp, #60]	; 0x3c
    30dc:	b157      	cbz	r7, 30f4 <_strtod_r+0x2fc>
    30de:	f1cc 0c00 	rsb	ip, ip, #0
    30e2:	e007      	b.n	30f4 <_strtod_r+0x2fc>
    30e4:	00004d88 	andeq	r4, r0, r8, lsl #27
    30e8:	7ff00000 	svcvc	0x00f00000	; IMB
    30ec:	9e04      	ldr	r6, [sp, #16]
    30ee:	9619      	str	r6, [sp, #100]	; 0x64
    30f0:	f04f 0c00 	mov.w	ip, #0
    30f4:	2d00      	cmp	r5, #0
    30f6:	d14c      	bne.n	3192 <_strtod_r+0x39a>
    30f8:	2b00      	cmp	r3, #0
    30fa:	f040 846f 	bne.w	39dc <_strtod_r+0xbe4>
    30fe:	9f05      	ldr	r7, [sp, #20]
    3100:	2f00      	cmp	r7, #0
    3102:	f040 846b 	bne.w	39dc <_strtod_r+0xbe4>
    3106:	980a      	ldr	r0, [sp, #40]	; 0x28
    3108:	2800      	cmp	r0, #0
    310a:	d13c      	bne.n	3186 <_strtod_r+0x38e>
    310c:	2a4e      	cmp	r2, #78	; 0x4e
    310e:	d01b      	beq.n	3148 <_strtod_r+0x350>
    3110:	dc02      	bgt.n	3118 <_strtod_r+0x320>
    3112:	2a49      	cmp	r2, #73	; 0x49
    3114:	d005      	beq.n	3122 <_strtod_r+0x32a>
    3116:	e036      	b.n	3186 <_strtod_r+0x38e>
    3118:	2a69      	cmp	r2, #105	; 0x69
    311a:	d002      	beq.n	3122 <_strtod_r+0x32a>
    311c:	2a6e      	cmp	r2, #110	; 0x6e
    311e:	d013      	beq.n	3148 <_strtod_r+0x350>
    3120:	e031      	b.n	3186 <_strtod_r+0x38e>
    3122:	a819      	add	r0, sp, #100	; 0x64
    3124:	49ac      	ldr	r1, [pc, #688]	; (33d8 <_strtod_r+0x5e0>)
    3126:	f7ff fe31 	bl	2d8c <match>
    312a:	b360      	cbz	r0, 3186 <_strtod_r+0x38e>
    312c:	9b19      	ldr	r3, [sp, #100]	; 0x64
    312e:	a819      	add	r0, sp, #100	; 0x64
    3130:	3b01      	subs	r3, #1
    3132:	49aa      	ldr	r1, [pc, #680]	; (33dc <_strtod_r+0x5e4>)
    3134:	9319      	str	r3, [sp, #100]	; 0x64
    3136:	f7ff fe29 	bl	2d8c <match>
    313a:	b910      	cbnz	r0, 3142 <_strtod_r+0x34a>
    313c:	9b19      	ldr	r3, [sp, #100]	; 0x64
    313e:	3301      	adds	r3, #1
    3140:	9319      	str	r3, [sp, #100]	; 0x64
    3142:	f8df b2b4 	ldr.w	fp, [pc, #692]	; 33f8 <_strtod_r+0x600>
    3146:	e01a      	b.n	317e <_strtod_r+0x386>
    3148:	a819      	add	r0, sp, #100	; 0x64
    314a:	49a5      	ldr	r1, [pc, #660]	; (33e0 <_strtod_r+0x5e8>)
    314c:	f7ff fe1e 	bl	2d8c <match>
    3150:	b1c8      	cbz	r0, 3186 <_strtod_r+0x38e>
    3152:	9b19      	ldr	r3, [sp, #100]	; 0x64
    3154:	781b      	ldrb	r3, [r3, #0]
    3156:	2b28      	cmp	r3, #40	; 0x28
    3158:	d10f      	bne.n	317a <_strtod_r+0x382>
    315a:	a819      	add	r0, sp, #100	; 0x64
    315c:	49a1      	ldr	r1, [pc, #644]	; (33e4 <_strtod_r+0x5ec>)
    315e:	aa1c      	add	r2, sp, #112	; 0x70
    3160:	f000 fef2 	bl	3f48 <__hexnan>
    3164:	2805      	cmp	r0, #5
    3166:	d108      	bne.n	317a <_strtod_r+0x382>
    3168:	9b1d      	ldr	r3, [sp, #116]	; 0x74
    316a:	f8dd a070 	ldr.w	sl, [sp, #112]	; 0x70
    316e:	f043 4bff 	orr.w	fp, r3, #2139095040	; 0x7f800000
    3172:	f44b 0be0 	orr.w	fp, fp, #7340032	; 0x700000
    3176:	f000 bc31 	b.w	39dc <_strtod_r+0xbe4>
    317a:	f8df b280 	ldr.w	fp, [pc, #640]	; 33fc <_strtod_r+0x604>
    317e:	f04f 0a00 	mov.w	sl, #0
    3182:	f000 bc2b 	b.w	39dc <_strtod_r+0xbe4>
    3186:	9b04      	ldr	r3, [sp, #16]
    3188:	9319      	str	r3, [sp, #100]	; 0x64
    318a:	2600      	movs	r6, #0
    318c:	9609      	str	r6, [sp, #36]	; 0x24
    318e:	f000 bc25 	b.w	39dc <_strtod_r+0xbe4>
    3192:	ebc1 010c 	rsb	r1, r1, ip
    3196:	9803      	ldr	r0, [sp, #12]
    3198:	2d10      	cmp	r5, #16
    319a:	bfb4      	ite	lt
    319c:	46ac      	movlt	ip, r5
    319e:	f04f 0c10 	movge.w	ip, #16
    31a2:	f8cd c008 	str.w	ip, [sp, #8]
    31a6:	9106      	str	r1, [sp, #24]
    31a8:	f001 f8aa 	bl	4300 <__aeabi_ui2d>
    31ac:	f8dd c008 	ldr.w	ip, [sp, #8]
    31b0:	2c00      	cmp	r4, #0
    31b2:	bf08      	it	eq
    31b4:	462c      	moveq	r4, r5
    31b6:	f1bc 0f09 	cmp.w	ip, #9
    31ba:	4682      	mov	sl, r0
    31bc:	468b      	mov	fp, r1
    31be:	dd15      	ble.n	31ec <_strtod_r+0x3f4>
    31c0:	4b89      	ldr	r3, [pc, #548]	; (33e8 <_strtod_r+0x5f0>)
    31c2:	eb03 03cc 	add.w	r3, r3, ip, lsl #3
    31c6:	e953 2312 	ldrd	r2, r3, [r3, #-72]	; 0x48
    31ca:	f001 f90f 	bl	43ec <__aeabi_dmul>
    31ce:	4606      	mov	r6, r0
    31d0:	4640      	mov	r0, r8
    31d2:	460f      	mov	r7, r1
    31d4:	f001 f894 	bl	4300 <__aeabi_ui2d>
    31d8:	4602      	mov	r2, r0
    31da:	460b      	mov	r3, r1
    31dc:	4630      	mov	r0, r6
    31de:	4639      	mov	r1, r7
    31e0:	f000 ff52 	bl	4088 <__adddf3>
    31e4:	f8dd c008 	ldr.w	ip, [sp, #8]
    31e8:	4682      	mov	sl, r0
    31ea:	468b      	mov	fp, r1
    31ec:	2d0f      	cmp	r5, #15
    31ee:	dc37      	bgt.n	3260 <_strtod_r+0x468>
    31f0:	9f06      	ldr	r7, [sp, #24]
    31f2:	2f00      	cmp	r7, #0
    31f4:	f000 83f2 	beq.w	39dc <_strtod_r+0xbe4>
    31f8:	dd23      	ble.n	3242 <_strtod_r+0x44a>
    31fa:	2f16      	cmp	r7, #22
    31fc:	dc07      	bgt.n	320e <_strtod_r+0x416>
    31fe:	497a      	ldr	r1, [pc, #488]	; (33e8 <_strtod_r+0x5f0>)
    3200:	4652      	mov	r2, sl
    3202:	eb01 01c7 	add.w	r1, r1, r7, lsl #3
    3206:	e9d1 0100 	ldrd	r0, r1, [r1]
    320a:	465b      	mov	r3, fp
    320c:	e014      	b.n	3238 <_strtod_r+0x440>
    320e:	9e06      	ldr	r6, [sp, #24]
    3210:	f1c5 0325 	rsb	r3, r5, #37	; 0x25
    3214:	429e      	cmp	r6, r3
    3216:	dc23      	bgt.n	3260 <_strtod_r+0x468>
    3218:	4c73      	ldr	r4, [pc, #460]	; (33e8 <_strtod_r+0x5f0>)
    321a:	f1c5 050f 	rsb	r5, r5, #15
    321e:	eb04 03c5 	add.w	r3, r4, r5, lsl #3
    3222:	1b75      	subs	r5, r6, r5
    3224:	e9d3 0100 	ldrd	r0, r1, [r3]
    3228:	4652      	mov	r2, sl
    322a:	465b      	mov	r3, fp
    322c:	eb04 04c5 	add.w	r4, r4, r5, lsl #3
    3230:	f001 f8dc 	bl	43ec <__aeabi_dmul>
    3234:	e9d4 2300 	ldrd	r2, r3, [r4]
    3238:	f001 f8d8 	bl	43ec <__aeabi_dmul>
    323c:	4682      	mov	sl, r0
    323e:	468b      	mov	fp, r1
    3240:	e3cc      	b.n	39dc <_strtod_r+0xbe4>
    3242:	9f06      	ldr	r7, [sp, #24]
    3244:	3716      	adds	r7, #22
    3246:	db0b      	blt.n	3260 <_strtod_r+0x468>
    3248:	f8dd c018 	ldr.w	ip, [sp, #24]
    324c:	4f66      	ldr	r7, [pc, #408]	; (33e8 <_strtod_r+0x5f0>)
    324e:	4650      	mov	r0, sl
    3250:	eba7 07cc 	sub.w	r7, r7, ip, lsl #3
    3254:	4659      	mov	r1, fp
    3256:	e9d7 2300 	ldrd	r2, r3, [r7]
    325a:	f001 f9f1 	bl	4640 <__aeabi_ddiv>
    325e:	e7ed      	b.n	323c <_strtod_r+0x444>
    3260:	9e06      	ldr	r6, [sp, #24]
    3262:	ebcc 0805 	rsb	r8, ip, r5
    3266:	44b0      	add	r8, r6
    3268:	f1b8 0f00 	cmp.w	r8, #0
    326c:	dd61      	ble.n	3332 <_strtod_r+0x53a>
    326e:	f018 030f 	ands.w	r3, r8, #15
    3272:	d00a      	beq.n	328a <_strtod_r+0x492>
    3274:	4a5c      	ldr	r2, [pc, #368]	; (33e8 <_strtod_r+0x5f0>)
    3276:	eb02 03c3 	add.w	r3, r2, r3, lsl #3
    327a:	e9d3 0100 	ldrd	r0, r1, [r3]
    327e:	4652      	mov	r2, sl
    3280:	465b      	mov	r3, fp
    3282:	f001 f8b3 	bl	43ec <__aeabi_dmul>
    3286:	4682      	mov	sl, r0
    3288:	468b      	mov	fp, r1
    328a:	f038 080f 	bics.w	r8, r8, #15
    328e:	f000 80c8 	beq.w	3422 <_strtod_r+0x62a>
    3292:	f5b8 7f9a 	cmp.w	r8, #308	; 0x134
    3296:	dd13      	ble.n	32c0 <_strtod_r+0x4c8>
    3298:	f04f 0800 	mov.w	r8, #0
    329c:	f8cd 800c 	str.w	r8, [sp, #12]
    32a0:	f8cd 801c 	str.w	r8, [sp, #28]
    32a4:	f8cd 8014 	str.w	r8, [sp, #20]
    32a8:	9f07      	ldr	r7, [sp, #28]
    32aa:	2322      	movs	r3, #34	; 0x22
    32ac:	f8c9 3000 	str.w	r3, [r9]
    32b0:	f8df b144 	ldr.w	fp, [pc, #324]	; 33f8 <_strtod_r+0x600>
    32b4:	f04f 0a00 	mov.w	sl, #0
    32b8:	2f00      	cmp	r7, #0
    32ba:	f040 837b 	bne.w	39b4 <_strtod_r+0xbbc>
    32be:	e38d      	b.n	39dc <_strtod_r+0xbe4>
    32c0:	ea4f 1828 	mov.w	r8, r8, asr #4
    32c4:	4650      	mov	r0, sl
    32c6:	4659      	mov	r1, fp
    32c8:	2600      	movs	r6, #0
    32ca:	f1b8 0f01 	cmp.w	r8, #1
    32ce:	dd0d      	ble.n	32ec <_strtod_r+0x4f4>
    32d0:	f018 0f01 	tst.w	r8, #1
    32d4:	d006      	beq.n	32e4 <_strtod_r+0x4ec>
    32d6:	4b45      	ldr	r3, [pc, #276]	; (33ec <_strtod_r+0x5f4>)
    32d8:	eb03 03c6 	add.w	r3, r3, r6, lsl #3
    32dc:	e9d3 2300 	ldrd	r2, r3, [r3]
    32e0:	f001 f884 	bl	43ec <__aeabi_dmul>
    32e4:	3601      	adds	r6, #1
    32e6:	ea4f 0868 	mov.w	r8, r8, asr #1
    32ea:	e7ee      	b.n	32ca <_strtod_r+0x4d2>
    32ec:	4b3f      	ldr	r3, [pc, #252]	; (33ec <_strtod_r+0x5f4>)
    32ee:	4682      	mov	sl, r0
    32f0:	f1a1 7b54 	sub.w	fp, r1, #55574528	; 0x3500000
    32f4:	eb03 06c6 	add.w	r6, r3, r6, lsl #3
    32f8:	4652      	mov	r2, sl
    32fa:	465b      	mov	r3, fp
    32fc:	e9d6 0100 	ldrd	r0, r1, [r6]
    3300:	f001 f874 	bl	43ec <__aeabi_dmul>
    3304:	f021 4300 	bic.w	r3, r1, #2147483648	; 0x80000000
    3308:	468b      	mov	fp, r1
    330a:	0d1b      	lsrs	r3, r3, #20
    330c:	4938      	ldr	r1, [pc, #224]	; (33f0 <_strtod_r+0x5f8>)
    330e:	051b      	lsls	r3, r3, #20
    3310:	428b      	cmp	r3, r1
    3312:	4682      	mov	sl, r0
    3314:	d8c0      	bhi.n	3298 <_strtod_r+0x4a0>
    3316:	f5a1 1180 	sub.w	r1, r1, #1048576	; 0x100000
    331a:	428b      	cmp	r3, r1
    331c:	d906      	bls.n	332c <_strtod_r+0x534>
    331e:	2600      	movs	r6, #0
    3320:	f8df b0dc 	ldr.w	fp, [pc, #220]	; 3400 <_strtod_r+0x608>
    3324:	f04f 3aff 	mov.w	sl, #4294967295	; 0xffffffff
    3328:	9604      	str	r6, [sp, #16]
    332a:	e07c      	b.n	3426 <_strtod_r+0x62e>
    332c:	f10b 7b54 	add.w	fp, fp, #55574528	; 0x3500000
    3330:	e077      	b.n	3422 <_strtod_r+0x62a>
    3332:	d076      	beq.n	3422 <_strtod_r+0x62a>
    3334:	f1c8 0800 	rsb	r8, r8, #0
    3338:	f018 030f 	ands.w	r3, r8, #15
    333c:	d00a      	beq.n	3354 <_strtod_r+0x55c>
    333e:	4a2a      	ldr	r2, [pc, #168]	; (33e8 <_strtod_r+0x5f0>)
    3340:	4650      	mov	r0, sl
    3342:	eb02 03c3 	add.w	r3, r2, r3, lsl #3
    3346:	4659      	mov	r1, fp
    3348:	e9d3 2300 	ldrd	r2, r3, [r3]
    334c:	f001 f978 	bl	4640 <__aeabi_ddiv>
    3350:	4682      	mov	sl, r0
    3352:	468b      	mov	fp, r1
    3354:	ea5f 1828 	movs.w	r8, r8, asr #4
    3358:	d063      	beq.n	3422 <_strtod_r+0x62a>
    335a:	f1b8 0f1f 	cmp.w	r8, #31
    335e:	dd08      	ble.n	3372 <_strtod_r+0x57a>
    3360:	f04f 0800 	mov.w	r8, #0
    3364:	f8cd 800c 	str.w	r8, [sp, #12]
    3368:	f8cd 801c 	str.w	r8, [sp, #28]
    336c:	f8cd 8014 	str.w	r8, [sp, #20]
    3370:	e11e      	b.n	35b0 <_strtod_r+0x7b8>
    3372:	f018 0f10 	tst.w	r8, #16
    3376:	bf14      	ite	ne
    3378:	266a      	movne	r6, #106	; 0x6a
    337a:	2600      	moveq	r6, #0
    337c:	9604      	str	r6, [sp, #16]
    337e:	4e1d      	ldr	r6, [pc, #116]	; (33f4 <_strtod_r+0x5fc>)
    3380:	4650      	mov	r0, sl
    3382:	4659      	mov	r1, fp
    3384:	f1b8 0f00 	cmp.w	r8, #0
    3388:	dd0a      	ble.n	33a0 <_strtod_r+0x5a8>
    338a:	f018 0f01 	tst.w	r8, #1
    338e:	d003      	beq.n	3398 <_strtod_r+0x5a0>
    3390:	e9d6 2300 	ldrd	r2, r3, [r6]
    3394:	f001 f82a 	bl	43ec <__aeabi_dmul>
    3398:	ea4f 0868 	mov.w	r8, r8, asr #1
    339c:	3608      	adds	r6, #8
    339e:	e7f1      	b.n	3384 <_strtod_r+0x58c>
    33a0:	9f04      	ldr	r7, [sp, #16]
    33a2:	4682      	mov	sl, r0
    33a4:	468b      	mov	fp, r1
    33a6:	b39f      	cbz	r7, 3410 <_strtod_r+0x618>
    33a8:	f3c1 530a 	ubfx	r3, r1, #20, #11
    33ac:	f1c3 036b 	rsb	r3, r3, #107	; 0x6b
    33b0:	2b00      	cmp	r3, #0
    33b2:	dd2d      	ble.n	3410 <_strtod_r+0x618>
    33b4:	2b1f      	cmp	r3, #31
    33b6:	dd25      	ble.n	3404 <_strtod_r+0x60c>
    33b8:	2b34      	cmp	r3, #52	; 0x34
    33ba:	f04f 0a00 	mov.w	sl, #0
    33be:	dd02      	ble.n	33c6 <_strtod_r+0x5ce>
    33c0:	f04f 7b5c 	mov.w	fp, #57671680	; 0x3700000
    33c4:	e024      	b.n	3410 <_strtod_r+0x618>
    33c6:	3b20      	subs	r3, #32
    33c8:	f04f 31ff 	mov.w	r1, #4294967295	; 0xffffffff
    33cc:	fa01 f303 	lsl.w	r3, r1, r3
    33d0:	ea03 0b0b 	and.w	fp, r3, fp
    33d4:	e01c      	b.n	3410 <_strtod_r+0x618>
    33d6:	bf00      	nop
    33d8:	00004ab4 			; <UNDEFINED> instruction: 0x00004ab4
    33dc:	00004bec 	andeq	r4, r0, ip, ror #23
    33e0:	00004abc 			; <UNDEFINED> instruction: 0x00004abc
    33e4:	00004d9c 	muleq	r0, ip, sp
    33e8:	00004c60 	andeq	r4, r0, r0, ror #24
    33ec:	00004d28 	andeq	r4, r0, r8, lsr #26
    33f0:	7ca00000 	stcvc	0, cr0, [r0]
    33f4:	00004d60 	andeq	r4, r0, r0, ror #26
    33f8:	7ff00000 	svcvc	0x00f00000	; IMB
    33fc:	fff80000 			; <UNDEFINED> instruction: 0xfff80000
    3400:	7fefffff 	svcvc	0x00efffff
    3404:	f04f 32ff 	mov.w	r2, #4294967295	; 0xffffffff
    3408:	fa02 f303 	lsl.w	r3, r2, r3
    340c:	ea03 0a00 	and.w	sl, r3, r0
    3410:	4650      	mov	r0, sl
    3412:	4659      	mov	r1, fp
    3414:	2200      	movs	r2, #0
    3416:	2300      	movs	r3, #0
    3418:	f001 fa50 	bl	48bc <__aeabi_dcmpeq>
    341c:	2800      	cmp	r0, #0
    341e:	d19f      	bne.n	3360 <_strtod_r+0x568>
    3420:	e001      	b.n	3426 <_strtod_r+0x62e>
    3422:	2700      	movs	r7, #0
    3424:	9704      	str	r7, [sp, #16]
    3426:	9e03      	ldr	r6, [sp, #12]
    3428:	4648      	mov	r0, r9
    342a:	9600      	str	r6, [sp, #0]
    342c:	9907      	ldr	r1, [sp, #28]
    342e:	4622      	mov	r2, r4
    3430:	462b      	mov	r3, r5
    3432:	f7ff f8d8 	bl	25e6 <__s2b>
    3436:	9007      	str	r0, [sp, #28]
    3438:	2800      	cmp	r0, #0
    343a:	f43f af2d 	beq.w	3298 <_strtod_r+0x4a0>
    343e:	9f06      	ldr	r7, [sp, #24]
    3440:	f04f 0800 	mov.w	r8, #0
    3444:	427b      	negs	r3, r7
    3446:	2f00      	cmp	r7, #0
    3448:	bfa8      	it	ge
    344a:	2300      	movge	r3, #0
    344c:	930e      	str	r3, [sp, #56]	; 0x38
    344e:	f8cd 800c 	str.w	r8, [sp, #12]
    3452:	9e07      	ldr	r6, [sp, #28]
    3454:	4648      	mov	r0, r9
    3456:	6871      	ldr	r1, [r6, #4]
    3458:	f7ff f83f 	bl	24da <_Balloc>
    345c:	9005      	str	r0, [sp, #20]
    345e:	2800      	cmp	r0, #0
    3460:	f43f af22 	beq.w	32a8 <_strtod_r+0x4b0>
    3464:	6932      	ldr	r2, [r6, #16]
    3466:	f106 010c 	add.w	r1, r6, #12
    346a:	3202      	adds	r2, #2
    346c:	0092      	lsls	r2, r2, #2
    346e:	300c      	adds	r0, #12
    3470:	f7fd f8da 	bl	628 <memcpy>
    3474:	ab1b      	add	r3, sp, #108	; 0x6c
    3476:	9300      	str	r3, [sp, #0]
    3478:	ab1c      	add	r3, sp, #112	; 0x70
    347a:	9301      	str	r3, [sp, #4]
    347c:	4648      	mov	r0, r9
    347e:	4652      	mov	r2, sl
    3480:	465b      	mov	r3, fp
    3482:	e9cd ab0a 	strd	sl, fp, [sp, #40]	; 0x28
    3486:	f7ff fb72 	bl	2b6e <__d2b>
    348a:	901a      	str	r0, [sp, #104]	; 0x68
    348c:	2800      	cmp	r0, #0
    348e:	f43f af0b 	beq.w	32a8 <_strtod_r+0x4b0>
    3492:	4648      	mov	r0, r9
    3494:	2101      	movs	r1, #1
    3496:	f7ff f935 	bl	2704 <__i2b>
    349a:	9003      	str	r0, [sp, #12]
    349c:	2800      	cmp	r0, #0
    349e:	f43f af03 	beq.w	32a8 <_strtod_r+0x4b0>
    34a2:	9b1b      	ldr	r3, [sp, #108]	; 0x6c
    34a4:	f8dd c018 	ldr.w	ip, [sp, #24]
    34a8:	2b00      	cmp	r3, #0
    34aa:	ea2c 77ec 	bic.w	r7, ip, ip, asr #31
    34ae:	f2c0 808b 	blt.w	35c8 <_strtod_r+0x7d0>
    34b2:	9c0e      	ldr	r4, [sp, #56]	; 0x38
    34b4:	463a      	mov	r2, r7
    34b6:	441c      	add	r4, r3
    34b8:	9e04      	ldr	r6, [sp, #16]
    34ba:	9d1c      	ldr	r5, [sp, #112]	; 0x70
    34bc:	1b9b      	subs	r3, r3, r6
    34be:	1959      	adds	r1, r3, r5
    34c0:	f46f 737f 	mvn.w	r3, #1020	; 0x3fc
    34c4:	4299      	cmp	r1, r3
    34c6:	f1c5 0536 	rsb	r5, r5, #54	; 0x36
    34ca:	f280 8087 	bge.w	35dc <_strtod_r+0x7e4>
    34ce:	1a5b      	subs	r3, r3, r1
    34d0:	2b1f      	cmp	r3, #31
    34d2:	ebc3 0505 	rsb	r5, r3, r5
    34d6:	f04f 0001 	mov.w	r0, #1
    34da:	dc78      	bgt.n	35ce <_strtod_r+0x7d6>
    34dc:	4098      	lsls	r0, r3
    34de:	2300      	movs	r3, #0
    34e0:	9014      	str	r0, [sp, #80]	; 0x50
    34e2:	930f      	str	r3, [sp, #60]	; 0x3c
    34e4:	9804      	ldr	r0, [sp, #16]
    34e6:	1966      	adds	r6, r4, r5
    34e8:	4415      	add	r5, r2
    34ea:	42a6      	cmp	r6, r4
    34ec:	bfb4      	ite	lt
    34ee:	4633      	movlt	r3, r6
    34f0:	4623      	movge	r3, r4
    34f2:	4405      	add	r5, r0
    34f4:	42ab      	cmp	r3, r5
    34f6:	bfa8      	it	ge
    34f8:	462b      	movge	r3, r5
    34fa:	2b00      	cmp	r3, #0
    34fc:	dd02      	ble.n	3504 <_strtod_r+0x70c>
    34fe:	1af6      	subs	r6, r6, r3
    3500:	1aed      	subs	r5, r5, r3
    3502:	1ae4      	subs	r4, r4, r3
    3504:	990e      	ldr	r1, [sp, #56]	; 0x38
    3506:	2900      	cmp	r1, #0
    3508:	d16f      	bne.n	35ea <_strtod_r+0x7f2>
    350a:	2e00      	cmp	r6, #0
    350c:	f300 8087 	bgt.w	361e <_strtod_r+0x826>
    3510:	2f00      	cmp	r7, #0
    3512:	f040 808e 	bne.w	3632 <_strtod_r+0x83a>
    3516:	2d00      	cmp	r5, #0
    3518:	f300 8095 	bgt.w	3646 <_strtod_r+0x84e>
    351c:	2c00      	cmp	r4, #0
    351e:	f300 809c 	bgt.w	365a <_strtod_r+0x862>
    3522:	4648      	mov	r0, r9
    3524:	991a      	ldr	r1, [sp, #104]	; 0x68
    3526:	9a05      	ldr	r2, [sp, #20]
    3528:	f7ff fa4c 	bl	29c4 <__mdiff>
    352c:	4680      	mov	r8, r0
    352e:	2800      	cmp	r0, #0
    3530:	f43f aeba 	beq.w	32a8 <_strtod_r+0x4b0>
    3534:	68c6      	ldr	r6, [r0, #12]
    3536:	2300      	movs	r3, #0
    3538:	60c3      	str	r3, [r0, #12]
    353a:	9903      	ldr	r1, [sp, #12]
    353c:	9608      	str	r6, [sp, #32]
    353e:	f7ff fa24 	bl	298a <__mcmp>
    3542:	2800      	cmp	r0, #0
    3544:	f280 8098 	bge.w	3678 <_strtod_r+0x880>
    3548:	2e00      	cmp	r6, #0
    354a:	f040 8220 	bne.w	398e <_strtod_r+0xb96>
    354e:	f1ba 0f00 	cmp.w	sl, #0
    3552:	f040 821c 	bne.w	398e <_strtod_r+0xb96>
    3556:	f3cb 0313 	ubfx	r3, fp, #0, #20
    355a:	2b00      	cmp	r3, #0
    355c:	f040 8217 	bne.w	398e <_strtod_r+0xb96>
    3560:	f02b 4300 	bic.w	r3, fp, #2147483648	; 0x80000000
    3564:	0d1b      	lsrs	r3, r3, #20
    3566:	051b      	lsls	r3, r3, #20
    3568:	f1b3 6fd6 	cmp.w	r3, #112197632	; 0x6b00000
    356c:	f240 820f 	bls.w	398e <_strtod_r+0xb96>
    3570:	f8d8 3014 	ldr.w	r3, [r8, #20]
    3574:	2b00      	cmp	r3, #0
    3576:	d07a      	beq.n	366e <_strtod_r+0x876>
    3578:	4641      	mov	r1, r8
    357a:	2201      	movs	r2, #1
    357c:	4648      	mov	r0, r9
    357e:	f7ff f9b1 	bl	28e4 <__lshift>
    3582:	9903      	ldr	r1, [sp, #12]
    3584:	4680      	mov	r8, r0
    3586:	f7ff fa00 	bl	298a <__mcmp>
    358a:	2800      	cmp	r0, #0
    358c:	f340 81ff 	ble.w	398e <_strtod_r+0xb96>
    3590:	f02b 4300 	bic.w	r3, fp, #2147483648	; 0x80000000
    3594:	9f04      	ldr	r7, [sp, #16]
    3596:	0d1b      	lsrs	r3, r3, #20
    3598:	051b      	lsls	r3, r3, #20
    359a:	2f00      	cmp	r7, #0
    359c:	f000 809c 	beq.w	36d8 <_strtod_r+0x8e0>
    35a0:	f1b3 6fd6 	cmp.w	r3, #112197632	; 0x6b00000
    35a4:	f200 8098 	bhi.w	36d8 <_strtod_r+0x8e0>
    35a8:	f1b3 7f5c 	cmp.w	r3, #57671680	; 0x3700000
    35ac:	f200 81f1 	bhi.w	3992 <_strtod_r+0xb9a>
    35b0:	9e07      	ldr	r6, [sp, #28]
    35b2:	2322      	movs	r3, #34	; 0x22
    35b4:	f04f 0a00 	mov.w	sl, #0
    35b8:	f04f 0b00 	mov.w	fp, #0
    35bc:	f8c9 3000 	str.w	r3, [r9]
    35c0:	2e00      	cmp	r6, #0
    35c2:	f040 81f7 	bne.w	39b4 <_strtod_r+0xbbc>
    35c6:	e209      	b.n	39dc <_strtod_r+0xbe4>
    35c8:	1afa      	subs	r2, r7, r3
    35ca:	9c0e      	ldr	r4, [sp, #56]	; 0x38
    35cc:	e774      	b.n	34b8 <_strtod_r+0x6c0>
    35ce:	4e84      	ldr	r6, [pc, #528]	; (37e0 <_strtod_r+0x9e8>)
    35d0:	9014      	str	r0, [sp, #80]	; 0x50
    35d2:	1a76      	subs	r6, r6, r1
    35d4:	fa00 f606 	lsl.w	r6, r0, r6
    35d8:	960f      	str	r6, [sp, #60]	; 0x3c
    35da:	e783      	b.n	34e4 <_strtod_r+0x6ec>
    35dc:	2600      	movs	r6, #0
    35de:	f04f 0c01 	mov.w	ip, #1
    35e2:	960f      	str	r6, [sp, #60]	; 0x3c
    35e4:	f8cd c050 	str.w	ip, [sp, #80]	; 0x50
    35e8:	e77c      	b.n	34e4 <_strtod_r+0x6ec>
    35ea:	4648      	mov	r0, r9
    35ec:	9903      	ldr	r1, [sp, #12]
    35ee:	9a0e      	ldr	r2, [sp, #56]	; 0x38
    35f0:	f7ff f92a 	bl	2848 <__pow5mult>
    35f4:	9003      	str	r0, [sp, #12]
    35f6:	2800      	cmp	r0, #0
    35f8:	f43f ae56 	beq.w	32a8 <_strtod_r+0x4b0>
    35fc:	4648      	mov	r0, r9
    35fe:	9903      	ldr	r1, [sp, #12]
    3600:	9a1a      	ldr	r2, [sp, #104]	; 0x68
    3602:	f7ff f888 	bl	2716 <__multiply>
    3606:	4603      	mov	r3, r0
    3608:	2800      	cmp	r0, #0
    360a:	f43f ae4d 	beq.w	32a8 <_strtod_r+0x4b0>
    360e:	4648      	mov	r0, r9
    3610:	991a      	ldr	r1, [sp, #104]	; 0x68
    3612:	9302      	str	r3, [sp, #8]
    3614:	f7fe ff96 	bl	2544 <_Bfree>
    3618:	9b02      	ldr	r3, [sp, #8]
    361a:	931a      	str	r3, [sp, #104]	; 0x68
    361c:	e775      	b.n	350a <_strtod_r+0x712>
    361e:	4648      	mov	r0, r9
    3620:	991a      	ldr	r1, [sp, #104]	; 0x68
    3622:	4632      	mov	r2, r6
    3624:	f7ff f95e 	bl	28e4 <__lshift>
    3628:	901a      	str	r0, [sp, #104]	; 0x68
    362a:	2800      	cmp	r0, #0
    362c:	f47f af70 	bne.w	3510 <_strtod_r+0x718>
    3630:	e63a      	b.n	32a8 <_strtod_r+0x4b0>
    3632:	4648      	mov	r0, r9
    3634:	9905      	ldr	r1, [sp, #20]
    3636:	463a      	mov	r2, r7
    3638:	f7ff f906 	bl	2848 <__pow5mult>
    363c:	9005      	str	r0, [sp, #20]
    363e:	2800      	cmp	r0, #0
    3640:	f47f af69 	bne.w	3516 <_strtod_r+0x71e>
    3644:	e630      	b.n	32a8 <_strtod_r+0x4b0>
    3646:	4648      	mov	r0, r9
    3648:	9905      	ldr	r1, [sp, #20]
    364a:	462a      	mov	r2, r5
    364c:	f7ff f94a 	bl	28e4 <__lshift>
    3650:	9005      	str	r0, [sp, #20]
    3652:	2800      	cmp	r0, #0
    3654:	f47f af62 	bne.w	351c <_strtod_r+0x724>
    3658:	e626      	b.n	32a8 <_strtod_r+0x4b0>
    365a:	4648      	mov	r0, r9
    365c:	9903      	ldr	r1, [sp, #12]
    365e:	4622      	mov	r2, r4
    3660:	f7ff f940 	bl	28e4 <__lshift>
    3664:	9003      	str	r0, [sp, #12]
    3666:	2800      	cmp	r0, #0
    3668:	f47f af5b 	bne.w	3522 <_strtod_r+0x72a>
    366c:	e61c      	b.n	32a8 <_strtod_r+0x4b0>
    366e:	f8d8 3010 	ldr.w	r3, [r8, #16]
    3672:	2b01      	cmp	r3, #1
    3674:	dc80      	bgt.n	3578 <_strtod_r+0x780>
    3676:	e18a      	b.n	398e <_strtod_r+0xb96>
    3678:	d163      	bne.n	3742 <_strtod_r+0x94a>
    367a:	9f08      	ldr	r7, [sp, #32]
    367c:	f3cb 0313 	ubfx	r3, fp, #0, #20
    3680:	b32f      	cbz	r7, 36ce <_strtod_r+0x8d6>
    3682:	4958      	ldr	r1, [pc, #352]	; (37e4 <_strtod_r+0x9ec>)
    3684:	465a      	mov	r2, fp
    3686:	428b      	cmp	r3, r1
    3688:	d12f      	bne.n	36ea <_strtod_r+0x8f2>
    368a:	9e04      	ldr	r6, [sp, #16]
    368c:	4651      	mov	r1, sl
    368e:	b16e      	cbz	r6, 36ac <_strtod_r+0x8b4>
    3690:	4b55      	ldr	r3, [pc, #340]	; (37e8 <_strtod_r+0x9f0>)
    3692:	ea0b 0303 	and.w	r3, fp, r3
    3696:	f1b3 6fd4 	cmp.w	r3, #111149056	; 0x6a00000
    369a:	d807      	bhi.n	36ac <_strtod_r+0x8b4>
    369c:	0d1b      	lsrs	r3, r3, #20
    369e:	f1c3 036b 	rsb	r3, r3, #107	; 0x6b
    36a2:	f04f 30ff 	mov.w	r0, #4294967295	; 0xffffffff
    36a6:	fa00 f303 	lsl.w	r3, r0, r3
    36aa:	e001      	b.n	36b0 <_strtod_r+0x8b8>
    36ac:	f04f 33ff 	mov.w	r3, #4294967295	; 0xffffffff
    36b0:	4299      	cmp	r1, r3
    36b2:	d11a      	bne.n	36ea <_strtod_r+0x8f2>
    36b4:	4b4d      	ldr	r3, [pc, #308]	; (37ec <_strtod_r+0x9f4>)
    36b6:	429a      	cmp	r2, r3
    36b8:	d102      	bne.n	36c0 <_strtod_r+0x8c8>
    36ba:	3101      	adds	r1, #1
    36bc:	f43f adf4 	beq.w	32a8 <_strtod_r+0x4b0>
    36c0:	4b49      	ldr	r3, [pc, #292]	; (37e8 <_strtod_r+0x9f0>)
    36c2:	f04f 0a00 	mov.w	sl, #0
    36c6:	4013      	ands	r3, r2
    36c8:	f503 1b80 	add.w	fp, r3, #1048576	; 0x100000
    36cc:	e15f      	b.n	398e <_strtod_r+0xb96>
    36ce:	b963      	cbnz	r3, 36ea <_strtod_r+0x8f2>
    36d0:	f1ba 0f00 	cmp.w	sl, #0
    36d4:	d109      	bne.n	36ea <_strtod_r+0x8f2>
    36d6:	e75b      	b.n	3590 <_strtod_r+0x798>
    36d8:	f5a3 1380 	sub.w	r3, r3, #1048576	; 0x100000
    36dc:	ea6f 5b13 	mvn.w	fp, r3, lsr #20
    36e0:	ea6f 5b0b 	mvn.w	fp, fp, lsl #20
    36e4:	f04f 3aff 	mov.w	sl, #4294967295	; 0xffffffff
    36e8:	e151      	b.n	398e <_strtod_r+0xb96>
    36ea:	9b0f      	ldr	r3, [sp, #60]	; 0x3c
    36ec:	b113      	cbz	r3, 36f4 <_strtod_r+0x8fc>
    36ee:	ea13 0f0b 	tst.w	r3, fp
    36f2:	e002      	b.n	36fa <_strtod_r+0x902>
    36f4:	9e14      	ldr	r6, [sp, #80]	; 0x50
    36f6:	ea16 0f0a 	tst.w	r6, sl
    36fa:	f000 8148 	beq.w	398e <_strtod_r+0xb96>
    36fe:	9f08      	ldr	r7, [sp, #32]
    3700:	4650      	mov	r0, sl
    3702:	4659      	mov	r1, fp
    3704:	9a04      	ldr	r2, [sp, #16]
    3706:	b157      	cbz	r7, 371e <_strtod_r+0x926>
    3708:	f7ff fb54 	bl	2db4 <sulp>
    370c:	4602      	mov	r2, r0
    370e:	460b      	mov	r3, r1
    3710:	e9dd 010a 	ldrd	r0, r1, [sp, #40]	; 0x28
    3714:	f000 fcb8 	bl	4088 <__adddf3>
    3718:	4682      	mov	sl, r0
    371a:	468b      	mov	fp, r1
    371c:	e137      	b.n	398e <_strtod_r+0xb96>
    371e:	f7ff fb49 	bl	2db4 <sulp>
    3722:	4602      	mov	r2, r0
    3724:	460b      	mov	r3, r1
    3726:	e9dd 010a 	ldrd	r0, r1, [sp, #40]	; 0x28
    372a:	f000 fcab 	bl	4084 <__aeabi_dsub>
    372e:	2200      	movs	r2, #0
    3730:	2300      	movs	r3, #0
    3732:	4682      	mov	sl, r0
    3734:	468b      	mov	fp, r1
    3736:	f001 f8c1 	bl	48bc <__aeabi_dcmpeq>
    373a:	2800      	cmp	r0, #0
    373c:	f47f af38 	bne.w	35b0 <_strtod_r+0x7b8>
    3740:	e125      	b.n	398e <_strtod_r+0xb96>
    3742:	4640      	mov	r0, r8
    3744:	9903      	ldr	r1, [sp, #12]
    3746:	f7ff fa64 	bl	2c12 <__ratio>
    374a:	2200      	movs	r2, #0
    374c:	f04f 4380 	mov.w	r3, #1073741824	; 0x40000000
    3750:	4604      	mov	r4, r0
    3752:	460d      	mov	r5, r1
    3754:	f001 f8c6 	bl	48e4 <__aeabi_dcmple>
    3758:	2800      	cmp	r0, #0
    375a:	d032      	beq.n	37c2 <_strtod_r+0x9ca>
    375c:	9e08      	ldr	r6, [sp, #32]
    375e:	b126      	cbz	r6, 376a <_strtod_r+0x972>
    3760:	4f23      	ldr	r7, [pc, #140]	; (37f0 <_strtod_r+0x9f8>)
    3762:	2600      	movs	r6, #0
    3764:	4634      	mov	r4, r6
    3766:	463d      	mov	r5, r7
    3768:	e04c      	b.n	3804 <_strtod_r+0xa0c>
    376a:	f1ba 0f00 	cmp.w	sl, #0
    376e:	d103      	bne.n	3778 <_strtod_r+0x980>
    3770:	f3cb 0313 	ubfx	r3, fp, #0, #20
    3774:	b93b      	cbnz	r3, 3786 <_strtod_r+0x98e>
    3776:	e00b      	b.n	3790 <_strtod_r+0x998>
    3778:	f1ba 0f01 	cmp.w	sl, #1
    377c:	d103      	bne.n	3786 <_strtod_r+0x98e>
    377e:	f1bb 0f00 	cmp.w	fp, #0
    3782:	f43f af15 	beq.w	35b0 <_strtod_r+0x7b8>
    3786:	2600      	movs	r6, #0
    3788:	4f1a      	ldr	r7, [pc, #104]	; (37f4 <_strtod_r+0x9fc>)
    378a:	2400      	movs	r4, #0
    378c:	4d18      	ldr	r5, [pc, #96]	; (37f0 <_strtod_r+0x9f8>)
    378e:	e039      	b.n	3804 <_strtod_r+0xa0c>
    3790:	4620      	mov	r0, r4
    3792:	4629      	mov	r1, r5
    3794:	2200      	movs	r2, #0
    3796:	4b16      	ldr	r3, [pc, #88]	; (37f0 <_strtod_r+0x9f8>)
    3798:	f001 f89a 	bl	48d0 <__aeabi_dcmplt>
    379c:	b940      	cbnz	r0, 37b0 <_strtod_r+0x9b8>
    379e:	4620      	mov	r0, r4
    37a0:	4629      	mov	r1, r5
    37a2:	2200      	movs	r2, #0
    37a4:	4b14      	ldr	r3, [pc, #80]	; (37f8 <_strtod_r+0xa00>)
    37a6:	f000 fe21 	bl	43ec <__aeabi_dmul>
    37aa:	4604      	mov	r4, r0
    37ac:	460d      	mov	r5, r1
    37ae:	e001      	b.n	37b4 <_strtod_r+0x9bc>
    37b0:	4d11      	ldr	r5, [pc, #68]	; (37f8 <_strtod_r+0xa00>)
    37b2:	2400      	movs	r4, #0
    37b4:	f105 4700 	add.w	r7, r5, #2147483648	; 0x80000000
    37b8:	9416      	str	r4, [sp, #88]	; 0x58
    37ba:	9717      	str	r7, [sp, #92]	; 0x5c
    37bc:	e9dd 6716 	ldrd	r6, r7, [sp, #88]	; 0x58
    37c0:	e020      	b.n	3804 <_strtod_r+0xa0c>
    37c2:	4620      	mov	r0, r4
    37c4:	4629      	mov	r1, r5
    37c6:	2200      	movs	r2, #0
    37c8:	4b0b      	ldr	r3, [pc, #44]	; (37f8 <_strtod_r+0xa00>)
    37ca:	f000 fe0f 	bl	43ec <__aeabi_dmul>
    37ce:	9e08      	ldr	r6, [sp, #32]
    37d0:	4604      	mov	r4, r0
    37d2:	460d      	mov	r5, r1
    37d4:	b996      	cbnz	r6, 37fc <_strtod_r+0xa04>
    37d6:	f101 4700 	add.w	r7, r1, #2147483648	; 0x80000000
    37da:	9010      	str	r0, [sp, #64]	; 0x40
    37dc:	9711      	str	r7, [sp, #68]	; 0x44
    37de:	e00f      	b.n	3800 <_strtod_r+0xa08>
    37e0:	fffffbe3 			; <UNDEFINED> instruction: 0xfffffbe3
    37e4:	000fffff 	strdeq	pc, [pc], -pc	; <UNPREDICTABLE>
    37e8:	7ff00000 	svcvc	0x00f00000	; IMB
    37ec:	7fefffff 	svcvc	0x00efffff
    37f0:	3ff00000 	svccc	0x00f00000	; IMB
    37f4:	bff00000 	svclt	0x00f00000	; IMB
    37f8:	3fe00000 	svccc	0x00e00000
    37fc:	e9cd 4510 	strd	r4, r5, [sp, #64]	; 0x40
    3800:	e9dd 6710 	ldrd	r6, r7, [sp, #64]	; 0x40
    3804:	f02b 4c00 	bic.w	ip, fp, #2147483648	; 0x80000000
    3808:	ea4f 5c1c 	mov.w	ip, ip, lsr #20
    380c:	4b84      	ldr	r3, [pc, #528]	; (3a20 <_strtod_r+0xc28>)
    380e:	ea4f 5c0c 	mov.w	ip, ip, lsl #20
    3812:	459c      	cmp	ip, r3
    3814:	d131      	bne.n	387a <_strtod_r+0xa82>
    3816:	e9dd 010a 	ldrd	r0, r1, [sp, #40]	; 0x28
    381a:	f1ab 7b54 	sub.w	fp, fp, #55574528	; 0x3500000
    381e:	e9cd 010c 	strd	r0, r1, [sp, #48]	; 0x30
    3822:	4650      	mov	r0, sl
    3824:	4659      	mov	r1, fp
    3826:	f8cd c008 	str.w	ip, [sp, #8]
    382a:	f7ff f92b 	bl	2a84 <__ulp>
    382e:	4602      	mov	r2, r0
    3830:	460b      	mov	r3, r1
    3832:	4630      	mov	r0, r6
    3834:	4639      	mov	r1, r7
    3836:	f000 fdd9 	bl	43ec <__aeabi_dmul>
    383a:	4602      	mov	r2, r0
    383c:	460b      	mov	r3, r1
    383e:	4650      	mov	r0, sl
    3840:	4659      	mov	r1, fp
    3842:	f000 fc21 	bl	4088 <__adddf3>
    3846:	f021 4300 	bic.w	r3, r1, #2147483648	; 0x80000000
    384a:	0d1b      	lsrs	r3, r3, #20
    384c:	4a75      	ldr	r2, [pc, #468]	; (3a24 <_strtod_r+0xc2c>)
    384e:	051b      	lsls	r3, r3, #20
    3850:	4293      	cmp	r3, r2
    3852:	4682      	mov	sl, r0
    3854:	f8dd c008 	ldr.w	ip, [sp, #8]
    3858:	d90c      	bls.n	3874 <_strtod_r+0xa7c>
    385a:	4b73      	ldr	r3, [pc, #460]	; (3a28 <_strtod_r+0xc30>)
    385c:	990d      	ldr	r1, [sp, #52]	; 0x34
    385e:	4299      	cmp	r1, r3
    3860:	d103      	bne.n	386a <_strtod_r+0xa72>
    3862:	9a0c      	ldr	r2, [sp, #48]	; 0x30
    3864:	3201      	adds	r2, #1
    3866:	f43f ad1f 	beq.w	32a8 <_strtod_r+0x4b0>
    386a:	f8df b1bc 	ldr.w	fp, [pc, #444]	; 3a28 <_strtod_r+0xc30>
    386e:	f04f 3aff 	mov.w	sl, #4294967295	; 0xffffffff
    3872:	e07b      	b.n	396c <_strtod_r+0xb74>
    3874:	f101 7b54 	add.w	fp, r1, #55574528	; 0x3500000
    3878:	e042      	b.n	3900 <_strtod_r+0xb08>
    387a:	9b04      	ldr	r3, [sp, #16]
    387c:	b353      	cbz	r3, 38d4 <_strtod_r+0xadc>
    387e:	f1bc 6fd4 	cmp.w	ip, #111149056	; 0x6a00000
    3882:	d827      	bhi.n	38d4 <_strtod_r+0xadc>
    3884:	a35e      	add	r3, pc, #376	; (adr r3, 3a00 <_strtod_r+0xc08>)
    3886:	e9d3 2300 	ldrd	r2, r3, [r3]
    388a:	4620      	mov	r0, r4
    388c:	4629      	mov	r1, r5
    388e:	f8cd c008 	str.w	ip, [sp, #8]
    3892:	f001 f827 	bl	48e4 <__aeabi_dcmple>
    3896:	f8dd c008 	ldr.w	ip, [sp, #8]
    389a:	b1b8      	cbz	r0, 38cc <_strtod_r+0xad4>
    389c:	4629      	mov	r1, r5
    389e:	4620      	mov	r0, r4
    38a0:	f001 f866 	bl	4970 <__aeabi_d2uiz>
    38a4:	2800      	cmp	r0, #0
    38a6:	bf08      	it	eq
    38a8:	2001      	moveq	r0, #1
    38aa:	f000 fd29 	bl	4300 <__aeabi_ui2d>
    38ae:	9e08      	ldr	r6, [sp, #32]
    38b0:	4604      	mov	r4, r0
    38b2:	460d      	mov	r5, r1
    38b4:	f8dd c008 	ldr.w	ip, [sp, #8]
    38b8:	b926      	cbnz	r6, 38c4 <_strtod_r+0xacc>
    38ba:	f101 4700 	add.w	r7, r1, #2147483648	; 0x80000000
    38be:	9012      	str	r0, [sp, #72]	; 0x48
    38c0:	9713      	str	r7, [sp, #76]	; 0x4c
    38c2:	e001      	b.n	38c8 <_strtod_r+0xad0>
    38c4:	e9cd 4512 	strd	r4, r5, [sp, #72]	; 0x48
    38c8:	e9dd 6712 	ldrd	r6, r7, [sp, #72]	; 0x48
    38cc:	f107 63d6 	add.w	r3, r7, #112197632	; 0x6b00000
    38d0:	ebcc 0703 	rsb	r7, ip, r3
    38d4:	e9dd 010a 	ldrd	r0, r1, [sp, #40]	; 0x28
    38d8:	f8cd c008 	str.w	ip, [sp, #8]
    38dc:	f7ff f8d2 	bl	2a84 <__ulp>
    38e0:	4602      	mov	r2, r0
    38e2:	460b      	mov	r3, r1
    38e4:	4630      	mov	r0, r6
    38e6:	4639      	mov	r1, r7
    38e8:	f000 fd80 	bl	43ec <__aeabi_dmul>
    38ec:	4602      	mov	r2, r0
    38ee:	460b      	mov	r3, r1
    38f0:	e9dd 010a 	ldrd	r0, r1, [sp, #40]	; 0x28
    38f4:	f000 fbc8 	bl	4088 <__adddf3>
    38f8:	f8dd c008 	ldr.w	ip, [sp, #8]
    38fc:	4682      	mov	sl, r0
    38fe:	468b      	mov	fp, r1
    3900:	9f04      	ldr	r7, [sp, #16]
    3902:	2f00      	cmp	r7, #0
    3904:	d132      	bne.n	396c <_strtod_r+0xb74>
    3906:	f02b 4300 	bic.w	r3, fp, #2147483648	; 0x80000000
    390a:	0d1b      	lsrs	r3, r3, #20
    390c:	051b      	lsls	r3, r3, #20
    390e:	459c      	cmp	ip, r3
    3910:	d12c      	bne.n	396c <_strtod_r+0xb74>
    3912:	4629      	mov	r1, r5
    3914:	4620      	mov	r0, r4
    3916:	f001 f803 	bl	4920 <__aeabi_d2iz>
    391a:	f000 fd01 	bl	4320 <__aeabi_i2d>
    391e:	4602      	mov	r2, r0
    3920:	460b      	mov	r3, r1
    3922:	4620      	mov	r0, r4
    3924:	4629      	mov	r1, r5
    3926:	f000 fbad 	bl	4084 <__aeabi_dsub>
    392a:	9f08      	ldr	r7, [sp, #32]
    392c:	4604      	mov	r4, r0
    392e:	460d      	mov	r5, r1
    3930:	b92f      	cbnz	r7, 393e <_strtod_r+0xb46>
    3932:	f1ba 0f00 	cmp.w	sl, #0
    3936:	d102      	bne.n	393e <_strtod_r+0xb46>
    3938:	f3cb 0613 	ubfx	r6, fp, #0, #20
    393c:	b186      	cbz	r6, 3960 <_strtod_r+0xb68>
    393e:	4620      	mov	r0, r4
    3940:	4629      	mov	r1, r5
    3942:	a331      	add	r3, pc, #196	; (adr r3, 3a08 <_strtod_r+0xc10>)
    3944:	e9d3 2300 	ldrd	r2, r3, [r3]
    3948:	f000 ffc2 	bl	48d0 <__aeabi_dcmplt>
    394c:	2800      	cmp	r0, #0
    394e:	d131      	bne.n	39b4 <_strtod_r+0xbbc>
    3950:	4620      	mov	r0, r4
    3952:	4629      	mov	r1, r5
    3954:	a32e      	add	r3, pc, #184	; (adr r3, 3a10 <_strtod_r+0xc18>)
    3956:	e9d3 2300 	ldrd	r2, r3, [r3]
    395a:	f000 ffd7 	bl	490c <__aeabi_dcmpgt>
    395e:	e004      	b.n	396a <_strtod_r+0xb72>
    3960:	a32d      	add	r3, pc, #180	; (adr r3, 3a18 <_strtod_r+0xc20>)
    3962:	e9d3 2300 	ldrd	r2, r3, [r3]
    3966:	f000 ffb3 	bl	48d0 <__aeabi_dcmplt>
    396a:	bb18      	cbnz	r0, 39b4 <_strtod_r+0xbbc>
    396c:	4648      	mov	r0, r9
    396e:	991a      	ldr	r1, [sp, #104]	; 0x68
    3970:	f7fe fde8 	bl	2544 <_Bfree>
    3974:	4648      	mov	r0, r9
    3976:	9905      	ldr	r1, [sp, #20]
    3978:	f7fe fde4 	bl	2544 <_Bfree>
    397c:	4648      	mov	r0, r9
    397e:	9903      	ldr	r1, [sp, #12]
    3980:	f7fe fde0 	bl	2544 <_Bfree>
    3984:	4648      	mov	r0, r9
    3986:	4641      	mov	r1, r8
    3988:	f7fe fddc 	bl	2544 <_Bfree>
    398c:	e561      	b.n	3452 <_strtod_r+0x65a>
    398e:	9e04      	ldr	r6, [sp, #16]
    3990:	b186      	cbz	r6, 39b4 <_strtod_r+0xbbc>
    3992:	4f26      	ldr	r7, [pc, #152]	; (3a2c <_strtod_r+0xc34>)
    3994:	2000      	movs	r0, #0
    3996:	900c      	str	r0, [sp, #48]	; 0x30
    3998:	970d      	str	r7, [sp, #52]	; 0x34
    399a:	4650      	mov	r0, sl
    399c:	4659      	mov	r1, fp
    399e:	e9dd 230c 	ldrd	r2, r3, [sp, #48]	; 0x30
    39a2:	f000 fd23 	bl	43ec <__aeabi_dmul>
    39a6:	4682      	mov	sl, r0
    39a8:	468b      	mov	fp, r1
    39aa:	b919      	cbnz	r1, 39b4 <_strtod_r+0xbbc>
    39ac:	b910      	cbnz	r0, 39b4 <_strtod_r+0xbbc>
    39ae:	2322      	movs	r3, #34	; 0x22
    39b0:	f8c9 3000 	str.w	r3, [r9]
    39b4:	4648      	mov	r0, r9
    39b6:	991a      	ldr	r1, [sp, #104]	; 0x68
    39b8:	f7fe fdc4 	bl	2544 <_Bfree>
    39bc:	4648      	mov	r0, r9
    39be:	9905      	ldr	r1, [sp, #20]
    39c0:	f7fe fdc0 	bl	2544 <_Bfree>
    39c4:	4648      	mov	r0, r9
    39c6:	9903      	ldr	r1, [sp, #12]
    39c8:	f7fe fdbc 	bl	2544 <_Bfree>
    39cc:	4648      	mov	r0, r9
    39ce:	9907      	ldr	r1, [sp, #28]
    39d0:	f7fe fdb8 	bl	2544 <_Bfree>
    39d4:	4648      	mov	r0, r9
    39d6:	4641      	mov	r1, r8
    39d8:	f7fe fdb4 	bl	2544 <_Bfree>
    39dc:	9e15      	ldr	r6, [sp, #84]	; 0x54
    39de:	b10e      	cbz	r6, 39e4 <_strtod_r+0xbec>
    39e0:	9b19      	ldr	r3, [sp, #100]	; 0x64
    39e2:	6033      	str	r3, [r6, #0]
    39e4:	9f09      	ldr	r7, [sp, #36]	; 0x24
    39e6:	b11f      	cbz	r7, 39f0 <_strtod_r+0xbf8>
    39e8:	4650      	mov	r0, sl
    39ea:	f10b 4100 	add.w	r1, fp, #2147483648	; 0x80000000
    39ee:	e001      	b.n	39f4 <_strtod_r+0xbfc>
    39f0:	4650      	mov	r0, sl
    39f2:	4659      	mov	r1, fp
    39f4:	b01f      	add	sp, #124	; 0x7c
    39f6:	e8bd 8ff0 	ldmia.w	sp!, {r4, r5, r6, r7, r8, r9, sl, fp, pc}
    39fa:	bf00      	nop
    39fc:	f3af 8000 	nop.w
    3a00:	ffc00000 			; <UNDEFINED> instruction: 0xffc00000
    3a04:	41dfffff 	ldrshmi	pc, [pc, #255]	; 3b0b <__gethex+0x47>	; <UNPREDICTABLE>
    3a08:	94a03595 	strtls	r3, [r0], #1429	; 0x595
    3a0c:	3fdfffff 	svccc	0x00dfffff
    3a10:	35afe535 	strcc	lr, [pc, #1333]!	; 3f4d <__hexnan+0x5>
    3a14:	3fe00000 	svccc	0x00e00000
    3a18:	94a03595 	strtls	r3, [r0], #1429	; 0x595
    3a1c:	3fcfffff 	svccc	0x00cfffff
    3a20:	7fe00000 	svcvc	0x00e00000
    3a24:	7c9fffff 	ldcvc	15, cr15, [pc], {255}	; 0xff
    3a28:	7fefffff 	svcvc	0x00efffff
    3a2c:	39500000 	ldmdbcc	r0, {}^	; <UNPREDICTABLE>

00003a30 <rshift>:
    3a30:	b5f0      	push	{r4, r5, r6, r7, lr}
    3a32:	6906      	ldr	r6, [r0, #16]
    3a34:	114b      	asrs	r3, r1, #5
    3a36:	42b3      	cmp	r3, r6
    3a38:	f100 0214 	add.w	r2, r0, #20
    3a3c:	da26      	bge.n	3a8c <rshift+0x5c>
    3a3e:	f011 011f 	ands.w	r1, r1, #31
    3a42:	eb02 0686 	add.w	r6, r2, r6, lsl #2
    3a46:	eb02 0483 	add.w	r4, r2, r3, lsl #2
    3a4a:	d101      	bne.n	3a50 <rshift+0x20>
    3a4c:	4613      	mov	r3, r2
    3a4e:	e016      	b.n	3a7e <rshift+0x4e>
    3a50:	f852 5023 	ldr.w	r5, [r2, r3, lsl #2]
    3a54:	f1c1 0c20 	rsb	ip, r1, #32
    3a58:	40cd      	lsrs	r5, r1
    3a5a:	3404      	adds	r4, #4
    3a5c:	4613      	mov	r3, r2
    3a5e:	42b4      	cmp	r4, r6
    3a60:	d209      	bcs.n	3a76 <rshift+0x46>
    3a62:	6827      	ldr	r7, [r4, #0]
    3a64:	fa07 f70c 	lsl.w	r7, r7, ip
    3a68:	433d      	orrs	r5, r7
    3a6a:	f843 5b04 	str.w	r5, [r3], #4
    3a6e:	f854 5b04 	ldr.w	r5, [r4], #4
    3a72:	40cd      	lsrs	r5, r1
    3a74:	e7f3      	b.n	3a5e <rshift+0x2e>
    3a76:	601d      	str	r5, [r3, #0]
    3a78:	b14d      	cbz	r5, 3a8e <rshift+0x5e>
    3a7a:	3304      	adds	r3, #4
    3a7c:	e007      	b.n	3a8e <rshift+0x5e>
    3a7e:	42b4      	cmp	r4, r6
    3a80:	d205      	bcs.n	3a8e <rshift+0x5e>
    3a82:	f854 1b04 	ldr.w	r1, [r4], #4
    3a86:	f843 1b04 	str.w	r1, [r3], #4
    3a8a:	e7f8      	b.n	3a7e <rshift+0x4e>
    3a8c:	4613      	mov	r3, r2
    3a8e:	1a9b      	subs	r3, r3, r2
    3a90:	109b      	asrs	r3, r3, #2
    3a92:	6103      	str	r3, [r0, #16]
    3a94:	b903      	cbnz	r3, 3a98 <rshift+0x68>
    3a96:	6143      	str	r3, [r0, #20]
    3a98:	bdf0      	pop	{r4, r5, r6, r7, pc}

00003a9a <__hexdig_fun>:
    3a9a:	f1a0 0330 	sub.w	r3, r0, #48	; 0x30
    3a9e:	2b09      	cmp	r3, #9
    3aa0:	d801      	bhi.n	3aa6 <__hexdig_fun+0xc>
    3aa2:	3820      	subs	r0, #32
    3aa4:	e00a      	b.n	3abc <__hexdig_fun+0x22>
    3aa6:	f1a0 0361 	sub.w	r3, r0, #97	; 0x61
    3aaa:	2b05      	cmp	r3, #5
    3aac:	d801      	bhi.n	3ab2 <__hexdig_fun+0x18>
    3aae:	3847      	subs	r0, #71	; 0x47
    3ab0:	e004      	b.n	3abc <__hexdig_fun+0x22>
    3ab2:	f1a0 0341 	sub.w	r3, r0, #65	; 0x41
    3ab6:	2b05      	cmp	r3, #5
    3ab8:	d802      	bhi.n	3ac0 <__hexdig_fun+0x26>
    3aba:	3827      	subs	r0, #39	; 0x27
    3abc:	b2c0      	uxtb	r0, r0
    3abe:	4770      	bx	lr
    3ac0:	2000      	movs	r0, #0
    3ac2:	4770      	bx	lr

00003ac4 <__gethex>:
    3ac4:	e92d 4ff0 	stmdb	sp!, {r4, r5, r6, r7, r8, r9, sl, fp, lr}
    3ac8:	b089      	sub	sp, #36	; 0x24
    3aca:	9105      	str	r1, [sp, #20]
    3acc:	9306      	str	r3, [sp, #24]
    3ace:	4690      	mov	r8, r2
    3ad0:	9003      	str	r0, [sp, #12]
    3ad2:	f7fe fcd5 	bl	2480 <_localeconv_r>
    3ad6:	6800      	ldr	r0, [r0, #0]
    3ad8:	f04f 0b00 	mov.w	fp, #0
    3adc:	9004      	str	r0, [sp, #16]
    3ade:	f7fc fe81 	bl	7e4 <strlen>
    3ae2:	9b04      	ldr	r3, [sp, #16]
    3ae4:	9905      	ldr	r1, [sp, #20]
    3ae6:	4403      	add	r3, r0
    3ae8:	f813 3c01 	ldrb.w	r3, [r3, #-1]
    3aec:	9002      	str	r0, [sp, #8]
    3aee:	9307      	str	r3, [sp, #28]
    3af0:	680b      	ldr	r3, [r1, #0]
    3af2:	3302      	adds	r3, #2
    3af4:	461f      	mov	r7, r3
    3af6:	f813 0b01 	ldrb.w	r0, [r3], #1
    3afa:	2830      	cmp	r0, #48	; 0x30
    3afc:	d102      	bne.n	3b04 <__gethex+0x40>
    3afe:	f10b 0b01 	add.w	fp, fp, #1
    3b02:	e7f7      	b.n	3af4 <__gethex+0x30>
    3b04:	f7ff ffc9 	bl	3a9a <__hexdig_fun>
    3b08:	4606      	mov	r6, r0
    3b0a:	b9f8      	cbnz	r0, 3b4c <__gethex+0x88>
    3b0c:	4638      	mov	r0, r7
    3b0e:	9904      	ldr	r1, [sp, #16]
    3b10:	9a02      	ldr	r2, [sp, #8]
    3b12:	f7fc fe6f 	bl	7f4 <strncmp>
    3b16:	2800      	cmp	r0, #0
    3b18:	d139      	bne.n	3b8e <__gethex+0xca>
    3b1a:	9b02      	ldr	r3, [sp, #8]
    3b1c:	9d02      	ldr	r5, [sp, #8]
    3b1e:	5cf8      	ldrb	r0, [r7, r3]
    3b20:	443d      	add	r5, r7
    3b22:	f7ff ffba 	bl	3a9a <__hexdig_fun>
    3b26:	2800      	cmp	r0, #0
    3b28:	d033      	beq.n	3b92 <__gethex+0xce>
    3b2a:	462b      	mov	r3, r5
    3b2c:	7818      	ldrb	r0, [r3, #0]
    3b2e:	461f      	mov	r7, r3
    3b30:	2830      	cmp	r0, #48	; 0x30
    3b32:	f103 0301 	add.w	r3, r3, #1
    3b36:	d0f9      	beq.n	3b2c <__gethex+0x68>
    3b38:	f7ff ffaf 	bl	3a9a <__hexdig_fun>
    3b3c:	f1d0 0401 	rsbs	r4, r0, #1
    3b40:	bf38      	it	cc
    3b42:	2400      	movcc	r4, #0
    3b44:	462e      	mov	r6, r5
    3b46:	f04f 0b01 	mov.w	fp, #1
    3b4a:	e001      	b.n	3b50 <__gethex+0x8c>
    3b4c:	2400      	movs	r4, #0
    3b4e:	4626      	mov	r6, r4
    3b50:	46b9      	mov	r9, r7
    3b52:	464d      	mov	r5, r9
    3b54:	7828      	ldrb	r0, [r5, #0]
    3b56:	f109 0901 	add.w	r9, r9, #1
    3b5a:	f7ff ff9e 	bl	3a9a <__hexdig_fun>
    3b5e:	2800      	cmp	r0, #0
    3b60:	d1f7      	bne.n	3b52 <__gethex+0x8e>
    3b62:	4628      	mov	r0, r5
    3b64:	9904      	ldr	r1, [sp, #16]
    3b66:	9a02      	ldr	r2, [sp, #8]
    3b68:	f7fc fe44 	bl	7f4 <strncmp>
    3b6c:	b958      	cbnz	r0, 3b86 <__gethex+0xc2>
    3b6e:	b95e      	cbnz	r6, 3b88 <__gethex+0xc4>
    3b70:	9e02      	ldr	r6, [sp, #8]
    3b72:	442e      	add	r6, r5
    3b74:	46b1      	mov	r9, r6
    3b76:	464d      	mov	r5, r9
    3b78:	7828      	ldrb	r0, [r5, #0]
    3b7a:	f109 0901 	add.w	r9, r9, #1
    3b7e:	f7ff ff8c 	bl	3a9a <__hexdig_fun>
    3b82:	2800      	cmp	r0, #0
    3b84:	d1f7      	bne.n	3b76 <__gethex+0xb2>
    3b86:	b136      	cbz	r6, 3b96 <__gethex+0xd2>
    3b88:	1b76      	subs	r6, r6, r5
    3b8a:	00b6      	lsls	r6, r6, #2
    3b8c:	e003      	b.n	3b96 <__gethex+0xd2>
    3b8e:	463d      	mov	r5, r7
    3b90:	e000      	b.n	3b94 <__gethex+0xd0>
    3b92:	4606      	mov	r6, r0
    3b94:	2401      	movs	r4, #1
    3b96:	782b      	ldrb	r3, [r5, #0]
    3b98:	2b50      	cmp	r3, #80	; 0x50
    3b9a:	d001      	beq.n	3ba0 <__gethex+0xdc>
    3b9c:	2b70      	cmp	r3, #112	; 0x70
    3b9e:	d134      	bne.n	3c0a <__gethex+0x146>
    3ba0:	786b      	ldrb	r3, [r5, #1]
    3ba2:	2b2b      	cmp	r3, #43	; 0x2b
    3ba4:	d005      	beq.n	3bb2 <__gethex+0xee>
    3ba6:	2b2d      	cmp	r3, #45	; 0x2d
    3ba8:	d005      	beq.n	3bb6 <__gethex+0xf2>
    3baa:	f105 0901 	add.w	r9, r5, #1
    3bae:	2100      	movs	r1, #0
    3bb0:	e004      	b.n	3bbc <__gethex+0xf8>
    3bb2:	2100      	movs	r1, #0
    3bb4:	e000      	b.n	3bb8 <__gethex+0xf4>
    3bb6:	2101      	movs	r1, #1
    3bb8:	f105 0902 	add.w	r9, r5, #2
    3bbc:	f899 0000 	ldrb.w	r0, [r9]
    3bc0:	9101      	str	r1, [sp, #4]
    3bc2:	f7ff ff6a 	bl	3a9a <__hexdig_fun>
    3bc6:	1e43      	subs	r3, r0, #1
    3bc8:	b2db      	uxtb	r3, r3
    3bca:	2b18      	cmp	r3, #24
    3bcc:	9901      	ldr	r1, [sp, #4]
    3bce:	d81c      	bhi.n	3c0a <__gethex+0x146>
    3bd0:	f1a0 0a10 	sub.w	sl, r0, #16
    3bd4:	f109 0301 	add.w	r3, r9, #1
    3bd8:	4699      	mov	r9, r3
    3bda:	f899 0000 	ldrb.w	r0, [r9]
    3bde:	3301      	adds	r3, #1
    3be0:	9101      	str	r1, [sp, #4]
    3be2:	9300      	str	r3, [sp, #0]
    3be4:	f7ff ff59 	bl	3a9a <__hexdig_fun>
    3be8:	1e42      	subs	r2, r0, #1
    3bea:	b2d2      	uxtb	r2, r2
    3bec:	2a18      	cmp	r2, #24
    3bee:	9901      	ldr	r1, [sp, #4]
    3bf0:	9b00      	ldr	r3, [sp, #0]
    3bf2:	d805      	bhi.n	3c00 <__gethex+0x13c>
    3bf4:	220a      	movs	r2, #10
    3bf6:	fb02 0a0a 	mla	sl, r2, sl, r0
    3bfa:	f1aa 0a10 	sub.w	sl, sl, #16
    3bfe:	e7eb      	b.n	3bd8 <__gethex+0x114>
    3c00:	b109      	cbz	r1, 3c06 <__gethex+0x142>
    3c02:	f1ca 0a00 	rsb	sl, sl, #0
    3c06:	4456      	add	r6, sl
    3c08:	e000      	b.n	3c0c <__gethex+0x148>
    3c0a:	46a9      	mov	r9, r5
    3c0c:	9905      	ldr	r1, [sp, #20]
    3c0e:	f8c1 9000 	str.w	r9, [r1]
    3c12:	b12c      	cbz	r4, 3c20 <__gethex+0x15c>
    3c14:	f1bb 0f00 	cmp.w	fp, #0
    3c18:	bf0c      	ite	eq
    3c1a:	2006      	moveq	r0, #6
    3c1c:	2000      	movne	r0, #0
    3c1e:	e17d      	b.n	3f1c <__gethex+0x458>
    3c20:	1beb      	subs	r3, r5, r7
    3c22:	3b01      	subs	r3, #1
    3c24:	4621      	mov	r1, r4
    3c26:	2b07      	cmp	r3, #7
    3c28:	dd02      	ble.n	3c30 <__gethex+0x16c>
    3c2a:	3101      	adds	r1, #1
    3c2c:	105b      	asrs	r3, r3, #1
    3c2e:	e7fa      	b.n	3c26 <__gethex+0x162>
    3c30:	9803      	ldr	r0, [sp, #12]
    3c32:	f7fe fc52 	bl	24da <_Balloc>
    3c36:	f04f 0900 	mov.w	r9, #0
    3c3a:	f100 0a14 	add.w	sl, r0, #20
    3c3e:	4604      	mov	r4, r0
    3c40:	4653      	mov	r3, sl
    3c42:	46cb      	mov	fp, r9
    3c44:	42bd      	cmp	r5, r7
    3c46:	d933      	bls.n	3cb0 <__gethex+0x1ec>
    3c48:	1e6a      	subs	r2, r5, #1
    3c4a:	9205      	str	r2, [sp, #20]
    3c4c:	9907      	ldr	r1, [sp, #28]
    3c4e:	f815 2c01 	ldrb.w	r2, [r5, #-1]
    3c52:	428a      	cmp	r2, r1
    3c54:	d009      	beq.n	3c6a <__gethex+0x1a6>
    3c56:	f1bb 0f20 	cmp.w	fp, #32
    3c5a:	d117      	bne.n	3c8c <__gethex+0x1c8>
    3c5c:	f8c3 9000 	str.w	r9, [r3]
    3c60:	f04f 0900 	mov.w	r9, #0
    3c64:	3304      	adds	r3, #4
    3c66:	46cb      	mov	fp, r9
    3c68:	e010      	b.n	3c8c <__gethex+0x1c8>
    3c6a:	9a02      	ldr	r2, [sp, #8]
    3c6c:	9905      	ldr	r1, [sp, #20]
    3c6e:	f1c2 0c01 	rsb	ip, r2, #1
    3c72:	448c      	add	ip, r1
    3c74:	45bc      	cmp	ip, r7
    3c76:	d3ee      	bcc.n	3c56 <__gethex+0x192>
    3c78:	4660      	mov	r0, ip
    3c7a:	9904      	ldr	r1, [sp, #16]
    3c7c:	e88d 1008 	stmia.w	sp, {r3, ip}
    3c80:	f7fc fdb8 	bl	7f4 <strncmp>
    3c84:	e89d 1008 	ldmia.w	sp, {r3, ip}
    3c88:	b180      	cbz	r0, 3cac <__gethex+0x1e8>
    3c8a:	e7e4      	b.n	3c56 <__gethex+0x192>
    3c8c:	f815 0c01 	ldrb.w	r0, [r5, #-1]
    3c90:	9300      	str	r3, [sp, #0]
    3c92:	f7ff ff02 	bl	3a9a <__hexdig_fun>
    3c96:	f000 000f 	and.w	r0, r0, #15
    3c9a:	fa00 f00b 	lsl.w	r0, r0, fp
    3c9e:	f8dd c014 	ldr.w	ip, [sp, #20]
    3ca2:	9b00      	ldr	r3, [sp, #0]
    3ca4:	ea49 0900 	orr.w	r9, r9, r0
    3ca8:	f10b 0b04 	add.w	fp, fp, #4
    3cac:	4665      	mov	r5, ip
    3cae:	e7c9      	b.n	3c44 <__gethex+0x180>
    3cb0:	f843 9b04 	str.w	r9, [r3], #4
    3cb4:	ebca 0303 	rsb	r3, sl, r3
    3cb8:	109b      	asrs	r3, r3, #2
    3cba:	6123      	str	r3, [r4, #16]
    3cbc:	4648      	mov	r0, r9
    3cbe:	015f      	lsls	r7, r3, #5
    3cc0:	f7fe fcd3 	bl	266a <__hi0bits>
    3cc4:	f8d8 5000 	ldr.w	r5, [r8]
    3cc8:	1a38      	subs	r0, r7, r0
    3cca:	42a8      	cmp	r0, r5
    3ccc:	dd26      	ble.n	3d1c <__gethex+0x258>
